
cputest:     file format elf32-zip


Disassembly of section .rocode:

01000000 <_start>:
 1000000:	06 00 00 00 	CLR        R0
 1000004:	0e 00 00 00 	CLR        R1
 1000008:	16 00 00 00 	CLR        R2
 100000c:	1e 00 00 00 	CLR        R3
 1000010:	26 00 00 00 	CLR        R4
 1000014:	2e 00 00 00 	CLR        R5
 1000018:	36 00 00 00 	CLR        R6
 100001c:	3e 00 00 00 	CLR        R7
 1000020:	46 00 00 00 	CLR        R8
 1000024:	4e 00 00 00 	CLR        R9
 1000028:	56 00 00 00 	CLR        R10
 100002c:	5e 00 00 00 	CLR        R11
 1000030:	66 00 00 00 	CLR        R12
 1000034:	6a 00 01 80 	LDI        0x01800000,SP  // 1800000 <_top_of_stack>
 1000038:	6a 40 00 00 
 100003c:	76 00 00 00 	TRAP
 1000040:	03 43 c0 02 	LJSR       @0x010021d4    // 10021d4 <entry>
 1000044:	7c 87 c0 00 
 1000048:	01 00 21 d4 

0100004c <busy_failure>:
 100004c:	78 83 ff fc 	BUSY

01000050 <run_test>:
 1000050:	1e 00 00 00 	CLR        R3
 1000054:	03 47 c0 10 	MOV        $64+PC,uR0
 1000058:	0b 44 c0 00 	MOV        R3,uR1
 100005c:	13 44 c0 00 	MOV        R3,uR2
 1000060:	1b 44 c0 00 	MOV        R3,uR3
 1000064:	23 44 c0 00 	MOV        R3,uR4
 1000068:	2b 44 c0 00 	MOV        R3,uR5
 100006c:	33 44 c0 00 	MOV        R3,uR6
 1000070:	3b 44 c0 00 	MOV        R3,uR7
 1000074:	43 44 c0 00 	MOV        R3,uR8
 1000078:	4b 44 c0 00 	MOV        R3,uR9
 100007c:	53 44 c0 00 	MOV        R3,uR10
 1000080:	5b 44 c0 00 	MOV        R3,uR11
 1000084:	63 44 c0 00 	MOV        R3,uR12
 1000088:	6b 44 80 00 	MOV        R2,uSP
 100008c:	73 44 c0 20 	MOV        $32+R3,uCC
 1000090:	7b 44 40 00 	MOV        R1,uPC
 1000094:	70 c0 00 20 	RTU

01000098 <test_return>:
 1000098:	0b 40 60 00 	MOV        uR1,R1
 100009c:	70 43 ff df 	AND        $-33,CC
 10000a0:	7b 40 00 00 	RTN

010000a4 <idle_test>:
 10000a4:	0e 00 00 00 	CLR        R1
 10000a8:	03 47 c0 15 	MOV        $84+PC,uR0
 10000ac:	0b 44 40 00 	MOV        R1,uR1
 10000b0:	13 44 40 00 	MOV        R1,uR2
 10000b4:	1b 44 40 00 	MOV        R1,uR3
 10000b8:	23 44 40 00 	MOV        R1,uR4
 10000bc:	2b 44 40 00 	MOV        R1,uR5
 10000c0:	33 44 40 00 	MOV        R1,uR6
 10000c4:	3b 44 40 00 	MOV        R1,uR7
 10000c8:	43 44 40 00 	MOV        R1,uR8
 10000cc:	4b 44 40 00 	MOV        R1,uR9
 10000d0:	53 44 40 00 	MOV        R1,uR10
 10000d4:	5b 44 40 00 	MOV        R1,uR11
 10000d8:	63 44 40 00 	MOV        R1,uR12
 10000dc:	6b 44 40 00 	MOV        R1,uSP
 10000e0:	73 44 40 20 	MOV        $32+R1,uCC
 10000e4:	7b 47 c0 06 	MOV        $24+PC,uPC
 10000e8:	70 c0 00 30 	WAIT
 10000ec:	0b 43 e0 00 	MOV        uPC,R1
 10000f0:	0c 07 c0 03 	CMP        $12+PC,R1
 10000f4:	0e 00 00 00 	CLR        R1
 10000f8:	0a 68 00 01 	LDILO.NZ   $1,R1
 10000fc:	7b 40 00 00 	RTN

01000100 <idle_loop>:
 1000100:	70 c0 00 30 	WAIT
 1000104:	78 83 ff f8 	BRA        @0x01000100    // 1000100 <idle_loop>

01000108 <break_one>:
 1000108:	0e 00 00 00 	CLR        R1
 100010c:	7f 00 00 00 	BREAK      @0x01000110    // 1000110 <break_one+0x8>
 1000110:	0e 00 00 01 	LDI        $1,R1
 1000114:	7b 40 00 00 	RTN

01000118 <break_two>:
 1000118:	0e 00 00 00 	CLR        R1
 100011c:	7b 40 00 00 	RTN
 1000120:	7f 00 00 00 	BREAK      @0x01000124    // 1000124 <break_three>

01000124 <break_three>:
 1000124:	7f 00 00 00 	BREAK      @0x01000128    // 1000128 <early_branch_test>

01000128 <early_branch_test>:
 1000128:	0e 00 00 01 	LDI        $1,R1
 100012c:	78 80 00 04 	BRA        @0x01000134    // 1000134 <_eb_a>
 1000130:	7f 00 00 00 	BREAK      @0x01000134    // 1000134 <_eb_a>

01000134 <_eb_a>:
 1000134:	0e 00 00 02 	LDI        $2,R1
 1000138:	78 80 00 08 	BRA        @0x01000144    // 1000144 <_eb_b>
 100013c:	7f c0 00 00 	NOOP
 1000140:	7f 00 00 00 	BREAK      @0x01000144    // 1000144 <_eb_b>

01000144 <_eb_b>:
 1000144:	0e 00 00 03 	LDI        $3,R1
 1000148:	78 80 00 0c 	BRA        @0x01000158    // 1000158 <_eb_c>
 100014c:	7f c0 00 00 	NOOP
 1000150:	7f c0 00 00 	NOOP
 1000154:	7f 00 00 00 	BREAK      @0x01000158    // 1000158 <_eb_c>

01000158 <_eb_c>:
 1000158:	0e 00 00 04 	LDI        $4,R1
 100015c:	78 80 00 10 	BRA        @0x01000170    // 1000170 <_eb_d>
 1000160:	7f c0 00 00 	NOOP
 1000164:	7f c0 00 00 	NOOP
 1000168:	7f c0 00 00 	NOOP
 100016c:	7f 00 00 00 	BREAK      @0x01000170    // 1000170 <_eb_d>

01000170 <_eb_d>:
 1000170:	0e 00 00 05 	LDI        $5,R1
 1000174:	78 80 00 14 	BRA        @0x0100018c    // 100018c <_eb_e>
 1000178:	7f c0 00 00 	NOOP
 100017c:	7f c0 00 00 	NOOP
 1000180:	7f c0 00 00 	NOOP
 1000184:	7f c0 00 00 	NOOP
 1000188:	7f 00 00 00 	BREAK      @0x0100018c    // 100018c <_eb_e>

0100018c <_eb_e>:
 100018c:	0e 00 00 06 	LDI        $6,R1
 1000190:	78 80 00 18 	BRA        @0x010001ac    // 10001ac <_eb_f>
 1000194:	7f c0 00 00 	NOOP
 1000198:	7f c0 00 00 	NOOP
 100019c:	7f c0 00 00 	NOOP
 10001a0:	7f c0 00 00 	NOOP
 10001a4:	7f c0 00 00 	NOOP
 10001a8:	7f 00 00 00 	BREAK      @0x010001ac    // 10001ac <_eb_f>

010001ac <_eb_f>:
 10001ac:	0e 00 00 00 	CLR        R1
 10001b0:	7b 40 00 00 	RTN

010001b4 <trap_test_and>:
 10001b4:	0e 00 00 00 	CLR        R1
 10001b8:	70 43 ff df 	AND        $-33,CC
 10001bc:	0e 00 00 01 	LDI        $1,R1
 10001c0:	7b 40 00 00 	RTN

010001c4 <trap_test_clr>:
 10001c4:	0e 00 00 00 	CLR        R1
 10001c8:	76 00 00 00 	TRAP
 10001cc:	0e 00 00 01 	LDI        $1,R1
 10001d0:	7b 40 00 00 	RTN

010001d4 <overflow_test>:
 10001d4:	0e 00 00 00 	CLR        R1
 10001d8:	1e 00 00 00 	CLR        R3
 10001dc:	16 7f ff ff 	LDI        $-1,R2
 10001e0:	11 40 00 01 	LSR        $1,R2
 10001e4:	10 80 00 01 	ADD        $1,R2
 10001e8:	18 e0 00 01 	OR.V       $1,R3
 10001ec:	12 00 00 01 	BREV       $1,R2
 10001f0:	10 00 00 01 	SUB        $1,R2
 10001f4:	18 e0 00 02 	OR.V       $2,R3
 10001f8:	12 00 00 01 	BREV       $1,R2
 10001fc:	11 40 00 01 	LSR        $1,R2
 1000200:	18 e0 00 04 	OR.V       $4,R3
 1000204:	12 00 00 02 	BREV       $2,R2
 1000208:	11 80 00 01 	LSL        $1,R2
 100020c:	18 e0 00 08 	OR.V       $8,R3
 1000210:	12 00 00 01 	BREV       $1,R2
 1000214:	11 80 00 01 	LSL        $1,R2
 1000218:	18 e0 00 10 	OR.V       $16,R3
 100021c:	19 00 00 1f 	XOR        $31,R3
 1000220:	08 c4 c0 00 	OR         R3,R1
 1000224:	7b 40 00 00 	RTN

01000228 <carry_test>:
 1000228:	0e 00 00 00 	CLR        R1
 100022c:	1e 00 00 00 	CLR        R3
 1000230:	16 7f ff ff 	LDI        $-1,R2
 1000234:	10 80 00 01 	ADD        $1,R2
 1000238:	18 d8 00 01 	OR.C       $1,R3
 100023c:	10 00 00 01 	SUB        $1,R2
 1000240:	18 d8 00 02 	OR.C       $2,R3
 1000244:	16 00 00 01 	LDI        $1,R2
 1000248:	11 40 00 01 	LSR        $1,R2
 100024c:	18 d8 00 04 	OR.C       $4,R3
 1000250:	16 00 00 01 	LDI        $1,R2
 1000254:	11 c0 00 01 	ASR        $1,R2
 1000258:	18 d8 00 08 	OR.C       $8,R3
 100025c:	16 00 00 00 	CLR        R2
 1000260:	14 00 00 01 	CMP        $1,R2
 1000264:	18 d8 00 10 	OR.C       $16,R3
 1000268:	19 00 00 1f 	XOR        $31,R3
 100026c:	08 c4 c0 00 	OR         R3,R1
 1000270:	7b 40 00 00 	RTN

01000274 <loop_test>:
 1000274:	0e 00 00 00 	CLR        R1
 1000278:	16 00 00 00 	CLR        R2
 100027c:	1e 00 00 00 	CLR        R3
 1000280:	14 00 00 05 	CMP        $5,R2
 1000284:	78 b0 00 10 	BGE        @0x01000298    // 1000298 <end_for_loop_test>

01000288 <for_loop_test>:
 1000288:	10 80 00 01 	ADD        $1,R2
 100028c:	18 80 00 01 	ADD        $1,R3
 1000290:	14 00 00 05 	CMP        $5,R2
 1000294:	78 93 ff f0 	BLT        @0x01000288    // 1000288 <for_loop_test>

01000298 <end_for_loop_test>:
 1000298:	1c 00 00 05 	CMP        $5,R3
 100029c:	08 e8 00 01 	OR.NZ      $1,R1
 10002a0:	16 00 00 00 	CLR        R2
 10002a4:	1e 00 00 05 	LDI        $5,R3

010002a8 <bge_loop_test>:
 10002a8:	10 80 00 01 	ADD        $1,R2
 10002ac:	18 00 00 01 	SUB        $1,R3
 10002b0:	78 b3 ff f4 	BGE        @0x010002a8    // 10002a8 <bge_loop_test>
 10002b4:	14 00 00 06 	CMP        $6,R2
 10002b8:	08 e8 00 04 	OR.NZ      $4,R1
 10002bc:	68 00 00 04 	SUB        $4,SP
 10002c0:	16 00 00 00 	CLR        R2
 10002c4:	1e 00 00 04 	LDI        $4,R3
 10002c8:	1c c7 40 00 	SW         R3,(SP)

010002cc <mem_loop_test>:
 10002cc:	10 80 00 01 	ADD        $1,R2
 10002d0:	18 80 00 0e 	ADD        $14,R3
 10002d4:	1c 87 40 00 	LW         (SP),R3
 10002d8:	18 00 00 01 	SUB        $1,R3
 10002dc:	1c c7 40 00 	SW         R3,(SP)
 10002e0:	78 b3 ff e8 	BGE        @0x010002cc    // 10002cc <mem_loop_test>
 10002e4:	14 00 00 05 	CMP        $5,R2
 10002e8:	08 e8 00 08 	OR.NZ      $8,R1
 10002ec:	68 80 00 04 	ADD        $4,SP
 10002f0:	7b 40 00 00 	RTN

010002f4 <shift_test>:
 10002f4:	0e 00 00 00 	CLR        R1
 10002f8:	1e 00 00 00 	CLR        R3
 10002fc:	26 00 00 00 	CLR        R4
 1000300:	2e 00 00 00 	CLR        R5
 1000304:	16 7f ff ff 	LDI        $-1,R2
 1000308:	11 40 00 20 	LSR        $32,R2
 100030c:	18 c8 00 01 	OR.Z       $1,R3
 1000310:	18 d8 00 02 	OR.C       $2,R3
 1000314:	14 00 00 00 	CMP        $0,R2
 1000318:	18 c8 00 04 	OR.Z       $4,R3
 100031c:	16 7f ff ff 	LDI        $-1,R2
 1000320:	11 c0 00 20 	ASR        $32,R2
 1000324:	18 d0 00 08 	OR.LT      $8,R3
 1000328:	18 d8 00 10 	OR.C       $16,R3
 100032c:	14 03 ff ff 	CMP        $-1,R2
 1000330:	18 c8 00 20 	OR.Z       $32,R3
 1000334:	16 7f ff fc 	LDI        $-4,R2
 1000338:	11 c0 00 02 	ASR        $2,R2
 100033c:	18 d0 00 40 	OR.LT      $64,R3
 1000340:	08 d8 00 80 	OR.C       $128,R1
 1000344:	18 c0 00 80 	OR         $128,R3
 1000348:	14 03 ff ff 	CMP        $-1,R2
 100034c:	18 c8 01 00 	OR.Z       $256,R3
 1000350:	11 c0 00 01 	ASR        $1,R2
 1000354:	18 d0 02 00 	OR.LT      $512,R3
 1000358:	18 d8 04 00 	OR.C       $1024,R3
 100035c:	14 03 ff ff 	CMP        $-1,R2
 1000360:	18 c8 08 00 	OR.Z       $2048,R3
 1000364:	16 7f ff ff 	LDI        $-1,R2
 1000368:	11 80 00 20 	LSL        $32,R2
 100036c:	18 c8 10 00 	OR.Z       $4096,R3
 1000370:	18 d8 20 00 	OR.C       $8192,R3
 1000374:	14 00 00 00 	CMP        $0,R2
 1000378:	18 c8 40 00 	OR.Z       $16384,R3
 100037c:	16 7f ff ff 	LDI        $-1,R2
 1000380:	11 c0 00 00 	ASR        $0,R2
 1000384:	08 d8 80 00 	OR.C       $32768,R1
 1000388:	18 c0 80 00 	OR         $32768,R3
 100038c:	14 03 ff ff 	CMP        $-1,R2
 1000390:	20 c8 00 01 	OR.Z       $1,R4
 1000394:	11 40 00 00 	LSR        $0,R2
 1000398:	2e 02 00 00 	LDI        $131072,R5
 100039c:	08 dd 40 00 	OR.C       R5,R1
 10003a0:	14 03 ff ff 	CMP        $-1,R2
 10003a4:	20 c8 00 02 	OR.Z       $2,R4
 10003a8:	11 80 00 00 	LSL        $0,R2
 10003ac:	2e 08 00 00 	LDI        $524288,R5
 10003b0:	08 dd 40 00 	OR.C       R5,R1
 10003b4:	14 03 ff ff 	CMP        $-1,R2
 10003b8:	20 c8 00 04 	OR.Z       $4,R4
 10003bc:	21 00 00 07 	XOR        $7,R4
 10003c0:	19 00 ff ff 	XOR        $65535,R3
 10003c4:	21 80 00 10 	LSL        $16,R4
 10003c8:	18 c5 00 00 	OR         R4,R3
 10003cc:	08 c4 c0 00 	OR         R3,R1
 10003d0:	7b 40 00 00 	RTN

010003d4 <sw_brev>:
 10003d4:	68 00 00 08 	SUB        $8,SP
 10003d8:	14 c7 40 00 	SW         R2,(SP)
 10003dc:	1c c7 40 04 	SW         R3,$4(SP)
 10003e0:	16 7f ff ff 	LDI        $-1,R2
 10003e4:	1e 00 00 00 	CLR        R3

010003e8 <sw_brev_loop>:
 10003e8:	19 80 00 01 	LSL        $1,R3
 10003ec:	09 40 00 01 	LSR        $1,R1
 10003f0:	18 d8 00 01 	OR.C       $1,R3
 10003f4:	11 40 00 01 	LSR        $1,R2
 10003f8:	78 88 00 04 	BZ         @0x01000400    // 1000400 <sw_brev_endloop>
 10003fc:	78 83 ff e8 	BRA        @0x010003e8    // 10003e8 <sw_brev_loop>

01000400 <sw_brev_endloop>:
 1000400:	0b 40 c0 00 	MOV        R3,R1
 1000404:	14 87 40 00 	LW         (SP),R2
 1000408:	1c 87 40 04 	LW         4(SP),R3
 100040c:	68 80 00 08 	ADD        $8,SP
 1000410:	7b 40 00 00 	RTN

01000414 <pipeline_stack_test>:
 1000414:	68 00 00 04 	SUB        $4,SP
 1000418:	04 c7 40 00 	SW         R0,(SP)
 100041c:	06 00 00 00 	CLR        R0
 1000420:	0e 00 00 01 	LDI        $1,R1
 1000424:	16 00 00 02 	LDI        $2,R2
 1000428:	1e 00 00 03 	LDI        $3,R3
 100042c:	26 00 00 04 	LDI        $4,R4
 1000430:	2e 00 00 05 	LDI        $5,R5
 1000434:	36 00 00 06 	LDI        $6,R6
 1000438:	3e 00 00 07 	LDI        $7,R7
 100043c:	43 41 c0 01 	MOV        $1+R7,R8
 1000440:	4b 42 00 01 	MOV        $1+R8,R9
 1000444:	53 42 40 01 	MOV        $1+R9,R10
 1000448:	5b 42 80 01 	MOV        $1+R10,R11
 100044c:	63 42 c0 01 	MOV        $1+R11,R12
 1000450:	03 43 c0 01 	JSR        0x0100049c     // 100049c <pipeline_stack_test_component>
 1000454:	78 80 00 44 

01000458 <pipeline_stack_test_component_return>:
 1000458:	0c 00 00 01 	CMP        $1,R1
 100045c:	0a 08 00 00 	CLR.Z      $0,R1
 1000460:	14 00 00 02 	CMP        $2,R2
 1000464:	1c 08 00 03 	CMP.Z      $3,R3
 1000468:	24 08 00 04 	CMP.Z      $4,R4
 100046c:	2c 08 00 05 	CMP.Z      $5,R5
 1000470:	34 08 00 06 	CMP.Z      $6,R6
 1000474:	3c 08 00 07 	CMP.Z      $7,R7
 1000478:	44 08 00 08 	CMP.Z      $8,R8
 100047c:	4c 08 00 09 	CMP.Z      $9,R9
 1000480:	54 08 00 0a 	CMP.Z      $10,R10
 1000484:	5c 08 00 0b 	CMP.Z      $11,R11
 1000488:	64 08 00 0c 	CMP.Z      $12,R12
 100048c:	0a 2b ff ff 	BREV.NZ    $-1,R1
 1000490:	04 87 40 00 	LW         (SP),R0
 1000494:	68 80 00 04 	ADD        $4,SP
 1000498:	7b 40 00 00 	RTN

0100049c <pipeline_stack_test_component>:
 100049c:	68 00 00 34 	SUB        $52,SP
 10004a0:	04 c7 40 00 	SW         R0,(SP)
 10004a4:	0c c7 40 04 	SW         R1,$4(SP)
 10004a8:	14 c7 40 08 	SW         R2,$8(SP)
 10004ac:	1c c7 40 0c 	SW         R3,$12(SP)
 10004b0:	24 c7 40 10 	SW         R4,$16(SP)
 10004b4:	2c c7 40 14 	SW         R5,$20(SP)
 10004b8:	34 c7 40 18 	SW         R6,$24(SP)
 10004bc:	3c c7 40 1c 	SW         R7,$28(SP)
 10004c0:	44 c7 40 20 	SW         R8,$32(SP)
 10004c4:	4c c7 40 24 	SW         R9,$36(SP)
 10004c8:	54 c7 40 28 	SW         R10,$40(SP)
 10004cc:	5c c7 40 2c 	SW         R11,$44(SP)
 10004d0:	64 c7 40 30 	SW         R12,$48(SP)
 10004d4:	01 03 ff ff 	XOR        $-1,R0
 10004d8:	09 03 ff ff 	XOR        $-1,R1
 10004dc:	11 03 ff ff 	XOR        $-1,R2
 10004e0:	19 03 ff ff 	XOR        $-1,R3
 10004e4:	21 03 ff ff 	XOR        $-1,R4
 10004e8:	29 03 ff ff 	XOR        $-1,R5
 10004ec:	31 03 ff ff 	XOR        $-1,R6
 10004f0:	39 03 ff ff 	XOR        $-1,R7
 10004f4:	41 03 ff ff 	XOR        $-1,R8
 10004f8:	49 03 ff ff 	XOR        $-1,R9
 10004fc:	51 03 ff ff 	XOR        $-1,R10
 1000500:	59 03 ff ff 	XOR        $-1,R11
 1000504:	61 03 ff ff 	XOR        $-1,R12
 1000508:	04 87 40 00 	LW         (SP),R0
 100050c:	0c 87 40 04 	LW         4(SP),R1
 1000510:	14 87 40 08 	LW         8(SP),R2
 1000514:	1c 87 40 0c 	LW         12(SP),R3
 1000518:	24 87 40 10 	LW         16(SP),R4
 100051c:	2c 87 40 14 	LW         20(SP),R5
 1000520:	34 87 40 18 	LW         24(SP),R6
 1000524:	3c 87 40 1c 	LW         28(SP),R7
 1000528:	44 87 40 20 	LW         32(SP),R8
 100052c:	4c 87 40 24 	LW         36(SP),R9
 1000530:	54 87 40 28 	LW         40(SP),R10
 1000534:	5c 87 40 2c 	LW         44(SP),R11
 1000538:	64 87 40 30 	LW         48(SP),R12
 100053c:	68 80 00 34 	ADD        $52,SP
 1000540:	7b 40 00 00 	RTN

01000544 <mpy_test>:
 1000544:	0e 00 00 00 	CLR        R1
 1000548:	16 00 00 89 	LDI        $137,R2
 100054c:	1e 00 00 00 	CLR        R3
 1000550:	26 00 00 00 	CLR        R4

01000554 <mpy_137_test_loop>:
 1000554:	2b 40 80 00 	MOV        R2,R5
 1000558:	2b 05 00 00 	MPY        R4,R5
 100055c:	2c 04 c0 00 	CMP        R3,R5
 1000560:	78 a8 00 38 	BNZ        @0x0100059c    // 100059c <end_mpy_137_test_loop_failed>
 1000564:	33 40 80 00 	MOV        R2,R6
 1000568:	33 41 9f ff 	MOV        $-1+R6,R6
 100056c:	31 03 ff ff 	XOR        $-1,R6
 1000570:	33 05 00 00 	MPY        R4,R6
 1000574:	33 41 9f ff 	MOV        $-1+R6,R6
 1000578:	31 03 ff ff 	XOR        $-1,R6
 100057c:	34 04 c0 00 	CMP        R3,R6
 1000580:	78 a8 00 18 	BNZ        @0x0100059c    // 100059c <end_mpy_137_test_loop_failed>
 1000584:	36 00 00 00 	CLR        R6
 1000588:	1c 43 00 00 	TST        $-65536,R3
 100058c:	78 a8 00 10 	BNZ        @0x010005a0    // 10005a0 <end_mpy_137_test_loop>
 1000590:	18 84 80 00 	ADD        R2,R3
 1000594:	20 80 00 01 	ADD        $1,R4
 1000598:	78 83 ff b8 	BRA        @0x01000554    // 1000554 <mpy_137_test_loop>

0100059c <end_mpy_137_test_loop_failed>:
 100059c:	08 c0 00 01 	OR         $1,R1

010005a0 <end_mpy_137_test_loop>:
 10005a0:	7b 40 00 00 	RTN

010005a4 <hard_mpyuhi>:
 10005a4:	0a 84 80 00 	MPYUHI     R2,R1
 10005a8:	7b 40 00 00 	RTN

010005ac <hard_mpyshi>:
 10005ac:	0a c4 80 00 	MPYSHI     R2,R1
 10005b0:	7b 40 00 00 	RTN

010005b4 <div_test>:
 10005b4:	22 01 12 00 	LDI        0x004881a7,R4  // 4881a7 <_rom+0x4881a7>
 10005b8:	22 40 81 a7 
 10005bc:	12 00 ab 40 	LDI        0x02d5108b,R2  // 2d5108b <_top_of_stack+0x155108b>
 10005c0:	12 40 10 8b 
 10005c4:	1e 00 00 0a 	LDI        $10,R3
 10005c8:	13 84 c0 00 	DIVU       R3,R2
 10005cc:	14 05 00 00 	CMP        R4,R2
 10005d0:	0a 68 00 01 	LDILO.NZ   $1,R1
 10005d4:	7b 68 00 00 	RTN.NZ
 10005d8:	12 00 ab 40 	LDI        0x02d5108b,R2  // 2d5108b <_top_of_stack+0x155108b>
 10005dc:	12 40 10 8b 
 10005e0:	13 80 00 0a 	DIVU       $10,R2
 10005e4:	14 05 00 00 	CMP        R4,R2
 10005e8:	0a 68 00 01 	LDILO.NZ   $1,R1
 10005ec:	7b 40 00 00 	RTN

010005f0 <pipeline_test>:
 10005f0:	68 00 00 0c 	SUB        $12,SP
 10005f4:	16 00 01 13 	LDI        $275,R2
 10005f8:	14 c7 40 04 	SW         R2,$4(SP)
 10005fc:	13 43 40 04 	MOV        $4+SP,R2
 1000600:	14 c7 40 00 	SW         R2,(SP)
 1000604:	16 00 00 00 	CLR        R2
 1000608:	13 43 40 00 	MOV        SP,R2
 100060c:	14 84 80 00 	LW         (R2),R2
 1000610:	14 84 80 00 	LW         (R2),R2
 1000614:	14 00 01 13 	CMP        $275,R2
 1000618:	08 e8 00 01 	OR.NZ      $1,R1
 100061c:	13 43 40 00 	MOV        SP,R2
 1000620:	1c 84 80 00 	LW         (R2),R3
 1000624:	24 84 80 04 	LW         4(R2),R4
 1000628:	24 c4 c0 04 	SW         R4,$4(R3)
 100062c:	1c 84 80 00 	LW         (R2),R3
 1000630:	24 84 80 08 	LW         8(R2),R4
 1000634:	24 00 01 13 	CMP        $275,R4
 1000638:	08 e8 00 02 	OR.NZ      $2,R1
 100063c:	13 43 40 00 	MOV        SP,R2
 1000640:	1b 40 80 04 	MOV        $4+R2,R3
 1000644:	1c c4 80 04 	SW         R3,$4(R2)
 1000648:	26 00 0e 04 	LDI        $3588,R4
 100064c:	24 c4 80 08 	SW         R4,$8(R2)
 1000650:	1b 40 80 00 	MOV        R2,R3
 1000654:	1c 84 80 00 	LW         (R2),R3
 1000658:	1c 84 c0 04 	LW         4(R3),R3
 100065c:	1c 05 00 00 	CMP        R4,R3
 1000660:	08 e8 00 04 	OR.NZ      $4,R1
 1000664:	68 80 00 0c 	ADD        $12,SP
 1000668:	7b 40 00 00 	RTN

0100066c <mempipe_test>:
 100066c:	68 00 00 10 	SUB        $16,SP
 1000670:	04 c7 40 00 	SW         R0,(SP)
 1000674:	5e 00 10 00 	LDI        $4096,R11
 1000678:	16 7f ff ff 	LDI        $-1,R2
 100067c:	1e 00 00 00 	CLR        R3
 1000680:	14 c7 40 08 	SW         R2,$8(SP)
 1000684:	1c 87 40 08 	LW         8(SP),R3
 1000688:	14 04 c0 00 	CMP        R3,R2
 100068c:	08 e8 00 01 	OR.NZ      $1,R1
 1000690:	7f c0 00 00 	NOOP
 1000694:	7f c0 00 00 	NOOP
 1000698:	16 00 00 00 	CLR        R2
 100069c:	1e 00 00 00 	CLR        R3
 10006a0:	14 87 40 08 	LW         8(SP),R2
 10006a4:	14 c7 40 0c 	SW         R2,$12(SP)
 10006a8:	14 87 40 08 	LW         8(SP),R2
 10006ac:	7f c0 00 00 	NOOP
 10006b0:	7f c0 00 00 	NOOP
 10006b4:	7f c0 00 00 	NOOP
 10006b8:	7f c0 00 00 	NOOP
 10006bc:	1c 87 40 0c 	LW         12(SP),R3
 10006c0:	14 04 c0 00 	CMP        R3,R2
 10006c4:	08 e8 00 02 	OR.NZ      $2,R1
 10006c8:	04 87 40 00 	LW         (SP),R0
 10006cc:	68 80 00 10 	ADD        $16,SP
 10006d0:	7b 40 00 00 	RTN

010006d4 <cexec_test>:
 10006d4:	68 00 00 04 	SUB        $4,SP
 10006d8:	04 c7 40 00 	SW         R0,(SP)
 10006dc:	11 04 80 00 	XOR        R2,R2
 10006e0:	10 88 00 01 	ADD.Z      $1,R2
 10006e4:	08 a8 00 01 	ADD.NZ     $1,R1
 10006e8:	14 08 00 00 	CMP.Z      $0,R2
 10006ec:	08 c8 00 02 	OR.Z       $2,R1
 10006f0:	04 87 40 00 	LW         (SP),R0
 10006f4:	68 80 00 04 	ADD        $4,SP
 10006f8:	7b 40 00 00 	RTN

010006fc <nowaitpipe_test>:
 10006fc:	68 00 00 08 	SUB        $8,SP
 1000700:	16 7f ff ff 	LDI        $-1,R2
 1000704:	16 00 00 00 	CLR        R2
 1000708:	10 80 00 01 	ADD        $1,R2
 100070c:	14 00 00 01 	CMP        $1,R2
 1000710:	08 e8 00 01 	OR.NZ      $1,R1
 1000714:	16 00 00 00 	CLR        R2
 1000718:	1e 00 00 00 	CLR        R3
 100071c:	10 80 00 01 	ADD        $1,R2
 1000720:	1c 04 80 00 	CMP        R2,R3
 1000724:	08 c8 00 02 	OR.Z       $2,R1
 1000728:	11 04 80 00 	XOR        R2,R2
 100072c:	10 88 00 05 	ADD.Z      $5,R2
 1000730:	14 00 00 05 	CMP        $5,R2
 1000734:	08 e8 00 04 	OR.NZ      $4,R1
 1000738:	16 00 00 00 	CLR        R2
 100073c:	19 04 c0 00 	XOR        R3,R3
 1000740:	10 88 00 05 	ADD.Z      $5,R2
 1000744:	1c 04 80 00 	CMP        R2,R3
 1000748:	08 c8 00 08 	OR.Z       $8,R1
 100074c:	16 00 00 00 	CLR        R2
 1000750:	19 04 c0 00 	XOR        R3,R3
 1000754:	10 80 00 05 	ADD        $5,R2
 1000758:	1c 04 bf fb 	CMP        $-5+R2,R3
 100075c:	08 e8 00 10 	OR.NZ      $16,R1
 1000760:	16 00 00 00 	CLR        R2
 1000764:	19 04 c0 00 	XOR        R3,R3
 1000768:	10 88 00 05 	ADD.Z      $5,R2
 100076c:	1c 04 bf fb 	CMP        $-5+R2,R3
 1000770:	08 e8 00 20 	OR.NZ      $32,R1
 1000774:	16 00 00 00 	CLR        R2
 1000778:	14 c7 40 04 	SW         R2,$4(SP)
 100077c:	16 00 20 a0 	LDI        $8352,R2
 1000780:	14 87 40 04 	LW         4(SP),R2
 1000784:	14 43 ff ff 	TST        $-1,R2
 1000788:	08 e8 00 40 	OR.NZ      $64,R1
 100078c:	16 00 03 a9 	LDI        $937,R2
 1000790:	14 c7 40 04 	SW         R2,$4(SP)
 1000794:	7f c0 00 00 	NOOP
 1000798:	14 87 40 04 	LW         4(SP),R2
 100079c:	14 00 03 aa 	CMP        $938,R2
 10007a0:	08 f0 00 80 	OR.GE      $128,R1
 10007a4:	14 00 03 a8 	CMP        $936,R2
 10007a8:	08 d0 01 00 	OR.LT      $256,R1
 10007ac:	16 00 14 d0 	LDI        $5328,R2
 10007b0:	14 87 40 04 	LW         4(SP),R2
 10007b4:	14 c7 40 04 	SW         R2,$4(SP)
 10007b8:	1c 87 40 04 	LW         4(SP),R3
 10007bc:	1c 00 03 a9 	CMP        $937,R3
 10007c0:	08 e8 02 00 	OR.NZ      $512,R1
 10007c4:	68 80 00 08 	ADD        $8,SP
 10007c8:	7b 40 00 00 	RTN

010007cc <bcmem_test>:
 10007cc:	68 00 00 04 	SUB        $4,SP
 10007d0:	0e 00 00 00 	CLR        R1
 10007d4:	16 00 00 00 	CLR        R2
 10007d8:	1e 7f ff ff 	LDI        $-1,R3
 10007dc:	26 01 30 00 	LDI        $77824,R4
 10007e0:	14 c7 40 00 	SW         R2,(SP)
 10007e4:	1c 87 40 00 	LW         (SP),R3
 10007e8:	1c 04 80 00 	CMP        R2,R3
 10007ec:	08 e8 00 01 	OR.NZ      $1,R1
 10007f0:	24 01 30 00 	CMP        $77824,R4
 10007f4:	78 88 00 04 	BZ         @0x010007fc    // 10007fc <bcmem_test_cmploc_1>
 10007f8:	24 c7 40 00 	SW         R4,(SP)

010007fc <bcmem_test_cmploc_1>:
 10007fc:	14 87 40 00 	LW         (SP),R2
 1000800:	24 04 80 00 	CMP        R2,R4
 1000804:	08 c8 00 02 	OR.Z       $2,R1
 1000808:	16 00 00 00 	CLR        R2
 100080c:	24 04 80 00 	CMP        R2,R4
 1000810:	78 88 00 04 	BZ         @0x01000818    // 1000818 <bcmem_test_cmploc_2>
 1000814:	24 ef 40 00 	SW.NZ      R4,(SP)

01000818 <bcmem_test_cmploc_2>:
 1000818:	14 87 40 00 	LW         (SP),R2
 100081c:	24 04 80 00 	CMP        R2,R4
 1000820:	08 e8 00 04 	OR.NZ      $4,R1
 1000824:	68 80 00 04 	ADD        $4,SP
 1000828:	7b 40 00 00 	RTN

0100082c <ill_test>:
 100082c:	7e c0 00 00 	ILL 7ec00000
 1000830:	7b 40 00 00 	RTN

01000834 <sim_test>:
 1000834:	7f 80 00 00 	SIM
 1000838:	7b 40 00 00 	RTN

0100083c <cis_test>:
 100083c:	83 d0 8b e0 	CMP        R10,R0         | CMP        R12,R1
 1000840:	7b 40 00 00 	RTN

01000844 <cmpeq_test>:
 1000844:	14 04 40 00 	CMP        R1,R2
 1000848:	24 0c c0 00 	CMP.Z      R3,R4
 100084c:	0a 68 00 01 	LDILO.NZ   $1,R1
 1000850:	7b 40 00 00 	RTN

01000854 <cmpneq_test>:
 1000854:	26 00 00 01 	LDI        $1,R4
 1000858:	14 04 40 00 	CMP        R1,R2
 100085c:	24 0c c0 00 	CMP.Z      R3,R4
 1000860:	02 48 00 01 	LDILO.Z    $1,R0
 1000864:	7b 40 00 00 	RTN

01000868 <ccreg_test>:
 1000868:	0e 00 00 00 	CLR        R1
 100086c:	13 43 80 00 	MOV        CC,R2
 1000870:	23 40 80 00 	MOV        R2,R4
 1000874:	1a 00 00 ff 	BREV       $255,R3
 1000878:	11 04 c0 00 	XOR        R3,R2
 100087c:	73 40 80 00 	MOV        R2,CC
 1000880:	2b 43 80 00 	MOV        CC,R5
 1000884:	29 05 00 00 	XOR        R4,R5
 1000888:	08 e8 00 01 	OR.NZ      $1,R1
 100088c:	33 43 80 00 	MOV        CC,R6
 1000890:	30 c0 00 0f 	OR         $15,R6
 1000894:	73 41 80 00 	MOV        R6,CC
 1000898:	3b 43 80 00 	MOV        CC,R7
 100089c:	38 40 00 0f 	AND        $15,R7
 10008a0:	3c 00 00 0f 	CMP        $15,R7
 10008a4:	08 e8 00 02 	OR.NZ      $2,R1
 10008a8:	41 06 00 01 	XOR        $1+R8,R8
 10008ac:	70 c0 00 01 	OR         $1,CC
 10008b0:	08 e8 00 04 	OR.NZ      $4,R1
 10008b4:	7b 40 00 00 	RTN

010008b8 <idle_task>:
 10008b8:	70 c0 00 30 	WAIT
 10008bc:	78 83 ff f8 	BRA        @0x010008b8    // 10008b8 <idle_task>

010008c0 <soft_mpyuhi>:
 10008c0:	68 00 00 20 	SUB        $32,SP
 10008c4:	2c c7 40 00 	SW         R5,(SP)
 10008c8:	34 c7 40 04 	SW         R6,$4(SP)
 10008cc:	3c c7 40 08 	SW         R7,$8(SP)
 10008d0:	44 c7 40 0c 	SW         R8,$12(SP)
 10008d4:	4c c7 40 10 	SW         R9,$16(SP)
 10008d8:	54 c7 40 14 	SW         R10,$20(SP)
 10008dc:	5c c7 40 18 	SW         R11,$24(SP)
 10008e0:	64 c7 40 1c 	SW         R12,$28(SP)
 10008e4:	53 40 40 00 	MOV        R1,R10
 10008e8:	50 40 ff ff 	AND        $65535,R10
 10008ec:	5b 40 40 00 	MOV        R1,R11
 10008f0:	59 40 00 10 	LSR        $16,R11
 10008f4:	0e 00 00 00 	CLR        R1
 10008f8:	4e 00 00 00 	CLR        R9
 10008fc:	3e 00 00 00 	CLR        R7
 1000900:	46 00 00 00 	CLR        R8
 1000904:	2e 00 00 01 	LDI        $1,R5
 1000908:	29 84 40 00 	LSL        R1,R5
 100090c:	28 44 80 00 	AND        R2,R5
 1000910:	23 42 80 00 	MOV        R10,R4
 1000914:	21 84 40 00 	LSL        R1,R4
 1000918:	33 42 c0 00 	MOV        R11,R6
 100091c:	31 84 40 00 	LSL        R1,R6
 1000920:	1b 41 00 00 	MOV        R4,R3
 1000924:	19 40 00 10 	LSR        $16,R3
 1000928:	18 c5 80 00 	OR         R6,R3
 100092c:	33 40 c0 00 	MOV        R3,R6
 1000930:	31 40 00 10 	LSR        $16,R6
 1000934:	30 86 00 00 	ADD        R8,R6
 1000938:	20 40 ff ff 	AND        $65535,R4
 100093c:	20 86 40 00 	ADD        R9,R4
 1000940:	18 40 ff ff 	AND        $65535,R3
 1000944:	63 41 00 00 	MOV        R4,R12
 1000948:	61 40 00 10 	LSR        $16,R12
 100094c:	18 87 00 00 	ADD        R12,R3
 1000950:	18 85 c0 00 	ADD        R7,R3
 1000954:	20 40 ff ff 	AND        $65535,R4
 1000958:	63 40 c0 00 	MOV        R3,R12
 100095c:	61 40 00 10 	LSR        $16,R12
 1000960:	60 85 80 00 	ADD        R6,R12
 1000964:	18 40 ff ff 	AND        $65535,R3
 1000968:	33 42 00 00 	MOV        R8,R6
 100096c:	2c 00 00 00 	CMP        $0,R5
 1000970:	33 6b 00 00 	MOV.NZ     R12,R6
 1000974:	43 41 80 00 	MOV        R6,R8
 1000978:	63 41 c0 00 	MOV        R7,R12
 100097c:	63 68 c0 00 	MOV.NZ     R3,R12
 1000980:	3b 43 00 00 	MOV        R12,R7
 1000984:	4b 69 00 00 	MOV.NZ     R4,R9
 1000988:	08 80 00 01 	ADD        $1,R1
 100098c:	0c 00 00 10 	CMP        $16,R1
 1000990:	78 ab ff 70 	BNZ        @0x01000904    // 1000904 <soft_mpyuhi+0x44>
 1000994:	1b 40 80 00 	MOV        R2,R3
 1000998:	18 41 00 00 	AND        $65536,R3
 100099c:	40 86 c0 00 	ADD        R11,R8
 10009a0:	38 86 80 00 	ADD        R10,R7
 10009a4:	0b 41 c0 00 	MOV        R7,R1
 10009a8:	09 40 00 10 	LSR        $16,R1
 10009ac:	08 86 00 00 	ADD        R8,R1
 10009b0:	1c 00 00 00 	CMP        $0,R3
 10009b4:	0b 49 80 00 	MOV.Z      R6,R1
 10009b8:	38 40 ff ff 	AND        $65535,R7
 10009bc:	1c 00 00 00 	CMP        $0,R3
 10009c0:	3b 4b 00 00 	MOV.Z      R12,R7
 10009c4:	1e 02 00 00 	LDI        $131072,R3
 10009c8:	33 40 80 00 	MOV        R2,R6
 10009cc:	30 44 c0 00 	AND        R3,R6
 10009d0:	1b 42 80 00 	MOV        R10,R3
 10009d4:	18 86 80 00 	ADD        R10,R3
 10009d8:	2b 42 c0 00 	MOV        R11,R5
 10009dc:	28 86 c0 00 	ADD        R11,R5
 10009e0:	23 40 c0 00 	MOV        R3,R4
 10009e4:	21 40 00 10 	LSR        $16,R4
 10009e8:	20 c5 40 00 	OR         R5,R4
 10009ec:	20 84 40 00 	ADD        R1,R4
 10009f0:	18 40 ff ff 	AND        $65535,R3
 10009f4:	18 85 c0 00 	ADD        R7,R3
 10009f8:	2b 40 c0 00 	MOV        R3,R5
 10009fc:	29 40 00 10 	LSR        $16,R5
 1000a00:	28 85 00 00 	ADD        R4,R5
 1000a04:	34 00 00 00 	CMP        $0,R6
 1000a08:	2b 48 40 00 	MOV.Z      R1,R5
 1000a0c:	18 40 ff ff 	AND        $65535,R3
 1000a10:	34 00 00 00 	CMP        $0,R6
 1000a14:	1b 49 c0 00 	MOV.Z      R7,R3
 1000a18:	0e 04 00 00 	LDI        $262144,R1
 1000a1c:	3b 40 80 00 	MOV        R2,R7
 1000a20:	38 44 40 00 	AND        R1,R7
 1000a24:	0b 42 80 00 	MOV        R10,R1
 1000a28:	09 80 00 02 	LSL        $2,R1
 1000a2c:	23 42 c0 00 	MOV        R11,R4
 1000a30:	21 80 00 02 	LSL        $2,R4
 1000a34:	33 40 40 00 	MOV        R1,R6
 1000a38:	31 40 00 10 	LSR        $16,R6
 1000a3c:	30 c5 00 00 	OR         R4,R6
 1000a40:	30 85 40 00 	ADD        R5,R6
 1000a44:	08 40 ff ff 	AND        $65535,R1
 1000a48:	08 84 c0 00 	ADD        R3,R1
 1000a4c:	23 40 40 00 	MOV        R1,R4
 1000a50:	21 40 00 10 	LSR        $16,R4
 1000a54:	20 85 80 00 	ADD        R6,R4
 1000a58:	3c 00 00 00 	CMP        $0,R7
 1000a5c:	23 49 40 00 	MOV.Z      R5,R4
 1000a60:	08 40 ff ff 	AND        $65535,R1
 1000a64:	3c 00 00 00 	CMP        $0,R7
 1000a68:	0b 48 c0 00 	MOV.Z      R3,R1
 1000a6c:	1e 08 00 00 	LDI        $524288,R3
 1000a70:	3b 40 80 00 	MOV        R2,R7
 1000a74:	38 44 c0 00 	AND        R3,R7
 1000a78:	1b 42 80 00 	MOV        R10,R3
 1000a7c:	19 80 00 03 	LSL        $3,R3
 1000a80:	2b 42 c0 00 	MOV        R11,R5
 1000a84:	29 80 00 03 	LSL        $3,R5
 1000a88:	33 40 c0 00 	MOV        R3,R6
 1000a8c:	31 40 00 10 	LSR        $16,R6
 1000a90:	30 c5 40 00 	OR         R5,R6
 1000a94:	30 85 00 00 	ADD        R4,R6
 1000a98:	18 40 ff ff 	AND        $65535,R3
 1000a9c:	18 84 40 00 	ADD        R1,R3
 1000aa0:	2b 40 c0 00 	MOV        R3,R5
 1000aa4:	29 40 00 10 	LSR        $16,R5
 1000aa8:	28 85 80 00 	ADD        R6,R5
 1000aac:	3c 00 00 00 	CMP        $0,R7
 1000ab0:	2b 49 00 00 	MOV.Z      R4,R5
 1000ab4:	18 40 ff ff 	AND        $65535,R3
 1000ab8:	3c 00 00 00 	CMP        $0,R7
 1000abc:	1b 48 40 00 	MOV.Z      R1,R3
 1000ac0:	0e 10 00 00 	LDI        $1048576,R1
 1000ac4:	3b 40 80 00 	MOV        R2,R7
 1000ac8:	38 44 40 00 	AND        R1,R7
 1000acc:	0b 42 80 00 	MOV        R10,R1
 1000ad0:	09 80 00 04 	LSL        $4,R1
 1000ad4:	23 42 c0 00 	MOV        R11,R4
 1000ad8:	21 80 00 04 	LSL        $4,R4
 1000adc:	33 40 40 00 	MOV        R1,R6
 1000ae0:	31 40 00 10 	LSR        $16,R6
 1000ae4:	30 c5 00 00 	OR         R4,R6
 1000ae8:	30 85 40 00 	ADD        R5,R6
 1000aec:	08 40 ff ff 	AND        $65535,R1
 1000af0:	08 84 c0 00 	ADD        R3,R1
 1000af4:	23 40 40 00 	MOV        R1,R4
 1000af8:	21 40 00 10 	LSR        $16,R4
 1000afc:	20 85 80 00 	ADD        R6,R4
 1000b00:	3c 00 00 00 	CMP        $0,R7
 1000b04:	23 49 40 00 	MOV.Z      R5,R4
 1000b08:	08 40 ff ff 	AND        $65535,R1
 1000b0c:	3c 00 00 00 	CMP        $0,R7
 1000b10:	0b 48 c0 00 	MOV.Z      R3,R1
 1000b14:	1e 20 00 00 	LDI        $2097152,R3
 1000b18:	3b 40 80 00 	MOV        R2,R7
 1000b1c:	38 44 c0 00 	AND        R3,R7
 1000b20:	1b 42 80 00 	MOV        R10,R3
 1000b24:	19 80 00 05 	LSL        $5,R3
 1000b28:	2b 42 c0 00 	MOV        R11,R5
 1000b2c:	29 80 00 05 	LSL        $5,R5
 1000b30:	33 40 c0 00 	MOV        R3,R6
 1000b34:	31 40 00 10 	LSR        $16,R6
 1000b38:	30 c5 40 00 	OR         R5,R6
 1000b3c:	30 85 00 00 	ADD        R4,R6
 1000b40:	18 40 ff ff 	AND        $65535,R3
 1000b44:	18 84 40 00 	ADD        R1,R3
 1000b48:	2b 40 c0 00 	MOV        R3,R5
 1000b4c:	29 40 00 10 	LSR        $16,R5
 1000b50:	28 85 80 00 	ADD        R6,R5
 1000b54:	3c 00 00 00 	CMP        $0,R7
 1000b58:	2b 49 00 00 	MOV.Z      R4,R5
 1000b5c:	18 40 ff ff 	AND        $65535,R3
 1000b60:	3c 00 00 00 	CMP        $0,R7
 1000b64:	1b 48 40 00 	MOV.Z      R1,R3
 1000b68:	0a 00 02 00 	BREV       $512,R1
 1000b6c:	3b 40 80 00 	MOV        R2,R7
 1000b70:	38 44 40 00 	AND        R1,R7
 1000b74:	0b 42 80 00 	MOV        R10,R1
 1000b78:	09 80 00 06 	LSL        $6,R1
 1000b7c:	23 42 c0 00 	MOV        R11,R4
 1000b80:	21 80 00 06 	LSL        $6,R4
 1000b84:	33 40 40 00 	MOV        R1,R6
 1000b88:	31 40 00 10 	LSR        $16,R6
 1000b8c:	30 c5 00 00 	OR         R4,R6
 1000b90:	30 85 40 00 	ADD        R5,R6
 1000b94:	08 40 ff ff 	AND        $65535,R1
 1000b98:	08 84 c0 00 	ADD        R3,R1
 1000b9c:	23 40 40 00 	MOV        R1,R4
 1000ba0:	21 40 00 10 	LSR        $16,R4
 1000ba4:	20 85 80 00 	ADD        R6,R4
 1000ba8:	3c 00 00 00 	CMP        $0,R7
 1000bac:	23 49 40 00 	MOV.Z      R5,R4
 1000bb0:	08 40 ff ff 	AND        $65535,R1
 1000bb4:	3c 00 00 00 	CMP        $0,R7
 1000bb8:	0b 48 c0 00 	MOV.Z      R3,R1
 1000bbc:	1a 00 01 00 	BREV       $256,R3
 1000bc0:	3b 40 80 00 	MOV        R2,R7
 1000bc4:	38 44 c0 00 	AND        R3,R7
 1000bc8:	1b 42 80 00 	MOV        R10,R3
 1000bcc:	19 80 00 07 	LSL        $7,R3
 1000bd0:	2b 42 c0 00 	MOV        R11,R5
 1000bd4:	29 80 00 07 	LSL        $7,R5
 1000bd8:	33 40 c0 00 	MOV        R3,R6
 1000bdc:	31 40 00 10 	LSR        $16,R6
 1000be0:	30 c5 40 00 	OR         R5,R6
 1000be4:	30 85 00 00 	ADD        R4,R6
 1000be8:	18 40 ff ff 	AND        $65535,R3
 1000bec:	18 84 40 00 	ADD        R1,R3
 1000bf0:	2b 40 c0 00 	MOV        R3,R5
 1000bf4:	29 40 00 10 	LSR        $16,R5
 1000bf8:	28 85 80 00 	ADD        R6,R5
 1000bfc:	3c 00 00 00 	CMP        $0,R7
 1000c00:	2b 49 00 00 	MOV.Z      R4,R5
 1000c04:	18 40 ff ff 	AND        $65535,R3
 1000c08:	3c 00 00 00 	CMP        $0,R7
 1000c0c:	1b 48 40 00 	MOV.Z      R1,R3
 1000c10:	0a 00 00 80 	BREV       $128,R1
 1000c14:	3b 40 80 00 	MOV        R2,R7
 1000c18:	38 44 40 00 	AND        R1,R7
 1000c1c:	0b 42 80 00 	MOV        R10,R1
 1000c20:	09 80 00 08 	LSL        $8,R1
 1000c24:	23 42 c0 00 	MOV        R11,R4
 1000c28:	21 80 00 08 	LSL        $8,R4
 1000c2c:	33 40 40 00 	MOV        R1,R6
 1000c30:	31 40 00 10 	LSR        $16,R6
 1000c34:	30 c5 00 00 	OR         R4,R6
 1000c38:	30 85 40 00 	ADD        R5,R6
 1000c3c:	08 40 ff ff 	AND        $65535,R1
 1000c40:	08 84 c0 00 	ADD        R3,R1
 1000c44:	23 40 40 00 	MOV        R1,R4
 1000c48:	21 40 00 10 	LSR        $16,R4
 1000c4c:	20 85 80 00 	ADD        R6,R4
 1000c50:	3c 00 00 00 	CMP        $0,R7
 1000c54:	23 49 40 00 	MOV.Z      R5,R4
 1000c58:	08 40 ff ff 	AND        $65535,R1
 1000c5c:	3c 00 00 00 	CMP        $0,R7
 1000c60:	0b 48 c0 00 	MOV.Z      R3,R1
 1000c64:	1a 00 00 40 	BREV       $64,R3
 1000c68:	3b 40 80 00 	MOV        R2,R7
 1000c6c:	38 44 c0 00 	AND        R3,R7
 1000c70:	1b 42 80 00 	MOV        R10,R3
 1000c74:	19 80 00 09 	LSL        $9,R3
 1000c78:	2b 42 c0 00 	MOV        R11,R5
 1000c7c:	29 80 00 09 	LSL        $9,R5
 1000c80:	33 40 c0 00 	MOV        R3,R6
 1000c84:	31 40 00 10 	LSR        $16,R6
 1000c88:	30 c5 40 00 	OR         R5,R6
 1000c8c:	30 85 00 00 	ADD        R4,R6
 1000c90:	18 40 ff ff 	AND        $65535,R3
 1000c94:	18 84 40 00 	ADD        R1,R3
 1000c98:	2b 40 c0 00 	MOV        R3,R5
 1000c9c:	29 40 00 10 	LSR        $16,R5
 1000ca0:	28 85 80 00 	ADD        R6,R5
 1000ca4:	3c 00 00 00 	CMP        $0,R7
 1000ca8:	2b 49 00 00 	MOV.Z      R4,R5
 1000cac:	18 40 ff ff 	AND        $65535,R3
 1000cb0:	3c 00 00 00 	CMP        $0,R7
 1000cb4:	1b 48 40 00 	MOV.Z      R1,R3
 1000cb8:	0a 00 00 20 	BREV       $32,R1
 1000cbc:	3b 40 80 00 	MOV        R2,R7
 1000cc0:	38 44 40 00 	AND        R1,R7
 1000cc4:	0b 42 80 00 	MOV        R10,R1
 1000cc8:	09 80 00 0a 	LSL        $10,R1
 1000ccc:	23 42 c0 00 	MOV        R11,R4
 1000cd0:	21 80 00 0a 	LSL        $10,R4
 1000cd4:	33 40 40 00 	MOV        R1,R6
 1000cd8:	31 40 00 10 	LSR        $16,R6
 1000cdc:	30 c5 00 00 	OR         R4,R6
 1000ce0:	30 85 40 00 	ADD        R5,R6
 1000ce4:	08 40 ff ff 	AND        $65535,R1
 1000ce8:	08 84 c0 00 	ADD        R3,R1
 1000cec:	23 40 40 00 	MOV        R1,R4
 1000cf0:	21 40 00 10 	LSR        $16,R4
 1000cf4:	20 85 80 00 	ADD        R6,R4
 1000cf8:	3c 00 00 00 	CMP        $0,R7
 1000cfc:	23 49 40 00 	MOV.Z      R5,R4
 1000d00:	08 40 ff ff 	AND        $65535,R1
 1000d04:	3c 00 00 00 	CMP        $0,R7
 1000d08:	0b 48 c0 00 	MOV.Z      R3,R1
 1000d0c:	1a 00 00 10 	BREV       $16,R3
 1000d10:	3b 40 80 00 	MOV        R2,R7
 1000d14:	38 44 c0 00 	AND        R3,R7
 1000d18:	1b 42 80 00 	MOV        R10,R3
 1000d1c:	19 80 00 0b 	LSL        $11,R3
 1000d20:	2b 42 c0 00 	MOV        R11,R5
 1000d24:	29 80 00 0b 	LSL        $11,R5
 1000d28:	33 40 c0 00 	MOV        R3,R6
 1000d2c:	31 40 00 10 	LSR        $16,R6
 1000d30:	30 c5 40 00 	OR         R5,R6
 1000d34:	30 85 00 00 	ADD        R4,R6
 1000d38:	18 40 ff ff 	AND        $65535,R3
 1000d3c:	18 84 40 00 	ADD        R1,R3
 1000d40:	2b 40 c0 00 	MOV        R3,R5
 1000d44:	29 40 00 10 	LSR        $16,R5
 1000d48:	28 85 80 00 	ADD        R6,R5
 1000d4c:	3c 00 00 00 	CMP        $0,R7
 1000d50:	2b 49 00 00 	MOV.Z      R4,R5
 1000d54:	18 40 ff ff 	AND        $65535,R3
 1000d58:	3c 00 00 00 	CMP        $0,R7
 1000d5c:	1b 48 40 00 	MOV.Z      R1,R3
 1000d60:	0a 00 00 08 	BREV       $8,R1
 1000d64:	3b 40 80 00 	MOV        R2,R7
 1000d68:	38 44 40 00 	AND        R1,R7
 1000d6c:	0b 42 80 00 	MOV        R10,R1
 1000d70:	09 80 00 0c 	LSL        $12,R1
 1000d74:	23 42 c0 00 	MOV        R11,R4
 1000d78:	21 80 00 0c 	LSL        $12,R4
 1000d7c:	33 40 40 00 	MOV        R1,R6
 1000d80:	31 40 00 10 	LSR        $16,R6
 1000d84:	30 c5 00 00 	OR         R4,R6
 1000d88:	30 85 40 00 	ADD        R5,R6
 1000d8c:	08 40 ff ff 	AND        $65535,R1
 1000d90:	08 84 c0 00 	ADD        R3,R1
 1000d94:	23 40 40 00 	MOV        R1,R4
 1000d98:	21 40 00 10 	LSR        $16,R4
 1000d9c:	20 85 80 00 	ADD        R6,R4
 1000da0:	3c 00 00 00 	CMP        $0,R7
 1000da4:	23 49 40 00 	MOV.Z      R5,R4
 1000da8:	08 40 ff ff 	AND        $65535,R1
 1000dac:	3c 00 00 00 	CMP        $0,R7
 1000db0:	0b 48 c0 00 	MOV.Z      R3,R1
 1000db4:	1a 00 00 04 	BREV       $4,R3
 1000db8:	3b 40 80 00 	MOV        R2,R7
 1000dbc:	38 44 c0 00 	AND        R3,R7
 1000dc0:	1b 42 80 00 	MOV        R10,R3
 1000dc4:	19 80 00 0d 	LSL        $13,R3
 1000dc8:	2b 42 c0 00 	MOV        R11,R5
 1000dcc:	29 80 00 0d 	LSL        $13,R5
 1000dd0:	33 40 c0 00 	MOV        R3,R6
 1000dd4:	31 40 00 10 	LSR        $16,R6
 1000dd8:	30 c5 40 00 	OR         R5,R6
 1000ddc:	30 85 00 00 	ADD        R4,R6
 1000de0:	18 40 ff ff 	AND        $65535,R3
 1000de4:	18 84 40 00 	ADD        R1,R3
 1000de8:	2b 40 c0 00 	MOV        R3,R5
 1000dec:	29 40 00 10 	LSR        $16,R5
 1000df0:	28 85 80 00 	ADD        R6,R5
 1000df4:	3c 00 00 00 	CMP        $0,R7
 1000df8:	2b 49 00 00 	MOV.Z      R4,R5
 1000dfc:	18 40 ff ff 	AND        $65535,R3
 1000e00:	3c 00 00 00 	CMP        $0,R7
 1000e04:	1b 48 40 00 	MOV.Z      R1,R3
 1000e08:	0a 00 00 02 	BREV       $2,R1
 1000e0c:	3b 40 80 00 	MOV        R2,R7
 1000e10:	38 44 40 00 	AND        R1,R7
 1000e14:	23 42 80 00 	MOV        R10,R4
 1000e18:	21 80 00 0e 	LSL        $14,R4
 1000e1c:	0b 42 c0 00 	MOV        R11,R1
 1000e20:	09 80 00 0e 	LSL        $14,R1
 1000e24:	33 41 00 00 	MOV        R4,R6
 1000e28:	31 40 00 10 	LSR        $16,R6
 1000e2c:	30 c4 40 00 	OR         R1,R6
 1000e30:	30 85 40 00 	ADD        R5,R6
 1000e34:	20 40 ff ff 	AND        $65535,R4
 1000e38:	20 84 c0 00 	ADD        R3,R4
 1000e3c:	0b 41 00 00 	MOV        R4,R1
 1000e40:	09 40 00 10 	LSR        $16,R1
 1000e44:	08 85 80 00 	ADD        R6,R1
 1000e48:	3c 00 00 00 	CMP        $0,R7
 1000e4c:	0b 49 40 00 	MOV.Z      R5,R1
 1000e50:	20 40 ff ff 	AND        $65535,R4
 1000e54:	3c 00 00 00 	CMP        $0,R7
 1000e58:	23 48 c0 00 	MOV.Z      R3,R4
 1000e5c:	51 80 00 0f 	LSL        $15,R10
 1000e60:	59 80 00 0f 	LSL        $15,R11
 1000e64:	1b 42 80 00 	MOV        R10,R3
 1000e68:	19 40 00 10 	LSR        $16,R3
 1000e6c:	18 c6 c0 00 	OR         R11,R3
 1000e70:	18 84 40 00 	ADD        R1,R3
 1000e74:	50 40 ff ff 	AND        $65535,R10
 1000e78:	50 85 00 00 	ADD        R4,R10
 1000e7c:	51 40 00 10 	LSR        $16,R10
 1000e80:	50 84 c0 00 	ADD        R3,R10
 1000e84:	14 00 00 00 	CMP        $0,R2
 1000e88:	0b 52 80 00 	MOV.LT     R10,R1
 1000e8c:	2c 87 40 00 	LW         (SP),R5
 1000e90:	34 87 40 04 	LW         4(SP),R6
 1000e94:	3c 87 40 08 	LW         8(SP),R7
 1000e98:	44 87 40 0c 	LW         12(SP),R8
 1000e9c:	4c 87 40 10 	LW         16(SP),R9
 1000ea0:	54 87 40 14 	LW         20(SP),R10
 1000ea4:	5c 87 40 18 	LW         24(SP),R11
 1000ea8:	64 87 40 1c 	LW         28(SP),R12
 1000eac:	68 80 00 20 	ADD        $32,SP
 1000eb0:	7b 40 00 00 	RTN

01000eb4 <soft_mpyshi>:
 1000eb4:	68 00 00 14 	SUB        $20,SP
 1000eb8:	04 c7 40 00 	SW         R0,(SP)
 1000ebc:	2c c7 40 04 	SW         R5,$4(SP)
 1000ec0:	34 c7 40 08 	SW         R6,$8(SP)
 1000ec4:	3c c7 40 0c 	SW         R7,$12(SP)
 1000ec8:	44 c7 40 10 	SW         R8,$16(SP)
 1000ecc:	2b 40 40 00 	MOV        R1,R5
 1000ed0:	3b 40 80 00 	MOV        R2,R7
 1000ed4:	43 40 40 00 	MOV        R1,R8
 1000ed8:	44 43 ff ff 	TST        $-1,R8
 1000edc:	43 52 1f ff 	MOV.LT     $-1+R8,R8
 1000ee0:	41 13 ff ff 	XOR.LT     $-1,R8
 1000ee4:	33 40 80 00 	MOV        R2,R6
 1000ee8:	34 43 ff ff 	TST        $-1,R6
 1000eec:	33 51 9f ff 	MOV.LT     $-1+R6,R6
 1000ef0:	31 13 ff ff 	XOR.LT     $-1,R6
 1000ef4:	13 41 80 00 	MOV        R6,R2
 1000ef8:	0b 42 00 00 	MOV        R8,R1
 1000efc:	03 43 c0 01 	JSR        0x010008c0     // 10008c0 <soft_mpyuhi>
 1000f00:	78 83 f9 bc 
 1000f04:	29 05 c0 00 	XOR        R7,R5
 1000f08:	29 40 00 1f 	LSR        $31,R5
 1000f0c:	78 88 00 18 	BZ         @0x01000f28    // 1000f28 <soft_mpyshi+0x74>
 1000f10:	33 06 00 00 	MPY        R8,R6
 1000f14:	78 88 00 08 	BZ         @0x01000f20    // 1000f20 <soft_mpyshi+0x6c>
 1000f18:	09 03 ff ff 	XOR        $-1,R1
 1000f1c:	78 80 00 08 	BRA        @0x01000f28    // 1000f28 <soft_mpyshi+0x74>
 1000f20:	0b 40 5f ff 	MOV        $-1+R1,R1
 1000f24:	09 03 ff ff 	XOR        $-1,R1
 1000f28:	04 87 40 00 	LW         (SP),R0
 1000f2c:	2c 87 40 04 	LW         4(SP),R5
 1000f30:	34 87 40 08 	LW         8(SP),R6
 1000f34:	3c 87 40 0c 	LW         12(SP),R7
 1000f38:	44 87 40 10 	LW         16(SP),R8
 1000f3c:	68 80 00 14 	ADD        $20,SP
 1000f40:	7b 40 00 00 	RTN

01000f44 <multiarg_subroutine>:
 1000f44:	0c 00 00 00 	CMP        $0,R1
 1000f48:	78 a8 00 48 	BNZ        @0x01000f94    // 1000f94 <multiarg_subroutine+0x50>
 1000f4c:	14 00 00 01 	CMP        $1,R2
 1000f50:	78 a8 00 48 	BNZ        @0x01000f9c    // 1000f9c <multiarg_subroutine+0x58>
 1000f54:	1c 00 00 02 	CMP        $2,R3
 1000f58:	78 a8 00 48 	BNZ        @0x01000fa4    // 1000fa4 <multiarg_subroutine+0x60>
 1000f5c:	24 00 00 03 	CMP        $3,R4
 1000f60:	78 a8 00 48 	BNZ        @0x01000fac    // 1000fac <multiarg_subroutine+0x68>
 1000f64:	2c 00 00 04 	CMP        $4,R5
 1000f68:	78 a8 00 48 	BNZ        @0x01000fb4    // 1000fb4 <multiarg_subroutine+0x70>
 1000f6c:	78 80 00 64 	BRA        @0x01000fd4    // 1000fd4 <multiarg_subroutine+0x90>
 1000f70:	68 00 00 04 	SUB        $4,SP
 1000f74:	2c c7 40 00 	SW         R5,(SP)
 1000f78:	14 87 40 04 	LW         4(SP),R2
 1000f7c:	14 00 00 05 	CMP        $5,R2
 1000f80:	78 a8 00 38 	BNZ        @0x01000fbc    // 1000fbc <multiarg_subroutine+0x78>
 1000f84:	14 87 40 08 	LW         8(SP),R2
 1000f88:	14 00 00 06 	CMP        $6,R2
 1000f8c:	78 a8 00 34 	BNZ        @0x01000fc4    // 1000fc4 <multiarg_subroutine+0x80>
 1000f90:	78 80 00 34 	BRA        @0x01000fc8    // 1000fc8 <multiarg_subroutine+0x84>
 1000f94:	0e 00 00 01 	LDI        $1,R1
 1000f98:	7b 40 00 00 	RTN
 1000f9c:	0e 00 00 02 	LDI        $2,R1
 1000fa0:	7b 40 00 00 	RTN
 1000fa4:	0e 00 00 04 	LDI        $4,R1
 1000fa8:	7b 40 00 00 	RTN
 1000fac:	0e 00 00 08 	LDI        $8,R1
 1000fb0:	7b 40 00 00 	RTN
 1000fb4:	0e 00 00 10 	LDI        $16,R1
 1000fb8:	7b 40 00 00 	RTN
 1000fbc:	0e 00 00 20 	LDI        $32,R1
 1000fc0:	78 80 00 04 	BRA        @0x01000fc8    // 1000fc8 <multiarg_subroutine+0x84>
 1000fc4:	0e 00 00 40 	LDI        $64,R1
 1000fc8:	2c 87 40 00 	LW         (SP),R5
 1000fcc:	68 80 00 04 	ADD        $4,SP
 1000fd0:	7b 40 00 00 	RTN
 1000fd4:	78 83 ff 98 	BRA        @0x01000f70    // 1000f70 <multiarg_subroutine+0x2c>

01000fd8 <multiarg_test>:
 1000fd8:	68 00 00 10 	SUB        $16,SP
 1000fdc:	04 c7 40 08 	SW         R0,$8(SP)
 1000fe0:	2c c7 40 0c 	SW         R5,$12(SP)
 1000fe4:	06 00 00 06 	LDI        $6,R0
 1000fe8:	04 c7 40 04 	SW         R0,$4(SP)
 1000fec:	06 00 00 05 	LDI        $5,R0
 1000ff0:	04 c7 40 00 	SW         R0,(SP)
 1000ff4:	2e 00 00 04 	LDI        $4,R5
 1000ff8:	26 00 00 03 	LDI        $3,R4
 1000ffc:	1e 00 00 02 	LDI        $2,R3
 1001000:	16 00 00 01 	LDI        $1,R2
 1001004:	0e 00 00 00 	CLR        R1
 1001008:	03 43 c0 01 	JSR        0x01000f44     // 1000f44 <multiarg_subroutine>
 100100c:	78 83 ff 34 
 1001010:	04 87 40 08 	LW         8(SP),R0
 1001014:	2c 87 40 0c 	LW         12(SP),R5
 1001018:	68 80 00 10 	ADD        $16,SP
 100101c:	7b 40 00 00 	RTN

01001020 <wait>:
 1001020:	12 00 01 00 	LDI        0x00800008,R2  // 800008 <_rom+0x800008>
 1001024:	12 40 00 08 
 1001028:	1a 02 ff fe 	BREV       $-65538,R3
 100102c:	1c c4 80 00 	SW         R3,(R2)
 1001030:	09 80 00 10 	LSL        $16,R1
 1001034:	1a 00 00 01 	BREV       $1,R3
 1001038:	08 c4 c0 00 	OR         R3,R1
 100103c:	0c c4 80 00 	SW         R1,(R2)
 1001040:	0c 84 80 00 	LW         (R2),R1
 1001044:	70 c0 00 30 	WAIT
 1001048:	0e 00 00 00 	CLR        R1
 100104c:	0c c4 80 00 	SW         R1,(R2)
 1001050:	7b 40 00 00 	RTN

01001054 <txchr.constprop.3>:
 1001054:	0b 43 80 00 	MOV        CC,R1
 1001058:	08 40 00 20 	AND        $32,R1
 100105c:	78 88 00 50 	BZ         @0x010010b0    // 10010b0 <txchr.constprop.3+0x5c>
 1001060:	12 00 06 00 	BREV       $1536,R2
 1001064:	0c 84 80 0c 	LW         12(R2),R1
 1001068:	08 40 01 00 	AND        $256,R1
 100106c:	78 ab ff f4 	BNZ        @0x01001064    // 1001064 <txchr.constprop.3+0x10>
 1001070:	78 80 00 2c 	BRA        @0x010010a0    // 10010a0 <txchr.constprop.3+0x4c>
 1001074:	68 00 00 04 	SUB        $4,SP
 1001078:	04 c7 40 00 	SW         R0,(SP)
 100107c:	0e 00 00 04 	LDI        $4,R1
 1001080:	03 43 c0 01 	JSR        0x01001020     // 1001020 <wait>
 1001084:	78 83 ff 98 
 1001088:	0a 00 06 00 	BREV       $1536,R1
 100108c:	16 00 00 20 	LDI        $32,R2
 1001090:	14 c4 40 0c 	SW         R2,$12(R1)
 1001094:	04 87 40 00 	LW         (SP),R0
 1001098:	68 80 00 04 	ADD        $4,SP
 100109c:	7b 40 00 00 	RTN
 10010a0:	0a 00 06 00 	BREV       $1536,R1
 10010a4:	16 00 00 20 	LDI        $32,R2
 10010a8:	14 c4 40 0c 	SW         R2,$12(R1)
 10010ac:	7b 40 00 00 	RTN
 10010b0:	78 83 ff c0 	BRA        @0x01001074    // 1001074 <txchr.constprop.3+0x20>

010010b4 <txchr>:
 10010b4:	68 00 00 08 	SUB        $8,SP
 10010b8:	04 c7 40 00 	SW         R0,(SP)
 10010bc:	2c c7 40 04 	SW         R5,$4(SP)
 10010c0:	2b 40 40 00 	MOV        R1,R5
 10010c4:	28 40 00 ff 	AND        $255,R5
 10010c8:	0b 43 80 00 	MOV        CC,R1
 10010cc:	08 40 00 20 	AND        $32,R1
 10010d0:	78 88 00 14 	BZ         @0x010010e8    // 10010e8 <txchr+0x34>
 10010d4:	12 00 06 00 	BREV       $1536,R2
 10010d8:	0c 84 80 0c 	LW         12(R2),R1
 10010dc:	08 40 01 00 	AND        $256,R1
 10010e0:	78 ab ff f4 	BNZ        @0x010010d8    // 10010d8 <txchr+0x24>
 10010e4:	78 80 00 0c 	BRA        @0x010010f4    // 10010f4 <txchr+0x40>
 10010e8:	0e 00 00 04 	LDI        $4,R1
 10010ec:	03 43 c0 01 	JSR        0x01001020     // 1001020 <wait>
 10010f0:	78 83 ff 2c 
 10010f4:	0a 00 06 00 	BREV       $1536,R1
 10010f8:	2c c4 40 0c 	SW         R5,$12(R1)
 10010fc:	04 87 40 00 	LW         (SP),R0
 1001100:	2c 87 40 04 	LW         4(SP),R5
 1001104:	68 80 00 08 	ADD        $8,SP
 1001108:	7b 40 00 00 	RTN

0100110c <wait_for_uart_idle>:
 100110c:	12 00 06 00 	BREV       $1536,R2
 1001110:	0c 84 80 0c 	LW         12(R2),R1
 1001114:	08 40 01 00 	AND        $256,R1
 1001118:	78 ab ff f4 	BNZ        @0x01001110    // 1001110 <wait_for_uart_idle+0x4>
 100111c:	7b 40 00 00 	RTN

01001120 <txstr>:
 1001120:	68 00 00 08 	SUB        $8,SP
 1001124:	04 c7 40 00 	SW         R0,(SP)
 1001128:	2c c7 40 04 	SW         R5,$4(SP)
 100112c:	2b 40 40 00 	MOV        R1,R5
 1001130:	0d 84 40 00 	LB         (R1),R1
 1001134:	0c 00 00 00 	CMP        $0,R1
 1001138:	78 88 00 18 	BZ         @0x01001154    // 1001154 <txstr+0x34>
 100113c:	28 80 00 01 	ADD        $1,R5
 1001140:	03 43 c0 01 	JSR        0x010010b4     // 10010b4 <txchr>
 1001144:	78 83 ff 6c 
 1001148:	0d 85 40 00 	LB         (R5),R1
 100114c:	0c 00 00 00 	CMP        $0,R1
 1001150:	78 ab ff e8 	BNZ        @0x0100113c    // 100113c <txstr+0x1c>
 1001154:	04 87 40 00 	LW         (SP),R0
 1001158:	2c 87 40 04 	LW         4(SP),R5
 100115c:	68 80 00 08 	ADD        $8,SP
 1001160:	7b 40 00 00 	RTN

01001164 <txhex>:
 1001164:	68 00 00 0c 	SUB        $12,SP
 1001168:	04 c7 40 00 	SW         R0,(SP)
 100116c:	2c c7 40 04 	SW         R5,$4(SP)
 1001170:	34 c7 40 08 	SW         R6,$8(SP)
 1001174:	33 40 40 00 	MOV        R1,R6
 1001178:	2e 00 00 1c 	LDI        $28,R5
 100117c:	0b 41 80 00 	MOV        R6,R1
 1001180:	09 c5 40 00 	ASR        R5,R1
 1001184:	08 40 00 0f 	AND        $15,R1
 1001188:	0c 00 00 0a 	CMP        $10,R1
 100118c:	78 90 00 08 	BLT        @0x01001198    // 1001198 <txhex+0x34>
 1001190:	08 80 00 37 	ADD        $55,R1
 1001194:	78 80 00 04 	BRA        @0x0100119c    // 100119c <txhex+0x38>
 1001198:	08 80 00 30 	ADD        $48,R1
 100119c:	03 43 c0 01 	JSR        0x010010b4     // 10010b4 <txchr>
 10011a0:	78 83 ff 10 
 10011a4:	28 83 ff fc 	ADD        $-4,R5
 10011a8:	2c 03 ff fc 	CMP        $-4,R5
 10011ac:	78 ab ff cc 	BNZ        @0x0100117c    // 100117c <txhex+0x18>
 10011b0:	04 87 40 00 	LW         (SP),R0
 10011b4:	2c 87 40 04 	LW         4(SP),R5
 10011b8:	34 87 40 08 	LW         8(SP),R6
 10011bc:	68 80 00 0c 	ADD        $12,SP
 10011c0:	7b 40 00 00 	RTN

010011c4 <debugmpy>:
 10011c4:	68 00 00 18 	SUB        $24,SP
 10011c8:	04 c7 40 00 	SW         R0,(SP)
 10011cc:	2c c7 40 04 	SW         R5,$4(SP)
 10011d0:	34 c7 40 08 	SW         R6,$8(SP)
 10011d4:	3c c7 40 0c 	SW         R7,$12(SP)
 10011d8:	44 c7 40 10 	SW         R8,$16(SP)
 10011dc:	4c c7 40 14 	SW         R9,$20(SP)
 10011e0:	4b 40 40 00 	MOV        R1,R9
 10011e4:	43 40 80 00 	MOV        R2,R8
 10011e8:	3b 40 c0 00 	MOV        R3,R7
 10011ec:	33 41 00 00 	MOV        R4,R6
 10011f0:	0a 00 00 80 	LDI        0x01003d78,R1  // 1003d78 <entry+0x1ba4>
 10011f4:	0a 40 3d 78 
 10011f8:	03 43 c0 01 	JSR        0x01001120     // 1001120 <txstr>
 10011fc:	78 83 ff 20 
 1001200:	0b 42 40 00 	MOV        R9,R1
 1001204:	03 43 c0 01 	JSR        0x01001120     // 1001120 <txstr>
 1001208:	78 83 ff 14 
 100120c:	0b 42 00 00 	MOV        R8,R1
 1001210:	03 43 c0 01 	JSR        0x01001164     // 1001164 <txhex>
 1001214:	78 83 ff 4c 
 1001218:	0a 00 00 80 	LDI        0x01003a30,R1  // 1003a30 <entry+0x185c>
 100121c:	0a 40 3a 30 
 1001220:	03 43 c0 01 	JSR        0x01001120     // 1001120 <txstr>
 1001224:	78 83 fe f8 
 1001228:	0b 41 c0 00 	MOV        R7,R1
 100122c:	03 43 c0 01 	JSR        0x01001164     // 1001164 <txhex>
 1001230:	78 83 ff 30 
 1001234:	0a 00 00 80 	LDI        0x01003a34,R1  // 1003a34 <entry+0x1860>
 1001238:	0a 40 3a 34 
 100123c:	03 43 c0 01 	JSR        0x01001120     // 1001120 <txstr>
 1001240:	78 83 fe dc 
 1001244:	0b 41 80 00 	MOV        R6,R1
 1001248:	03 43 c0 01 	JSR        0x01001164     // 1001164 <txhex>
 100124c:	78 83 ff 14 
 1001250:	0a 00 00 80 	LDI        0x01003a38,R1  // 1003a38 <entry+0x1864>
 1001254:	0a 40 3a 38 
 1001258:	03 43 c0 01 	JSR        0x01001120     // 1001120 <txstr>
 100125c:	78 83 fe c0 
 1001260:	0b 41 40 00 	MOV        R5,R1
 1001264:	03 43 c0 01 	JSR        0x01001164     // 1001164 <txhex>
 1001268:	78 83 fe f8 
 100126c:	0a 00 00 80 	LDI        0x01003a44,R1  // 1003a44 <entry+0x1870>
 1001270:	0a 40 3a 44 
 1001274:	04 87 40 00 	LW         (SP),R0
 1001278:	2c 87 40 04 	LW         4(SP),R5
 100127c:	34 87 40 08 	LW         8(SP),R6
 1001280:	3c 87 40 0c 	LW         12(SP),R7
 1001284:	44 87 40 10 	LW         16(SP),R8
 1001288:	4c 87 40 14 	LW         20(SP),R9
 100128c:	68 80 00 18 	ADD        $24,SP
 1001290:	78 83 fe 8c 	BRA        @0x01001120    // 1001120 <txstr>

01001294 <mpyhi_test>:
 1001294:	68 00 00 80 	SUB        $128,SP
 1001298:	04 c7 40 5c 	SW         R0,$92(SP)
 100129c:	2c c7 40 60 	SW         R5,$96(SP)
 10012a0:	34 c7 40 64 	SW         R6,$100(SP)
 10012a4:	3c c7 40 68 	SW         R7,$104(SP)
 10012a8:	44 c7 40 6c 	SW         R8,$108(SP)
 10012ac:	4c c7 40 70 	SW         R9,$112(SP)
 10012b0:	54 c7 40 74 	SW         R10,$116(SP)
 10012b4:	5c c7 40 78 	SW         R11,$120(SP)
 10012b8:	64 c7 40 7c 	SW         R12,$124(SP)
 10012bc:	5e 00 00 00 	CLR        R11
 10012c0:	63 42 c0 00 	MOV        R11,R12
 10012c4:	60 40 00 02 	AND        $2,R12
 10012c8:	78 88 00 e8 	BZ         @0x010013b4    // 10013b4 <mpyhi_test+0x120>
 10012cc:	2e 00 22 c1 	LDI        $8897,R5
 10012d0:	36 00 44 b6 	LDI        $17590,R6
 10012d4:	56 00 ba a3 	LDI        $47779,R10
 10012d8:	4e 00 bf 66 	LDI        $48998,R9
 10012dc:	3e 00 8a de 	LDI        $35550,R7
 10012e0:	46 00 ca 06 	LDI        $51718,R8
 10012e4:	06 00 ee b2 	LDI        $61106,R0
 10012e8:	04 c7 40 18 	SW         R0,$24(SP)
 10012ec:	16 00 82 0e 	LDI        $33294,R2
 10012f0:	14 c7 40 14 	SW         R2,$20(SP)
 10012f4:	06 00 86 94 	LDI        $34452,R0
 10012f8:	04 c7 40 10 	SW         R0,$16(SP)
 10012fc:	16 00 fc be 	LDI        $64702,R2
 1001300:	14 c7 40 0c 	SW         R2,$12(SP)
 1001304:	06 00 56 d0 	LDI        $22224,R0
 1001308:	04 c7 40 08 	SW         R0,$8(SP)
 100130c:	16 00 07 5e 	LDI        $1886,R2
 1001310:	14 c7 40 04 	SW         R2,$4(SP)
 1001314:	26 00 be ed 	LDI        $48877,R4
 1001318:	06 00 8c ae 	LDI        $36014,R0
 100131c:	04 c7 40 00 	SW         R0,(SP)
 1001320:	16 00 08 b9 	LDI        $2233,R2
 1001324:	14 c7 40 58 	SW         R2,$88(SP)
 1001328:	06 00 e3 62 	LDI        $58210,R0
 100132c:	04 c7 40 54 	SW         R0,$84(SP)
 1001330:	16 00 a0 9c 	LDI        $41116,R2
 1001334:	14 c7 40 50 	SW         R2,$80(SP)
 1001338:	06 00 5e 12 	LDI        $24082,R0
 100133c:	04 c7 40 4c 	SW         R0,$76(SP)
 1001340:	16 00 70 d7 	LDI        $28887,R2
 1001344:	14 c7 40 48 	SW         R2,$72(SP)
 1001348:	06 00 68 b2 	LDI        $26802,R0
 100134c:	04 c7 40 44 	SW         R0,$68(SP)
 1001350:	16 00 d4 ab 	LDI        $54443,R2
 1001354:	14 c7 40 40 	SW         R2,$64(SP)
 1001358:	06 00 20 ba 	LDI        $8378,R0
 100135c:	04 c7 40 3c 	SW         R0,$60(SP)
 1001360:	16 00 6c 8d 	LDI        $27789,R2
 1001364:	14 c7 40 38 	SW         R2,$56(SP)
 1001368:	06 00 9b 6a 	LDI        $39786,R0
 100136c:	04 c7 40 34 	SW         R0,$52(SP)
 1001370:	16 00 3c c8 	LDI        $15560,R2
 1001374:	14 c7 40 30 	SW         R2,$48(SP)
 1001378:	06 00 a6 0a 	LDI        $42506,R0
 100137c:	04 c7 40 2c 	SW         R0,$44(SP)
 1001380:	16 00 a4 e6 	LDI        $42214,R2
 1001384:	14 c7 40 28 	SW         R2,$40(SP)
 1001388:	06 00 2b 5a 	LDI        $11098,R0
 100138c:	04 c7 40 24 	SW         R0,$36(SP)
 1001390:	16 00 d8 f4 	LDI        $55540,R2
 1001394:	14 c7 40 20 	SW         R2,$32(SP)
 1001398:	1e 00 00 05 	LDI        $5,R3
 100139c:	06 00 ee 02 	LDI        $60930,R0
 10013a0:	04 c7 40 1c 	SW         R0,$28(SP)
 10013a4:	0e 00 4f 56 	LDI        $20310,R1
 10013a8:	06 00 f2 fc 	LDI        $62204,R0
 10013ac:	66 00 00 01 	LDI        $1,R12
 10013b0:	78 80 00 e0 	BRA        @0x01001494    // 1001494 <mpyhi_test+0x200>
 10013b4:	0e 00 00 00 	CLR        R1
 10013b8:	06 00 00 00 	CLR        R0
 10013bc:	2e 00 2f c4 	LDI        $12228,R5
 10013c0:	36 00 f5 60 	LDI        $62816,R6
 10013c4:	56 00 c7 a7 	LDI        $51111,R10
 10013c8:	4e 00 70 10 	LDI        $28688,R9
 10013cc:	3e 00 97 e2 	LDI        $38882,R7
 10013d0:	46 00 7a b0 	LDI        $31408,R8
 10013d4:	16 00 fb b6 	LDI        $64438,R2
 10013d8:	14 c7 40 18 	SW         R2,$24(SP)
 10013dc:	16 00 32 b8 	LDI        $12984,R2
 10013e0:	14 c7 40 14 	SW         R2,$20(SP)
 10013e4:	16 00 93 98 	LDI        $37784,R2
 10013e8:	14 c7 40 10 	SW         R2,$16(SP)
 10013ec:	16 00 ad 68 	LDI        $44392,R2
 10013f0:	14 c7 40 0c 	SW         R2,$12(SP)
 10013f4:	16 00 63 d3 	LDI        $25555,R2
 10013f8:	14 c7 40 08 	SW         R2,$8(SP)
 10013fc:	16 00 b8 08 	LDI        $47112,R2
 1001400:	14 c7 40 04 	SW         R2,$4(SP)
 1001404:	26 00 cb f1 	LDI        $52209,R4
 1001408:	16 00 3d 58 	LDI        $15704,R2
 100140c:	14 c7 40 00 	SW         R2,(SP)
 1001410:	16 00 15 bd 	LDI        $5565,R2
 1001414:	14 c7 40 58 	SW         R2,$88(SP)
 1001418:	16 00 94 0c 	LDI        $37900,R2
 100141c:	14 c7 40 54 	SW         R2,$84(SP)
 1001420:	16 00 ad a0 	LDI        $44448,R2
 1001424:	14 c7 40 50 	SW         R2,$80(SP)
 1001428:	16 00 0e bc 	LDI        $3772,R2
 100142c:	14 c7 40 4c 	SW         R2,$76(SP)
 1001430:	16 00 7d db 	LDI        $32219,R2
 1001434:	14 c7 40 48 	SW         R2,$72(SP)
 1001438:	16 00 19 5c 	LDI        $6492,R2
 100143c:	14 c7 40 44 	SW         R2,$68(SP)
 1001440:	16 00 e1 ae 	LDI        $57774,R2
 1001444:	14 c7 40 40 	SW         R2,$64(SP)
 1001448:	16 00 d1 64 	LDI        $53604,R2
 100144c:	14 c7 40 3c 	SW         R2,$60(SP)
 1001450:	16 00 79 91 	LDI        $31121,R2
 1001454:	14 c7 40 38 	SW         R2,$56(SP)
 1001458:	16 00 4c 14 	LDI        $19476,R2
 100145c:	14 c7 40 34 	SW         R2,$52(SP)
 1001460:	16 00 49 cc 	LDI        $18892,R2
 1001464:	14 c7 40 30 	SW         R2,$48(SP)
 1001468:	16 00 56 b4 	LDI        $22196,R2
 100146c:	14 c7 40 2c 	SW         R2,$44(SP)
 1001470:	16 00 b1 e9 	LDI        $45545,R2
 1001474:	14 c7 40 28 	SW         R2,$40(SP)
 1001478:	16 00 dc 04 	LDI        $56324,R2
 100147c:	14 c7 40 24 	SW         R2,$36(SP)
 1001480:	16 00 e5 f8 	LDI        $58872,R2
 1001484:	14 c7 40 20 	SW         R2,$32(SP)
 1001488:	1e 00 00 03 	LDI        $3,R3
 100148c:	16 00 9e ac 	LDI        $40620,R2
 1001490:	14 c7 40 1c 	SW         R2,$28(SP)
 1001494:	13 42 c0 00 	MOV        R11,R2
 1001498:	10 40 00 04 	AND        $4,R2
 100149c:	78 88 00 68 	BZ         @0x01001508    // 1001508 <mpyhi_test+0x274>
 10014a0:	2c 87 40 58 	LW         88(SP),R5
 10014a4:	34 87 40 54 	LW         84(SP),R6
 10014a8:	54 87 40 50 	LW         80(SP),R10
 10014ac:	4c 87 40 4c 	LW         76(SP),R9
 10014b0:	3c 87 40 48 	LW         72(SP),R7
 10014b4:	44 87 40 44 	LW         68(SP),R8
 10014b8:	04 87 40 40 	LW         64(SP),R0
 10014bc:	04 c7 40 18 	SW         R0,$24(SP)
 10014c0:	14 87 40 3c 	LW         60(SP),R2
 10014c4:	14 c7 40 14 	SW         R2,$20(SP)
 10014c8:	04 87 40 38 	LW         56(SP),R0
 10014cc:	04 c7 40 10 	SW         R0,$16(SP)
 10014d0:	14 87 40 34 	LW         52(SP),R2
 10014d4:	14 c7 40 0c 	SW         R2,$12(SP)
 10014d8:	04 87 40 30 	LW         48(SP),R0
 10014dc:	04 c7 40 08 	SW         R0,$8(SP)
 10014e0:	14 87 40 2c 	LW         44(SP),R2
 10014e4:	14 c7 40 04 	SW         R2,$4(SP)
 10014e8:	24 87 40 28 	LW         40(SP),R4
 10014ec:	04 87 40 24 	LW         36(SP),R0
 10014f0:	04 c7 40 00 	SW         R0,(SP)
 10014f4:	0c 87 40 1c 	LW         28(SP),R1
 10014f8:	04 87 40 20 	LW         32(SP),R0
 10014fc:	63 40 c0 00 	MOV        R3,R12
 1001500:	16 00 00 01 	LDI        $1,R2
 1001504:	78 80 00 04 	BRA        @0x0100150c    // 100150c <mpyhi_test+0x278>
 1001508:	13 43 00 00 	MOV        R12,R2
 100150c:	1b 42 c0 00 	MOV        R11,R3
 1001510:	18 40 00 08 	AND        $8,R3
 1001514:	78 88 00 34 	BZ         @0x0100154c    // 100154c <mpyhi_test+0x2b8>
 1001518:	60 84 80 00 	ADD        R2,R12
 100151c:	60 80 00 07 	ADD        $7,R12
 1001520:	2c 87 40 18 	LW         24(SP),R5
 1001524:	34 87 40 14 	LW         20(SP),R6
 1001528:	54 87 40 10 	LW         16(SP),R10
 100152c:	4c 87 40 0c 	LW         12(SP),R9
 1001530:	3c 87 40 08 	LW         8(SP),R7
 1001534:	44 87 40 04 	LW         4(SP),R8
 1001538:	0c 87 40 00 	LW         (SP),R1
 100153c:	03 41 00 00 	MOV        R4,R0
 1001540:	1e 00 00 00 	CLR        R3
 1001544:	16 00 00 01 	LDI        $1,R2
 1001548:	78 80 00 04 	BRA        @0x01001550    // 1001550 <mpyhi_test+0x2bc>
 100154c:	1b 40 80 00 	MOV        R2,R3
 1001550:	23 42 c0 00 	MOV        R11,R4
 1001554:	20 40 00 10 	AND        $16,R4
 1001558:	78 88 00 1c 	BZ         @0x01001578    // 1001578 <mpyhi_test+0x2e4>
 100155c:	60 84 80 00 	ADD        R2,R12
 1001560:	60 80 00 0f 	ADD        $15,R12
 1001564:	2b 42 80 00 	MOV        R10,R5
 1001568:	33 42 40 00 	MOV        R9,R6
 100156c:	0b 42 00 00 	MOV        R8,R1
 1001570:	03 41 c0 00 	MOV        R7,R0
 1001574:	1e 00 00 00 	CLR        R3
 1001578:	13 42 c0 00 	MOV        R11,R2
 100157c:	10 40 00 20 	AND        $32,R2
 1001580:	78 88 00 10 	BZ         @0x01001594    // 1001594 <mpyhi_test+0x300>
 1001584:	60 84 c0 00 	ADD        R3,R12
 1001588:	60 80 00 1f 	ADD        $31,R12
 100158c:	0b 41 80 00 	MOV        R6,R1
 1001590:	03 41 40 00 	MOV        R5,R0
 1001594:	13 42 c0 00 	MOV        R11,R2
 1001598:	10 40 00 40 	AND        $64,R2
 100159c:	78 88 00 34 	BZ         @0x010015d4    // 10015d4 <mpyhi_test+0x340>
 10015a0:	60 80 00 3e 	ADD        $62,R12
 10015a4:	13 40 00 00 	MOV        R0,R2
 10015a8:	10 80 5f 89 	ADD        $24457,R2
 10015ac:	08 80 ea c0 	ADD        $60096,R1
 10015b0:	03 40 40 00 	MOV        R1,R0
 10015b4:	01 40 00 10 	LSR        $16,R0
 10015b8:	00 84 80 00 	ADD        R2,R0
 10015bc:	08 40 ff ff 	AND        $65535,R1
 10015c0:	13 40 00 00 	MOV        R0,R2
 10015c4:	11 40 00 10 	LSR        $16,R2
 10015c8:	10 87 00 00 	ADD        R12,R2
 10015cc:	63 40 80 00 	MOV        R2,R12
 10015d0:	00 40 ff ff 	AND        $65535,R0
 10015d4:	13 42 c0 00 	MOV        R11,R2
 10015d8:	10 40 00 80 	AND        $128,R2
 10015dc:	78 88 00 34 	BZ         @0x01001614    // 1001614 <mpyhi_test+0x380>
 10015e0:	60 80 00 7c 	ADD        $124,R12
 10015e4:	13 40 00 00 	MOV        R0,R2
 10015e8:	10 80 bf 13 	ADD        $48915,R2
 10015ec:	08 80 d5 80 	ADD        $54656,R1
 10015f0:	03 40 40 00 	MOV        R1,R0
 10015f4:	01 40 00 10 	LSR        $16,R0
 10015f8:	00 84 80 00 	ADD        R2,R0
 10015fc:	08 40 ff ff 	AND        $65535,R1
 1001600:	13 40 00 00 	MOV        R0,R2
 1001604:	11 40 00 10 	LSR        $16,R2
 1001608:	10 87 00 00 	ADD        R12,R2
 100160c:	63 40 80 00 	MOV        R2,R12
 1001610:	00 40 ff ff 	AND        $65535,R0
 1001614:	13 42 c0 00 	MOV        R11,R2
 1001618:	10 40 01 00 	AND        $256,R2
 100161c:	78 88 00 34 	BZ         @0x01001654    // 1001654 <mpyhi_test+0x3c0>
 1001620:	60 80 00 f9 	ADD        $249,R12
 1001624:	13 40 00 00 	MOV        R0,R2
 1001628:	10 80 7e 27 	ADD        $32295,R2
 100162c:	08 80 ab 00 	ADD        $43776,R1
 1001630:	03 40 40 00 	MOV        R1,R0
 1001634:	01 40 00 10 	LSR        $16,R0
 1001638:	00 84 80 00 	ADD        R2,R0
 100163c:	08 40 ff ff 	AND        $65535,R1
 1001640:	13 40 00 00 	MOV        R0,R2
 1001644:	11 40 00 10 	LSR        $16,R2
 1001648:	10 87 00 00 	ADD        R12,R2
 100164c:	63 40 80 00 	MOV        R2,R12
 1001650:	00 40 ff ff 	AND        $65535,R0
 1001654:	13 42 c0 00 	MOV        R11,R2
 1001658:	10 40 02 00 	AND        $512,R2
 100165c:	78 88 00 34 	BZ         @0x01001694    // 1001694 <mpyhi_test+0x400>
 1001660:	60 80 01 f2 	ADD        $498,R12
 1001664:	13 40 00 00 	MOV        R0,R2
 1001668:	10 80 fc 4f 	ADD        $64591,R2
 100166c:	08 80 56 00 	ADD        $22016,R1
 1001670:	03 40 40 00 	MOV        R1,R0
 1001674:	01 40 00 10 	LSR        $16,R0
 1001678:	00 84 80 00 	ADD        R2,R0
 100167c:	08 40 ff ff 	AND        $65535,R1
 1001680:	13 40 00 00 	MOV        R0,R2
 1001684:	11 40 00 10 	LSR        $16,R2
 1001688:	10 87 00 00 	ADD        R12,R2
 100168c:	63 40 80 00 	MOV        R2,R12
 1001690:	00 40 ff ff 	AND        $65535,R0
 1001694:	13 42 c0 00 	MOV        R11,R2
 1001698:	10 40 04 00 	AND        $1024,R2
 100169c:	78 88 00 34 	BZ         @0x010016d4    // 10016d4 <mpyhi_test+0x440>
 10016a0:	60 80 03 e5 	ADD        $997,R12
 10016a4:	13 40 00 00 	MOV        R0,R2
 10016a8:	10 80 f8 9e 	ADD        $63646,R2
 10016ac:	08 80 ac 00 	ADD        $44032,R1
 10016b0:	03 40 40 00 	MOV        R1,R0
 10016b4:	01 40 00 10 	LSR        $16,R0
 10016b8:	00 84 80 00 	ADD        R2,R0
 10016bc:	08 40 ff ff 	AND        $65535,R1
 10016c0:	13 40 00 00 	MOV        R0,R2
 10016c4:	11 40 00 10 	LSR        $16,R2
 10016c8:	10 87 00 00 	ADD        R12,R2
 10016cc:	63 40 80 00 	MOV        R2,R12
 10016d0:	00 40 ff ff 	AND        $65535,R0
 10016d4:	13 42 c0 00 	MOV        R11,R2
 10016d8:	10 40 08 00 	AND        $2048,R2
 10016dc:	78 88 00 34 	BZ         @0x01001714    // 1001714 <mpyhi_test+0x480>
 10016e0:	60 80 07 cb 	ADD        $1995,R12
 10016e4:	13 40 00 00 	MOV        R0,R2
 10016e8:	10 80 f1 3d 	ADD        $61757,R2
 10016ec:	08 80 58 00 	ADD        $22528,R1
 10016f0:	03 40 40 00 	MOV        R1,R0
 10016f4:	01 40 00 10 	LSR        $16,R0
 10016f8:	00 84 80 00 	ADD        R2,R0
 10016fc:	08 40 ff ff 	AND        $65535,R1
 1001700:	13 40 00 00 	MOV        R0,R2
 1001704:	11 40 00 10 	LSR        $16,R2
 1001708:	10 87 00 00 	ADD        R12,R2
 100170c:	63 40 80 00 	MOV        R2,R12
 1001710:	00 40 ff ff 	AND        $65535,R0
 1001714:	13 42 c0 00 	MOV        R11,R2
 1001718:	10 40 10 00 	AND        $4096,R2
 100171c:	78 88 00 34 	BZ         @0x01001754    // 1001754 <mpyhi_test+0x4c0>
 1001720:	60 80 0f 97 	ADD        $3991,R12
 1001724:	13 40 00 00 	MOV        R0,R2
 1001728:	10 80 e2 7a 	ADD        $57978,R2
 100172c:	08 80 b0 00 	ADD        $45056,R1
 1001730:	03 40 40 00 	MOV        R1,R0
 1001734:	01 40 00 10 	LSR        $16,R0
 1001738:	00 84 80 00 	ADD        R2,R0
 100173c:	08 40 ff ff 	AND        $65535,R1
 1001740:	13 40 00 00 	MOV        R0,R2
 1001744:	11 40 00 10 	LSR        $16,R2
 1001748:	10 87 00 00 	ADD        R12,R2
 100174c:	63 40 80 00 	MOV        R2,R12
 1001750:	00 40 ff ff 	AND        $65535,R0
 1001754:	13 42 c0 00 	MOV        R11,R2
 1001758:	10 40 20 00 	AND        $8192,R2
 100175c:	78 88 00 34 	BZ         @0x01001794    // 1001794 <mpyhi_test+0x500>
 1001760:	60 80 1f 2f 	ADD        $7983,R12
 1001764:	13 40 00 00 	MOV        R0,R2
 1001768:	10 80 c4 f5 	ADD        $50421,R2
 100176c:	08 80 60 00 	ADD        $24576,R1
 1001770:	03 40 40 00 	MOV        R1,R0
 1001774:	01 40 00 10 	LSR        $16,R0
 1001778:	00 84 80 00 	ADD        R2,R0
 100177c:	08 40 ff ff 	AND        $65535,R1
 1001780:	13 40 00 00 	MOV        R0,R2
 1001784:	11 40 00 10 	LSR        $16,R2
 1001788:	10 87 00 00 	ADD        R12,R2
 100178c:	63 40 80 00 	MOV        R2,R12
 1001790:	00 40 ff ff 	AND        $65535,R0
 1001794:	13 42 c0 00 	MOV        R11,R2
 1001798:	10 40 40 00 	AND        $16384,R2
 100179c:	78 88 00 34 	BZ         @0x010017d4    // 10017d4 <mpyhi_test+0x540>
 10017a0:	60 80 3e 5f 	ADD        $15967,R12
 10017a4:	13 40 00 00 	MOV        R0,R2
 10017a8:	10 80 89 ea 	ADD        $35306,R2
 10017ac:	08 80 c0 00 	ADD        $49152,R1
 10017b0:	03 40 40 00 	MOV        R1,R0
 10017b4:	01 40 00 10 	LSR        $16,R0
 10017b8:	00 84 80 00 	ADD        R2,R0
 10017bc:	08 40 ff ff 	AND        $65535,R1
 10017c0:	13 40 00 00 	MOV        R0,R2
 10017c4:	11 40 00 10 	LSR        $16,R2
 10017c8:	10 87 00 00 	ADD        R12,R2
 10017cc:	63 40 80 00 	MOV        R2,R12
 10017d0:	00 40 ff ff 	AND        $65535,R0
 10017d4:	13 42 c0 00 	MOV        R11,R2
 10017d8:	10 40 80 00 	AND        $32768,R2
 10017dc:	78 88 00 30 	BZ         @0x01001810    // 1001810 <mpyhi_test+0x57c>
 10017e0:	60 80 7c bf 	ADD        $31935,R12
 10017e4:	13 40 00 00 	MOV        R0,R2
 10017e8:	10 80 13 d5 	ADD        $5077,R2
 10017ec:	03 40 40 00 	MOV        R1,R0
 10017f0:	00 80 80 00 	ADD        $32768,R0
 10017f4:	01 40 00 10 	LSR        $16,R0
 10017f8:	00 84 80 00 	ADD        R2,R0
 10017fc:	0b 40 00 00 	MOV        R0,R1
 1001800:	09 40 00 10 	LSR        $16,R1
 1001804:	08 87 00 00 	ADD        R12,R1
 1001808:	63 40 40 00 	MOV        R1,R12
 100180c:	00 40 ff ff 	AND        $65535,R0
 1001810:	0b 42 c0 00 	MOV        R11,R1
 1001814:	08 41 00 00 	AND        $65536,R1
 1001818:	78 88 00 1c 	BZ         @0x01001838    // 1001838 <mpyhi_test+0x5a4>
 100181c:	60 80 f9 7e 	ADD        $63870,R12
 1001820:	00 80 27 ab 	ADD        $10155,R0
 1001824:	0b 40 00 00 	MOV        R0,R1
 1001828:	09 40 00 10 	LSR        $16,R1
 100182c:	08 87 00 00 	ADD        R12,R1
 1001830:	63 40 40 00 	MOV        R1,R12
 1001834:	00 40 ff ff 	AND        $65535,R0
 1001838:	0e 02 00 00 	LDI        $131072,R1
 100183c:	13 42 c0 00 	MOV        R11,R2
 1001840:	10 44 40 00 	AND        R1,R2
 1001844:	78 88 00 1c 	BZ         @0x01001864    // 1001864 <mpyhi_test+0x5d0>
 1001848:	60 81 f2 fc 	ADD        $127740,R12
 100184c:	00 80 4f 56 	ADD        $20310,R0
 1001850:	0b 40 00 00 	MOV        R0,R1
 1001854:	09 40 00 10 	LSR        $16,R1
 1001858:	08 87 00 00 	ADD        R12,R1
 100185c:	63 40 40 00 	MOV        R1,R12
 1001860:	00 40 ff ff 	AND        $65535,R0
 1001864:	0e 04 00 00 	LDI        $262144,R1
 1001868:	13 42 c0 00 	MOV        R11,R2
 100186c:	10 44 40 00 	AND        R1,R2
 1001870:	78 88 00 20 	BZ         @0x01001894    // 1001894 <mpyhi_test+0x600>
 1001874:	0e 03 e5 f8 	LDI        $255480,R1
 1001878:	60 84 40 00 	ADD        R1,R12
 100187c:	00 80 9e ac 	ADD        $40620,R0
 1001880:	0b 40 00 00 	MOV        R0,R1
 1001884:	09 40 00 10 	LSR        $16,R1
 1001888:	08 87 00 00 	ADD        R12,R1
 100188c:	63 40 40 00 	MOV        R1,R12
 1001890:	00 40 ff ff 	AND        $65535,R0
 1001894:	0e 08 00 00 	LDI        $524288,R1
 1001898:	13 42 c0 00 	MOV        R11,R2
 100189c:	10 44 40 00 	AND        R1,R2
 10018a0:	78 88 00 20 	BZ         @0x010018c4    // 10018c4 <mpyhi_test+0x630>
 10018a4:	0e 07 cb f1 	LDI        $510961,R1
 10018a8:	60 84 40 00 	ADD        R1,R12
 10018ac:	00 80 3d 58 	ADD        $15704,R0
 10018b0:	0b 40 00 00 	MOV        R0,R1
 10018b4:	09 40 00 10 	LSR        $16,R1
 10018b8:	08 87 00 00 	ADD        R12,R1
 10018bc:	63 40 40 00 	MOV        R1,R12
 10018c0:	00 40 ff ff 	AND        $65535,R0
 10018c4:	0e 10 00 00 	LDI        $1048576,R1
 10018c8:	13 42 c0 00 	MOV        R11,R2
 10018cc:	10 44 40 00 	AND        R1,R2
 10018d0:	78 88 00 20 	BZ         @0x010018f4    // 10018f4 <mpyhi_test+0x660>
 10018d4:	0e 0f 97 e2 	LDI        $1021922,R1
 10018d8:	60 84 40 00 	ADD        R1,R12
 10018dc:	00 80 7a b0 	ADD        $31408,R0
 10018e0:	0b 40 00 00 	MOV        R0,R1
 10018e4:	09 40 00 10 	LSR        $16,R1
 10018e8:	08 87 00 00 	ADD        R12,R1
 10018ec:	63 40 40 00 	MOV        R1,R12
 10018f0:	00 40 ff ff 	AND        $65535,R0
 10018f4:	0e 20 00 00 	LDI        $2097152,R1
 10018f8:	13 42 c0 00 	MOV        R11,R2
 10018fc:	10 44 40 00 	AND        R1,R2
 1001900:	78 88 00 20 	BZ         @0x01001924    // 1001924 <mpyhi_test+0x690>
 1001904:	0e 1f 2f c4 	LDI        $2043844,R1
 1001908:	60 84 40 00 	ADD        R1,R12
 100190c:	00 80 f5 60 	ADD        $62816,R0
 1001910:	0b 40 00 00 	MOV        R0,R1
 1001914:	09 40 00 10 	LSR        $16,R1
 1001918:	08 87 00 00 	ADD        R12,R1
 100191c:	63 40 40 00 	MOV        R1,R12
 1001920:	00 40 ff ff 	AND        $65535,R0
 1001924:	0a 00 02 00 	BREV       $512,R1
 1001928:	13 42 c0 00 	MOV        R11,R2
 100192c:	10 44 40 00 	AND        R1,R2
 1001930:	78 88 00 20 	BZ         @0x01001954    // 1001954 <mpyhi_test+0x6c0>
 1001934:	0e 3e 5f 89 	LDI        $4087689,R1
 1001938:	60 84 40 00 	ADD        R1,R12
 100193c:	00 80 ea c0 	ADD        $60096,R0
 1001940:	0b 40 00 00 	MOV        R0,R1
 1001944:	09 40 00 10 	LSR        $16,R1
 1001948:	08 87 00 00 	ADD        R12,R1
 100194c:	63 40 40 00 	MOV        R1,R12
 1001950:	00 40 ff ff 	AND        $65535,R0
 1001954:	0a 00 01 00 	BREV       $256,R1
 1001958:	13 42 c0 00 	MOV        R11,R2
 100195c:	10 44 40 00 	AND        R1,R2
 1001960:	78 88 00 24 	BZ         @0x01001988    // 1001988 <mpyhi_test+0x6f4>
 1001964:	0a 01 3e 00 	LDI        0x007cbf13,R1  // 7cbf13 <_rom+0x7cbf13>
 1001968:	0a 40 bf 13 
 100196c:	60 84 40 00 	ADD        R1,R12
 1001970:	00 80 d5 80 	ADD        $54656,R0
 1001974:	0b 40 00 00 	MOV        R0,R1
 1001978:	09 40 00 10 	LSR        $16,R1
 100197c:	08 87 00 00 	ADD        R12,R1
 1001980:	63 40 40 00 	MOV        R1,R12
 1001984:	00 40 ff ff 	AND        $65535,R0
 1001988:	0a 00 00 80 	BREV       $128,R1
 100198c:	13 42 c0 00 	MOV        R11,R2
 1001990:	10 44 40 00 	AND        R1,R2
 1001994:	78 88 00 24 	BZ         @0x010019bc    // 10019bc <mpyhi_test+0x728>
 1001998:	0a 00 9f 00 	LDI        0x00f97e27,R1  // f97e27 <_bkram+0x597e27>
 100199c:	0a 40 7e 27 
 10019a0:	60 84 40 00 	ADD        R1,R12
 10019a4:	00 80 ab 00 	ADD        $43776,R0
 10019a8:	0b 40 00 00 	MOV        R0,R1
 10019ac:	09 40 00 10 	LSR        $16,R1
 10019b0:	08 87 00 00 	ADD        R12,R1
 10019b4:	63 40 40 00 	MOV        R1,R12
 10019b8:	00 40 ff ff 	AND        $65535,R0
 10019bc:	0a 00 00 40 	BREV       $64,R1
 10019c0:	13 42 c0 00 	MOV        R11,R2
 10019c4:	10 44 40 00 	AND        R1,R2
 10019c8:	78 88 00 24 	BZ         @0x010019f0    // 10019f0 <mpyhi_test+0x75c>
 10019cc:	0a 01 4f 80 	LDI        0x01f2fc4f,R1  // 1f2fc4f <_top_of_stack+0x72fc4f>
 10019d0:	0a 40 fc 4f 
 10019d4:	60 84 40 00 	ADD        R1,R12
 10019d8:	00 80 56 00 	ADD        $22016,R0
 10019dc:	0b 40 00 00 	MOV        R0,R1
 10019e0:	09 40 00 10 	LSR        $16,R1
 10019e4:	08 87 00 00 	ADD        R12,R1
 10019e8:	63 40 40 00 	MOV        R1,R12
 10019ec:	00 40 ff ff 	AND        $65535,R0
 10019f0:	0a 00 00 20 	BREV       $32,R1
 10019f4:	13 42 c0 00 	MOV        R11,R2
 10019f8:	10 44 40 00 	AND        R1,R2
 10019fc:	78 88 00 24 	BZ         @0x01001a24    // 1001a24 <mpyhi_test+0x790>
 1001a00:	0a 01 a7 c0 	LDI        0x03e5f89e,R1  // 3e5f89e <_top_of_stack+0x265f89e>
 1001a04:	0a 40 f8 9e 
 1001a08:	60 84 40 00 	ADD        R1,R12
 1001a0c:	00 80 ac 00 	ADD        $44032,R0
 1001a10:	0b 40 00 00 	MOV        R0,R1
 1001a14:	09 40 00 10 	LSR        $16,R1
 1001a18:	08 87 00 00 	ADD        R12,R1
 1001a1c:	63 40 40 00 	MOV        R1,R12
 1001a20:	00 40 ff ff 	AND        $65535,R0
 1001a24:	0a 00 00 10 	BREV       $16,R1
 1001a28:	13 42 c0 00 	MOV        R11,R2
 1001a2c:	10 44 40 00 	AND        R1,R2
 1001a30:	78 88 00 24 	BZ         @0x01001a58    // 1001a58 <mpyhi_test+0x7c4>
 1001a34:	0a 01 d3 e0 	LDI        0x07cbf13d,R1  // 7cbf13d <_top_of_stack+0x64bf13d>
 1001a38:	0a 40 f1 3d 
 1001a3c:	60 84 40 00 	ADD        R1,R12
 1001a40:	00 80 58 00 	ADD        $22528,R0
 1001a44:	0b 40 00 00 	MOV        R0,R1
 1001a48:	09 40 00 10 	LSR        $16,R1
 1001a4c:	08 87 00 00 	ADD        R12,R1
 1001a50:	63 40 40 00 	MOV        R1,R12
 1001a54:	00 40 ff ff 	AND        $65535,R0
 1001a58:	0a 00 00 08 	BREV       $8,R1
 1001a5c:	13 42 c0 00 	MOV        R11,R2
 1001a60:	10 44 40 00 	AND        R1,R2
 1001a64:	78 88 00 24 	BZ         @0x01001a8c    // 1001a8c <mpyhi_test+0x7f8>
 1001a68:	0a 01 e9 f0 	LDI        0x0f97e27a,R1  // f97e27a <_top_of_stack+0xe17e27a>
 1001a6c:	0a 40 e2 7a 
 1001a70:	60 84 40 00 	ADD        R1,R12
 1001a74:	00 80 b0 00 	ADD        $45056,R0
 1001a78:	0b 40 00 00 	MOV        R0,R1
 1001a7c:	09 40 00 10 	LSR        $16,R1
 1001a80:	08 87 00 00 	ADD        R12,R1
 1001a84:	63 40 40 00 	MOV        R1,R12
 1001a88:	00 40 ff ff 	AND        $65535,R0
 1001a8c:	0a 00 00 04 	BREV       $4,R1
 1001a90:	13 42 c0 00 	MOV        R11,R2
 1001a94:	10 44 40 00 	AND        R1,R2
 1001a98:	78 88 00 24 	BZ         @0x01001ac0    // 1001ac0 <mpyhi_test+0x82c>
 1001a9c:	0a 01 f4 f8 	LDI        0x1f2fc4f5,R1  // 1f2fc4f5 <_top_of_stack+0x1dafc4f5>
 1001aa0:	0a 40 c4 f5 
 1001aa4:	60 84 40 00 	ADD        R1,R12
 1001aa8:	00 80 60 00 	ADD        $24576,R0
 1001aac:	0b 40 00 00 	MOV        R0,R1
 1001ab0:	09 40 00 10 	LSR        $16,R1
 1001ab4:	08 87 00 00 	ADD        R12,R1
 1001ab8:	63 40 40 00 	MOV        R1,R12
 1001abc:	00 40 ff ff 	AND        $65535,R0
 1001ac0:	0a 00 00 02 	BREV       $2,R1
 1001ac4:	13 42 c0 00 	MOV        R11,R2
 1001ac8:	10 44 40 00 	AND        R1,R2
 1001acc:	78 88 00 1c 	BZ         @0x01001aec    // 1001aec <mpyhi_test+0x858>
 1001ad0:	0a 01 fa 7c 	LDI        0x3e5f89ea,R1  // 3e5f89ea <_top_of_stack+0x3cdf89ea>
 1001ad4:	0a 40 89 ea 
 1001ad8:	60 84 40 00 	ADD        R1,R12
 1001adc:	00 80 c0 00 	ADD        $49152,R0
 1001ae0:	01 40 00 10 	LSR        $16,R0
 1001ae4:	00 87 00 00 	ADD        R12,R0
 1001ae8:	63 40 00 00 	MOV        R0,R12
 1001aec:	13 42 c0 00 	MOV        R11,R2
 1001af0:	0a 00 7e 9f 	LDI        0xf97e27ab,R1  // f97e27ab <_top_of_stack+0xf7fe27ab>
 1001af4:	0a 40 27 ab 
 1001af8:	03 43 c0 01 	JSR        0x010005a4     // 10005a4 <hard_mpyuhi>
 1001afc:	78 83 ea a4 
 1001b00:	0c 07 00 00 	CMP        R12,R1
 1001b04:	78 88 01 f8 	BZ         @0x01001d00    // 1001d00 <mpyhi_test+0xa6c>
 1001b08:	2b 40 40 00 	MOV        R1,R5
 1001b0c:	0a 00 00 80 	LDI        0x01003d78,R1  // 1003d78 <entry+0x1ba4>
 1001b10:	0a 40 3d 78 
 1001b14:	03 43 c0 01 	JSR        0x01001120     // 1001120 <txstr>
 1001b18:	78 83 f6 04 
 1001b1c:	0a 00 00 80 	LDI        0x01003a50,R1  // 1003a50 <entry+0x187c>
 1001b20:	0a 40 3a 50 
 1001b24:	03 43 c0 01 	JSR        0x01001120     // 1001120 <txstr>
 1001b28:	78 83 f5 f4 
 1001b2c:	0a 00 7e 9f 	LDI        0xf97e27ab,R1  // f97e27ab <_top_of_stack+0xf7fe27ab>
 1001b30:	0a 40 27 ab 
 1001b34:	03 43 c0 01 	JSR        0x01001164     // 1001164 <txhex>
 1001b38:	78 83 f6 28 
 1001b3c:	0a 00 00 80 	LDI        0x01003a30,R1  // 1003a30 <entry+0x185c>
 1001b40:	0a 40 3a 30 
 1001b44:	03 43 c0 01 	JSR        0x01001120     // 1001120 <txstr>
 1001b48:	78 83 f5 d4 
 1001b4c:	0b 42 c0 00 	MOV        R11,R1
 1001b50:	03 43 c0 01 	JSR        0x01001164     // 1001164 <txhex>
 1001b54:	78 83 f6 0c 
 1001b58:	0a 00 00 80 	LDI        0x01003a34,R1  // 1003a34 <entry+0x1860>
 1001b5c:	0a 40 3a 34 
 1001b60:	03 43 c0 01 	JSR        0x01001120     // 1001120 <txstr>
 1001b64:	78 83 f5 b8 
 1001b68:	0b 43 00 00 	MOV        R12,R1
 1001b6c:	03 43 c0 01 	JSR        0x01001164     // 1001164 <txhex>
 1001b70:	78 83 f5 f0 
 1001b74:	0a 00 00 80 	LDI        0x01003a38,R1  // 1003a38 <entry+0x1864>
 1001b78:	0a 40 3a 38 
 1001b7c:	03 43 c0 01 	JSR        0x01001120     // 1001120 <txstr>
 1001b80:	78 83 f5 9c 
 1001b84:	0b 41 40 00 	MOV        R5,R1
 1001b88:	03 43 c0 01 	JSR        0x01001164     // 1001164 <txhex>
 1001b8c:	78 83 f5 d4 
 1001b90:	0a 00 00 80 	LDI        0x01003a44,R1  // 1003a44 <entry+0x1870>
 1001b94:	0a 40 3a 44 
 1001b98:	03 43 c0 01 	JSR        0x01001120     // 1001120 <txstr>
 1001b9c:	78 83 f5 80 
 1001ba0:	0e 00 00 01 	LDI        $1,R1
 1001ba4:	78 80 01 d4 	BRA        @0x01001d7c    // 1001d7c <mpyhi_test+0xae8>
 1001ba8:	0a 00 00 80 	LDI        0x01003d78,R1  // 1003d78 <entry+0x1ba4>
 1001bac:	0a 40 3d 78 
 1001bb0:	03 43 c0 01 	JSR        0x01001120     // 1001120 <txstr>
 1001bb4:	78 83 f5 68 
 1001bb8:	0a 00 00 80 	LDI        0x01003a5c,R1  // 1003a5c <entry+0x1888>
 1001bbc:	0a 40 3a 5c 
 1001bc0:	03 43 c0 01 	JSR        0x01001120     // 1001120 <txstr>
 1001bc4:	78 83 f5 58 
 1001bc8:	0a 00 7e 9f 	LDI        0xf97e27ab,R1  // f97e27ab <_top_of_stack+0xf7fe27ab>
 1001bcc:	0a 40 27 ab 
 1001bd0:	03 43 c0 01 	JSR        0x01001164     // 1001164 <txhex>
 1001bd4:	78 83 f5 8c 
 1001bd8:	0a 00 00 80 	LDI        0x01003a30,R1  // 1003a30 <entry+0x185c>
 1001bdc:	0a 40 3a 30 
 1001be0:	03 43 c0 01 	JSR        0x01001120     // 1001120 <txstr>
 1001be4:	78 83 f5 38 
 1001be8:	0b 42 c0 00 	MOV        R11,R1
 1001bec:	03 43 c0 01 	JSR        0x01001164     // 1001164 <txhex>
 1001bf0:	78 83 f5 70 
 1001bf4:	0a 00 00 80 	LDI        0x01003a34,R1  // 1003a34 <entry+0x1860>
 1001bf8:	0a 40 3a 34 
 1001bfc:	03 43 c0 01 	JSR        0x01001120     // 1001120 <txstr>
 1001c00:	78 83 f5 1c 
 1001c04:	0b 41 80 00 	MOV        R6,R1
 1001c08:	03 43 c0 01 	JSR        0x01001164     // 1001164 <txhex>
 1001c0c:	78 83 f5 54 
 1001c10:	0a 00 00 80 	LDI        0x01003a38,R1  // 1003a38 <entry+0x1864>
 1001c14:	0a 40 3a 38 
 1001c18:	03 43 c0 01 	JSR        0x01001120     // 1001120 <txstr>
 1001c1c:	78 83 f5 00 
 1001c20:	0b 41 c0 00 	MOV        R7,R1
 1001c24:	03 43 c0 01 	JSR        0x01001164     // 1001164 <txhex>
 1001c28:	78 83 f5 38 
 1001c2c:	0a 00 00 80 	LDI        0x01003a44,R1  // 1003a44 <entry+0x1870>
 1001c30:	0a 40 3a 44 
 1001c34:	03 43 c0 01 	JSR        0x01001120     // 1001120 <txstr>
 1001c38:	78 83 f4 e4 
 1001c3c:	0e 00 00 02 	LDI        $2,R1
 1001c40:	78 80 01 38 	BRA        @0x01001d7c    // 1001d7c <mpyhi_test+0xae8>
 1001c44:	0a 00 00 80 	LDI        0x01003d78,R1  // 1003d78 <entry+0x1ba4>
 1001c48:	0a 40 3d 78 
 1001c4c:	03 43 c0 01 	JSR        0x01001120     // 1001120 <txstr>
 1001c50:	78 83 f4 cc 
 1001c54:	0a 00 00 80 	LDI        0x01003a68,R1  // 1003a68 <entry+0x1894>
 1001c58:	0a 40 3a 68 
 1001c5c:	03 43 c0 01 	JSR        0x01001120     // 1001120 <txstr>
 1001c60:	78 83 f4 bc 
 1001c64:	0a 01 81 60 	LDI        0x0681d855,R1  // 681d855 <_top_of_stack+0x501d855>
 1001c68:	0a 40 d8 55 
 1001c6c:	03 43 c0 01 	JSR        0x01001164     // 1001164 <txhex>
 1001c70:	78 83 f4 f0 
 1001c74:	0a 00 00 80 	LDI        0x01003a30,R1  // 1003a30 <entry+0x185c>
 1001c78:	0a 40 3a 30 
 1001c7c:	03 43 c0 01 	JSR        0x01001120     // 1001120 <txstr>
 1001c80:	78 83 f4 9c 
 1001c84:	0b 42 c0 00 	MOV        R11,R1
 1001c88:	03 43 c0 01 	JSR        0x01001164     // 1001164 <txhex>
 1001c8c:	78 83 f4 d4 
 1001c90:	0a 00 00 80 	LDI        0x01003a34,R1  // 1003a34 <entry+0x1860>
 1001c94:	0a 40 3a 34 
 1001c98:	03 43 c0 01 	JSR        0x01001120     // 1001120 <txstr>
 1001c9c:	78 83 f4 80 
 1001ca0:	0b 41 40 00 	MOV        R5,R1
 1001ca4:	03 43 c0 01 	JSR        0x01001164     // 1001164 <txhex>
 1001ca8:	78 83 f4 b8 
 1001cac:	0a 00 00 80 	LDI        0x01003a38,R1  // 1003a38 <entry+0x1864>
 1001cb0:	0a 40 3a 38 
 1001cb4:	03 43 c0 01 	JSR        0x01001120     // 1001120 <txstr>
 1001cb8:	78 83 f4 64 
 1001cbc:	0b 41 80 00 	MOV        R6,R1
 1001cc0:	03 43 c0 01 	JSR        0x01001164     // 1001164 <txhex>
 1001cc4:	78 83 f4 9c 
 1001cc8:	0a 00 00 80 	LDI        0x01003a44,R1  // 1003a44 <entry+0x1870>
 1001ccc:	0a 40 3a 44 
 1001cd0:	03 43 c0 01 	JSR        0x01001120     // 1001120 <txstr>
 1001cd4:	78 83 f4 48 
 1001cd8:	0e 00 00 03 	LDI        $3,R1
 1001cdc:	78 80 00 9c 	BRA        @0x01001d7c    // 1001d7c <mpyhi_test+0xae8>
 1001ce0:	0e 0b 27 2e 	LDI        $730926,R1
 1001ce4:	58 84 40 00 	ADD        R1,R11
 1001ce8:	0a 00 40 0e 	LDI        0x70027afa,R1  // 70027afa <_top_of_stack+0x6e827afa>
 1001cec:	0a 40 7a fa 
 1001cf0:	5c 04 40 00 	CMP        R1,R11
 1001cf4:	78 ab f5 c8 	BNZ        @0x010012c0    // 10012c0 <mpyhi_test+0x2c>
 1001cf8:	0e 00 00 00 	CLR        R1
 1001cfc:	78 80 00 7c 	BRA        @0x01001d7c    // 1001d7c <mpyhi_test+0xae8>
 1001d00:	13 42 c0 00 	MOV        R11,R2
 1001d04:	0a 01 81 60 	LDI        0x0681d855,R1  // 681d855 <_top_of_stack+0x501d855>
 1001d08:	0a 40 d8 55 
 1001d0c:	03 43 c0 01 	JSR        0x010008c0     // 10008c0 <soft_mpyuhi>
 1001d10:	78 83 eb ac 
 1001d14:	2b 40 40 00 	MOV        R1,R5
 1001d18:	33 40 5f ff 	MOV        $-1+R1,R6
 1001d1c:	31 03 ff ff 	XOR        $-1,R6
 1001d20:	5c 00 00 00 	CMP        $0,R11
 1001d24:	78 88 00 30 	BZ         @0x01001d58    // 1001d58 <mpyhi_test+0xac4>
 1001d28:	78 80 00 24 	BRA        @0x01001d50    // 1001d50 <mpyhi_test+0xabc>
 1001d2c:	13 42 c0 00 	MOV        R11,R2
 1001d30:	0a 01 81 60 	LDI        0x0681d855,R1  // 681d855 <_top_of_stack+0x501d855>
 1001d34:	0a 40 d8 55 
 1001d38:	03 43 c0 01 	JSR        0x010005ac     // 10005ac <hard_mpyshi>
 1001d3c:	78 83 e8 6c 
 1001d40:	0c 05 40 00 	CMP        R5,R1
 1001d44:	78 8b ff 98 	BZ         @0x01001ce0    // 1001ce0 <mpyhi_test+0xa4c>
 1001d48:	33 40 40 00 	MOV        R1,R6
 1001d4c:	78 83 fe f4 	BRA        @0x01001c44    // 1001c44 <mpyhi_test+0x9b0>
 1001d50:	33 40 40 00 	MOV        R1,R6
 1001d54:	31 03 ff ff 	XOR        $-1,R6
 1001d58:	13 42 c0 00 	MOV        R11,R2
 1001d5c:	0a 00 7e 9f 	LDI        0xf97e27ab,R1  // f97e27ab <_top_of_stack+0xf7fe27ab>
 1001d60:	0a 40 27 ab 
 1001d64:	03 43 c0 01 	JSR        0x010005ac     // 10005ac <hard_mpyshi>
 1001d68:	78 83 e8 40 
 1001d6c:	0c 05 80 00 	CMP        R6,R1
 1001d70:	78 8b ff b8 	BZ         @0x01001d2c    // 1001d2c <mpyhi_test+0xa98>
 1001d74:	3b 40 40 00 	MOV        R1,R7
 1001d78:	78 83 fe 2c 	BRA        @0x01001ba8    // 1001ba8 <mpyhi_test+0x914>
 1001d7c:	04 87 40 5c 	LW         92(SP),R0
 1001d80:	2c 87 40 60 	LW         96(SP),R5
 1001d84:	34 87 40 64 	LW         100(SP),R6
 1001d88:	3c 87 40 68 	LW         104(SP),R7
 1001d8c:	44 87 40 6c 	LW         108(SP),R8
 1001d90:	4c 87 40 70 	LW         112(SP),R9
 1001d94:	54 87 40 74 	LW         116(SP),R10
 1001d98:	5c 87 40 78 	LW         120(SP),R11
 1001d9c:	64 87 40 7c 	LW         124(SP),R12
 1001da0:	68 80 00 80 	ADD        $128,SP
 1001da4:	7b 40 00 00 	RTN

01001da8 <tx4hex>:
 1001da8:	13 40 40 00 	MOV        R1,R2
 1001dac:	10 43 00 00 	AND        $-65536,R2
 1001db0:	78 88 00 04 	BZ         @0x01001db8    // 1001db8 <tx4hex+0x10>
 1001db4:	78 83 f3 ac 	BRA        @0x01001164    // 1001164 <txhex>
 1001db8:	68 00 00 0c 	SUB        $12,SP
 1001dbc:	04 c7 40 00 	SW         R0,(SP)
 1001dc0:	2c c7 40 04 	SW         R5,$4(SP)
 1001dc4:	34 c7 40 08 	SW         R6,$8(SP)
 1001dc8:	33 40 40 00 	MOV        R1,R6
 1001dcc:	2e 00 00 0c 	LDI        $12,R5
 1001dd0:	0b 41 80 00 	MOV        R6,R1
 1001dd4:	09 c5 40 00 	ASR        R5,R1
 1001dd8:	08 40 00 0f 	AND        $15,R1
 1001ddc:	0c 00 00 0a 	CMP        $10,R1
 1001de0:	78 90 00 08 	BLT        @0x01001dec    // 1001dec <tx4hex+0x44>
 1001de4:	08 80 00 37 	ADD        $55,R1
 1001de8:	78 80 00 04 	BRA        @0x01001df0    // 1001df0 <tx4hex+0x48>
 1001dec:	08 80 00 30 	ADD        $48,R1
 1001df0:	03 43 c0 01 	JSR        0x010010b4     // 10010b4 <txchr>
 1001df4:	78 83 f2 bc 
 1001df8:	28 83 ff fc 	ADD        $-4,R5
 1001dfc:	2c 03 ff fc 	CMP        $-4,R5
 1001e00:	78 ab ff cc 	BNZ        @0x01001dd0    // 1001dd0 <tx4hex+0x28>
 1001e04:	04 87 40 00 	LW         (SP),R0
 1001e08:	2c 87 40 04 	LW         4(SP),R5
 1001e0c:	34 87 40 08 	LW         8(SP),R6
 1001e10:	68 80 00 0c 	ADD        $12,SP
 1001e14:	7b 40 00 00 	RTN

01001e18 <txreg>:
 1001e18:	68 00 00 08 	SUB        $8,SP
 1001e1c:	04 c7 40 00 	SW         R0,(SP)
 1001e20:	2c c7 40 04 	SW         R5,$4(SP)
 1001e24:	2b 40 80 00 	MOV        R2,R5
 1001e28:	03 43 c0 01 	JSR        0x01001120     // 1001120 <txstr>
 1001e2c:	78 83 f2 f0 
 1001e30:	0a 00 00 80 	LDI        0x01003a94,R1  // 1003a94 <entry+0x18c0>
 1001e34:	0a 40 3a 94 
 1001e38:	03 43 c0 01 	JSR        0x01001120     // 1001120 <txstr>
 1001e3c:	78 83 f2 e0 
 1001e40:	0b 41 40 00 	MOV        R5,R1
 1001e44:	03 43 c0 01 	JSR        0x01001164     // 1001164 <txhex>
 1001e48:	78 83 f3 18 
 1001e4c:	0a 00 00 80 	LDI        0x01003a78,R1  // 1003a78 <entry+0x18a4>
 1001e50:	0a 40 3a 78 
 1001e54:	04 87 40 00 	LW         (SP),R0
 1001e58:	2c 87 40 04 	LW         4(SP),R5
 1001e5c:	68 80 00 08 	ADD        $8,SP
 1001e60:	78 83 f2 bc 	BRA        @0x01001120    // 1001120 <txstr>

01001e64 <save_context>:
 1001e64:	68 00 00 04 	SUB        $4,SP
 1001e68:	2c c7 40 00 	SW         R5,(SP)
 1001e6c:	13 40 20 00 	MOV        uR0,R2
 1001e70:	1b 40 60 00 	MOV        uR1,R3
 1001e74:	23 40 a0 00 	MOV        uR2,R4
 1001e78:	2b 40 e0 00 	MOV        uR3,R5
 1001e7c:	14 c4 40 00 	SW         R2,(R1)
 1001e80:	1c c4 40 04 	SW         R3,$4(R1)
 1001e84:	24 c4 40 08 	SW         R4,$8(R1)
 1001e88:	2c c4 40 0c 	SW         R5,$12(R1)
 1001e8c:	13 41 20 00 	MOV        uR4,R2
 1001e90:	1b 41 60 00 	MOV        uR5,R3
 1001e94:	23 41 a0 00 	MOV        uR6,R4
 1001e98:	2b 41 e0 00 	MOV        uR7,R5
 1001e9c:	14 c4 40 10 	SW         R2,$16(R1)
 1001ea0:	1c c4 40 14 	SW         R3,$20(R1)
 1001ea4:	24 c4 40 18 	SW         R4,$24(R1)
 1001ea8:	2c c4 40 1c 	SW         R5,$28(R1)
 1001eac:	13 42 20 00 	MOV        uR8,R2
 1001eb0:	1b 42 60 00 	MOV        uR9,R3
 1001eb4:	23 42 a0 00 	MOV        uR10,R4
 1001eb8:	2b 42 e0 00 	MOV        uR11,R5
 1001ebc:	14 c4 40 20 	SW         R2,$32(R1)
 1001ec0:	1c c4 40 24 	SW         R3,$36(R1)
 1001ec4:	24 c4 40 28 	SW         R4,$40(R1)
 1001ec8:	2c c4 40 2c 	SW         R5,$44(R1)
 1001ecc:	13 43 20 00 	MOV        uR12,R2
 1001ed0:	1b 43 60 00 	MOV        uSP,R3
 1001ed4:	23 43 a0 00 	MOV        uCC,R4
 1001ed8:	2b 43 e0 00 	MOV        uPC,R5
 1001edc:	14 c4 40 30 	SW         R2,$48(R1)
 1001ee0:	1c c4 40 34 	SW         R3,$52(R1)
 1001ee4:	24 c4 40 38 	SW         R4,$56(R1)
 1001ee8:	2c c4 40 3c 	SW         R5,$60(R1)
 1001eec:	2c 87 40 00 	LW         (SP),R5
 1001ef0:	68 80 00 04 	ADD        $4,SP
 1001ef4:	7b 40 00 00 	RTN

01001ef8 <test_fails>:
 1001ef8:	68 00 00 50 	SUB        $80,SP
 1001efc:	04 c7 40 40 	SW         R0,$64(SP)
 1001f00:	2c c7 40 44 	SW         R5,$68(SP)
 1001f04:	34 c7 40 48 	SW         R6,$72(SP)
 1001f08:	3c c7 40 4c 	SW         R7,$76(SP)
 1001f0c:	33 40 40 00 	MOV        R1,R6
 1001f10:	3b 40 80 00 	MOV        R2,R7
 1001f14:	0e 20 00 00 	LDI        $2097152,R1
 1001f18:	2c 84 40 00 	LW         (R1),R5
 1001f1c:	0b 43 40 00 	MOV        SP,R1
 1001f20:	03 43 c0 01 	JSR        0x01001e64     // 1001e64 <save_context>
 1001f24:	78 83 ff 3c 
 1001f28:	04 87 40 04 	LW         4(SP),R0
 1001f2c:	04 c5 c0 00 	SW         R0,(R7)
 1001f30:	04 87 40 38 	LW         56(SP),R0
 1001f34:	04 c5 c0 04 	SW         R0,$4(R7)
 1001f38:	04 87 40 3c 	LW         60(SP),R0
 1001f3c:	04 c5 c0 08 	SW         R0,$8(R7)
 1001f40:	0a 00 00 80 	LDI        0x01003a80,R1  // 1003a80 <entry+0x18ac>
 1001f44:	0a 40 3a 80 
 1001f48:	03 43 c0 01 	JSR        0x01001120     // 1001120 <txstr>
 1001f4c:	78 83 f1 d0 
 1001f50:	0a 00 00 80 	LDI        0x01003a8c,R1  // 1003a8c <entry+0x18b8>
 1001f54:	0a 40 3a 8c 
 1001f58:	03 43 c0 01 	JSR        0x01001120     // 1001120 <txstr>
 1001f5c:	78 83 f1 c0 
 1001f60:	0b 41 80 00 	MOV        R6,R1
 1001f64:	03 43 c0 01 	JSR        0x01001164     // 1001164 <txhex>
 1001f68:	78 83 f1 f8 
 1001f6c:	0a 00 00 80 	LDI        0x01003a98,R1  // 1003a98 <entry+0x18c4>
 1001f70:	0a 40 3a 98 
 1001f74:	03 43 c0 01 	JSR        0x01001120     // 1001120 <txstr>
 1001f78:	78 83 f1 a4 
 1001f7c:	0b 41 40 00 	MOV        R5,R1
 1001f80:	03 43 c0 01 	JSR        0x01001164     // 1001164 <txhex>
 1001f84:	78 83 f1 dc 
 1001f88:	0a 00 00 80 	LDI        0x01003aa0,R1  // 1003aa0 <entry+0x18cc>
 1001f8c:	0a 40 3a a0 
 1001f90:	03 43 c0 01 	JSR        0x01001120     // 1001120 <txstr>
 1001f94:	78 83 f1 88 
 1001f98:	0a 00 00 80 	LDI        0x01003aa8,R1  // 1003aa8 <entry+0x18d4>
 1001f9c:	0a 40 3a a8 
 1001fa0:	03 43 c0 01 	JSR        0x01001120     // 1001120 <txstr>
 1001fa4:	78 83 f1 78 
 1001fa8:	14 87 40 00 	LW         (SP),R2
 1001fac:	0a 00 00 80 	LDI        0x01003ab8,R1  // 1003ab8 <entry+0x18e4>
 1001fb0:	0a 40 3a b8 
 1001fb4:	03 43 c0 01 	JSR        0x01001e18     // 1001e18 <txreg>
 1001fb8:	78 83 fe 5c 
 1001fbc:	14 87 40 04 	LW         4(SP),R2
 1001fc0:	0a 00 00 80 	LDI        0x01003ac0,R1  // 1003ac0 <entry+0x18ec>
 1001fc4:	0a 40 3a c0 
 1001fc8:	03 43 c0 01 	JSR        0x01001e18     // 1001e18 <txreg>
 1001fcc:	78 83 fe 48 
 1001fd0:	14 87 40 08 	LW         8(SP),R2
 1001fd4:	0a 00 00 80 	LDI        0x01003ac8,R1  // 1003ac8 <entry+0x18f4>
 1001fd8:	0a 40 3a c8 
 1001fdc:	03 43 c0 01 	JSR        0x01001e18     // 1001e18 <txreg>
 1001fe0:	78 83 fe 34 
 1001fe4:	14 87 40 0c 	LW         12(SP),R2
 1001fe8:	0a 00 00 80 	LDI        0x01003ad0,R1  // 1003ad0 <entry+0x18fc>
 1001fec:	0a 40 3a d0 
 1001ff0:	03 43 c0 01 	JSR        0x01001e18     // 1001e18 <txreg>
 1001ff4:	78 83 fe 20 
 1001ff8:	0a 00 00 80 	LDI        0x01003d78,R1  // 1003d78 <entry+0x1ba4>
 1001ffc:	0a 40 3d 78 
 1002000:	03 43 c0 01 	JSR        0x01001120     // 1001120 <txstr>
 1002004:	78 83 f1 18 
 1002008:	14 87 40 10 	LW         16(SP),R2
 100200c:	0a 00 00 80 	LDI        0x01003ad8,R1  // 1003ad8 <entry+0x1904>
 1002010:	0a 40 3a d8 
 1002014:	03 43 c0 01 	JSR        0x01001e18     // 1001e18 <txreg>
 1002018:	78 83 fd fc 
 100201c:	14 87 40 14 	LW         20(SP),R2
 1002020:	0a 00 00 80 	LDI        0x01003ae0,R1  // 1003ae0 <entry+0x190c>
 1002024:	0a 40 3a e0 
 1002028:	03 43 c0 01 	JSR        0x01001e18     // 1001e18 <txreg>
 100202c:	78 83 fd e8 
 1002030:	14 87 40 18 	LW         24(SP),R2
 1002034:	0a 00 00 80 	LDI        0x01003ae8,R1  // 1003ae8 <entry+0x1914>
 1002038:	0a 40 3a e8 
 100203c:	03 43 c0 01 	JSR        0x01001e18     // 1001e18 <txreg>
 1002040:	78 83 fd d4 
 1002044:	14 87 40 1c 	LW         28(SP),R2
 1002048:	0a 00 00 80 	LDI        0x01003af0,R1  // 1003af0 <entry+0x191c>
 100204c:	0a 40 3a f0 
 1002050:	03 43 c0 01 	JSR        0x01001e18     // 1001e18 <txreg>
 1002054:	78 83 fd c0 
 1002058:	0a 00 00 80 	LDI        0x01003d78,R1  // 1003d78 <entry+0x1ba4>
 100205c:	0a 40 3d 78 
 1002060:	03 43 c0 01 	JSR        0x01001120     // 1001120 <txstr>
 1002064:	78 83 f0 b8 
 1002068:	14 87 40 20 	LW         32(SP),R2
 100206c:	0a 00 00 80 	LDI        0x01003af8,R1  // 1003af8 <entry+0x1924>
 1002070:	0a 40 3a f8 
 1002074:	03 43 c0 01 	JSR        0x01001e18     // 1001e18 <txreg>
 1002078:	78 83 fd 9c 
 100207c:	14 87 40 24 	LW         36(SP),R2
 1002080:	0a 00 00 80 	LDI        0x01003b00,R1  // 1003b00 <entry+0x192c>
 1002084:	0a 40 3b 00 
 1002088:	03 43 c0 01 	JSR        0x01001e18     // 1001e18 <txreg>
 100208c:	78 83 fd 88 
 1002090:	14 87 40 28 	LW         40(SP),R2
 1002094:	0a 00 00 80 	LDI        0x01003b08,R1  // 1003b08 <entry+0x1934>
 1002098:	0a 40 3b 08 
 100209c:	03 43 c0 01 	JSR        0x01001e18     // 1001e18 <txreg>
 10020a0:	78 83 fd 74 
 10020a4:	14 87 40 2c 	LW         44(SP),R2
 10020a8:	0a 00 00 80 	LDI        0x01003b10,R1  // 1003b10 <entry+0x193c>
 10020ac:	0a 40 3b 10 
 10020b0:	03 43 c0 01 	JSR        0x01001e18     // 1001e18 <txreg>
 10020b4:	78 83 fd 60 
 10020b8:	0a 00 00 80 	LDI        0x01003d78,R1  // 1003d78 <entry+0x1ba4>
 10020bc:	0a 40 3d 78 
 10020c0:	03 43 c0 01 	JSR        0x01001120     // 1001120 <txstr>
 10020c4:	78 83 f0 58 
 10020c8:	14 87 40 30 	LW         48(SP),R2
 10020cc:	0a 00 00 80 	LDI        0x01003b18,R1  // 1003b18 <entry+0x1944>
 10020d0:	0a 40 3b 18 
 10020d4:	03 43 c0 01 	JSR        0x01001e18     // 1001e18 <txreg>
 10020d8:	78 83 fd 3c 
 10020dc:	14 87 40 34 	LW         52(SP),R2
 10020e0:	0a 00 00 80 	LDI        0x01003b20,R1  // 1003b20 <entry+0x194c>
 10020e4:	0a 40 3b 20 
 10020e8:	03 43 c0 01 	JSR        0x01001e18     // 1001e18 <txreg>
 10020ec:	78 83 fd 28 
 10020f0:	14 87 40 38 	LW         56(SP),R2
 10020f4:	0a 00 00 80 	LDI        0x01003b28,R1  // 1003b28 <entry+0x1954>
 10020f8:	0a 40 3b 28 
 10020fc:	03 43 c0 01 	JSR        0x01001e18     // 1001e18 <txreg>
 1002100:	78 83 fd 14 
 1002104:	14 87 40 3c 	LW         60(SP),R2
 1002108:	0a 00 00 80 	LDI        0x01003b30,R1  // 1003b30 <entry+0x195c>
 100210c:	0a 40 3b 30 
 1002110:	03 43 c0 01 	JSR        0x01001e18     // 1001e18 <txreg>
 1002114:	78 83 fd 00 
 1002118:	0a 00 00 80 	LDI        0x01003aa0,R1  // 1003aa0 <entry+0x18cc>
 100211c:	0a 40 3a a0 
 1002120:	03 43 c0 01 	JSR        0x01001120     // 1001120 <txstr>
 1002124:	78 83 ef f8 
 1002128:	12 00 06 00 	BREV       $1536,R2
 100212c:	0c 84 80 0c 	LW         12(R2),R1
 1002130:	08 40 01 00 	AND        $256,R1
 1002134:	78 ab ff f4 	BNZ        @0x0100212c    // 100212c <test_fails+0x234>
 1002138:	7f c0 01 ff 	NEXIT      $-1
 100213c:	70 c0 00 10 	HALT
 1002140:	78 83 ff f8 	BRA        @0x0100213c    // 100213c <test_fails+0x244>

01002144 <testid>:
 1002144:	68 00 00 08 	SUB        $8,SP
 1002148:	04 c7 40 00 	SW         R0,(SP)
 100214c:	2c c7 40 04 	SW         R5,$4(SP)
 1002150:	2b 40 40 00 	MOV        R1,R5
 1002154:	03 43 c0 01 	JSR        0x01001120     // 1001120 <txstr>
 1002158:	78 83 ef c4 
 100215c:	0b 41 40 00 	MOV        R5,R1
 1002160:	08 80 00 01 	ADD        $1,R1
 1002164:	15 85 40 00 	LB         (R5),R2
 1002168:	14 00 00 00 	CMP        $0,R2
 100216c:	78 88 00 34 	BZ         @0x010021a4    // 10021a4 <testid+0x60>
 1002170:	1b 40 40 00 	MOV        R1,R3
 1002174:	18 05 40 00 	SUB        R5,R3
 1002178:	08 80 00 01 	ADD        $1,R1
 100217c:	15 84 7f ff 	LB         -1(R1),R2
 1002180:	14 00 00 00 	CMP        $0,R2
 1002184:	78 ab ff e8 	BNZ        @0x01002170    // 1002170 <testid+0x2c>
 1002188:	2e 00 00 1f 	LDI        $31,R5
 100218c:	28 04 c0 00 	SUB        R3,R5
 1002190:	0e 00 00 20 	LDI        $32,R1
 1002194:	08 04 c0 00 	SUB        R3,R1
 1002198:	0c 00 00 01 	CMP        $1,R1
 100219c:	78 b0 00 08 	BGE        @0x010021a8    // 10021a8 <testid+0x64>
 10021a0:	78 80 00 20 	BRA        @0x010021c4    // 10021c4 <testid+0x80>
 10021a4:	2e 00 00 1f 	LDI        $31,R5
 10021a8:	03 43 c0 01 	JSR        0x01001054     // 1001054 <txchr.constprop.3>
 10021ac:	78 83 ee a4 
 10021b0:	28 83 ff ff 	ADD        $-1,R5
 10021b4:	0b 41 40 00 	MOV        R5,R1
 10021b8:	08 80 00 01 	ADD        $1,R1
 10021bc:	0c 00 00 01 	CMP        $1,R1
 10021c0:	78 b3 ff e4 	BGE        @0x010021a8    // 10021a8 <testid+0x64>
 10021c4:	04 87 40 00 	LW         (SP),R0
 10021c8:	2c 87 40 04 	LW         4(SP),R5
 10021cc:	68 80 00 08 	ADD        $8,SP
 10021d0:	7b 40 00 00 	RTN

010021d4 <entry>:
 10021d4:	68 00 04 5c 	SUB        $1116,SP
 10021d8:	04 c7 44 40 	SW         R0,$1088(SP)
 10021dc:	2c c7 44 44 	SW         R5,$1092(SP)
 10021e0:	34 c7 44 48 	SW         R6,$1096(SP)
 10021e4:	3c c7 44 4c 	SW         R7,$1100(SP)
 10021e8:	44 c7 44 50 	SW         R8,$1104(SP)
 10021ec:	4c c7 44 54 	SW         R9,$1108(SP)
 10021f0:	54 c7 44 58 	SW         R10,$1112(SP)
 10021f4:	32 00 00 80 	LDI        0x01003e14,R6  // 1003e14 <testlist>
 10021f8:	32 40 3e 14 
 10021fc:	0b 41 80 00 	MOV        R6,R1
 1002200:	13 41 80 80 	MOV        $128+R6,R2
 1002204:	06 7f ff ff 	LDI        $-1,R0
 1002208:	04 c4 40 00 	SW         R0,(R1)
 100220c:	08 80 00 04 	ADD        $4,R1
 1002210:	14 04 40 00 	CMP        R1,R2
 1002214:	78 ab ff ec 	BNZ        @0x01002204    // 1002204 <entry+0x30>
 1002218:	0e 20 00 00 	LDI        $2097152,R1
 100221c:	02 03 ff fe 	BREV       $-2,R0
 1002220:	04 c4 40 00 	SW         R0,(R1)
 1002224:	0a 00 00 80 	LDI        0x01003d78,R1  // 1003d78 <entry+0x1ba4>
 1002228:	0a 40 3d 78 
 100222c:	03 43 c0 01 	JSR        0x01001120     // 1001120 <txstr>
 1002230:	78 83 ee ec 
 1002234:	0a 00 00 80 	LDI        0x01003d1c,R1  // 1003d1c <entry+0x1b48>
 1002238:	0a 40 3d 1c 
 100223c:	03 43 c0 01 	JSR        0x01001120     // 1001120 <txstr>
 1002240:	78 83 ee dc 
 1002244:	0a 00 00 80 	LDI        0x01003d34,R1  // 1003d34 <entry+0x1b60>
 1002248:	0a 40 3d 34 
 100224c:	03 43 c0 01 	JSR        0x01001120     // 1001120 <txstr>
 1002250:	78 83 ee cc 
 1002254:	0a 00 00 80 	LDI        0x01003b38,R1  // 1003b38 <entry+0x1964>
 1002258:	0a 40 3b 38 
 100225c:	03 43 c0 01 	JSR        0x01001120     // 1001120 <txstr>
 1002260:	78 83 ee bc 
 1002264:	0a 00 00 80 	LDI        0x01003b39,R1  // 1003b39 <entry+0x1965>
 1002268:	0a 40 3b 39 
 100226c:	16 00 00 00 	CLR        R2
 1002270:	10 80 00 01 	ADD        $1,R2
 1002274:	08 80 00 01 	ADD        $1,R1
 1002278:	1d 84 7f ff 	LB         -1(R1),R3
 100227c:	1c 00 00 00 	CMP        $0,R3
 1002280:	78 ab ff ec 	BNZ        @0x01002270    // 1002270 <entry+0x9c>
 1002284:	2e 00 00 1f 	LDI        $31,R5
 1002288:	28 04 80 00 	SUB        R2,R5
 100228c:	0e 00 00 20 	LDI        $32,R1
 1002290:	08 04 80 00 	SUB        R2,R1
 1002294:	0c 00 00 01 	CMP        $1,R1
 1002298:	78 b0 00 28 	BGE        @0x010022c4    // 10022c4 <entry+0xf0>
 100229c:	0e 20 00 00 	LDI        $2097152,R1
 10022a0:	2c 84 40 00 	LW         (R1),R5
 10022a4:	13 43 44 40 	MOV        $1088+SP,R2
 10022a8:	0b 43 d9 62 	MOV        0x01000834,R1  // 1000834 <sim_test>
 10022ac:	03 43 c0 01 	JSR        0x01000050     // 1000050 <run_test>
 10022b0:	78 83 dd 9c 
 10022b4:	43 40 40 00 	MOV        R1,R8
 10022b8:	0c 00 00 00 	CMP        $0,R1
 10022bc:	78 88 00 38 	BZ         @0x010022f8    // 10022f8 <entry+0x124>
 10022c0:	78 80 00 20 	BRA        @0x010022e4    // 10022e4 <entry+0x110>
 10022c4:	03 43 c0 01 	JSR        0x01001054     // 1001054 <txchr.constprop.3>
 10022c8:	78 83 ed 88 
 10022cc:	28 83 ff ff 	ADD        $-1,R5
 10022d0:	0b 41 40 00 	MOV        R5,R1
 10022d4:	08 80 00 01 	ADD        $1,R1
 10022d8:	0c 00 00 01 	CMP        $1,R1
 10022dc:	78 b3 ff e4 	BGE        @0x010022c4    // 10022c4 <entry+0xf0>
 10022e0:	78 83 ff b8 	BRA        @0x0100229c    // 100229c <entry+0xc8>
 10022e4:	12 00 00 80 	LDI        0x01003e14,R2  // 1003e14 <testlist>
 10022e8:	12 40 3e 14 
 10022ec:	0b 41 40 00 	MOV        R5,R1
 10022f0:	03 43 c0 01 	JSR        0x01001ef8     // 1001ef8 <test_fails>
 10022f4:	78 83 fc 00 
 10022f8:	0b 43 a0 00 	MOV        uCC,R1
 10022fc:	08 40 9c 50 	AND        $40016,R1
 1002300:	78 ab ff e0 	BNZ        @0x010022e4    // 10022e4 <entry+0x110>
 1002304:	0b 43 a0 00 	MOV        uCC,R1
 1002308:	08 40 01 00 	AND        $256,R1
 100230c:	78 88 00 1c 	BZ         @0x0100232c    // 100232c <entry+0x158>
 1002310:	0a 00 00 80 	LDI        0x01003d5c,R1  // 1003d5c <entry+0x1b88>
 1002314:	0a 40 3d 5c 
 1002318:	03 43 c0 01 	JSR        0x01001120     // 1001120 <txstr>
 100231c:	78 83 ee 00 
 1002320:	44 c5 80 00 	SW         R8,(R6)
 1002324:	3e 00 00 01 	LDI        $1,R7
 1002328:	78 80 00 14 	BRA        @0x01002340    // 1002340 <entry+0x16c>
 100232c:	0a 00 00 80 	LDI        0x01003d64,R1  // 1003d64 <entry+0x1b90>
 1002330:	0a 40 3d 64 
 1002334:	03 43 c0 01 	JSR        0x01001120     // 1001120 <txstr>
 1002338:	78 83 ed e4 
 100233c:	3b 42 00 00 	MOV        R8,R7
 1002340:	0a 00 00 80 	LDI        0x01003b4c,R1  // 1003b4c <entry+0x1978>
 1002344:	0a 40 3b 4c 
 1002348:	03 43 c0 01 	JSR        0x01001120     // 1001120 <txstr>
 100234c:	78 83 ed d0 
 1002350:	0a 00 00 80 	LDI        0x01003b4d,R1  // 1003b4d <entry+0x1979>
 1002354:	0a 40 3b 4d 
 1002358:	40 80 00 01 	ADD        $1,R8
 100235c:	08 80 00 01 	ADD        $1,R1
 1002360:	15 84 7f ff 	LB         -1(R1),R2
 1002364:	14 00 00 00 	CMP        $0,R2
 1002368:	78 ab ff ec 	BNZ        @0x01002358    // 1002358 <entry+0x184>
 100236c:	2e 00 00 1f 	LDI        $31,R5
 1002370:	28 06 00 00 	SUB        R8,R5
 1002374:	0e 00 00 20 	LDI        $32,R1
 1002378:	08 06 00 00 	SUB        R8,R1
 100237c:	0c 00 00 01 	CMP        $1,R1
 1002380:	78 b0 00 28 	BGE        @0x010023ac    // 10023ac <entry+0x1d8>
 1002384:	0e 20 00 00 	LDI        $2097152,R1
 1002388:	2c 84 40 00 	LW         (R1),R5
 100238c:	13 43 44 40 	MOV        $1088+SP,R2
 1002390:	0b 43 d9 2a 	MOV        0x0100083c,R1  // 100083c <cis_test>
 1002394:	03 43 c0 01 	JSR        0x01000050     // 1000050 <run_test>
 1002398:	78 83 dc b4 
 100239c:	43 40 40 00 	MOV        R1,R8
 10023a0:	0c 00 00 00 	CMP        $0,R1
 10023a4:	78 88 00 3c 	BZ         @0x010023e4    // 10023e4 <entry+0x210>
 10023a8:	78 80 00 20 	BRA        @0x010023cc    // 10023cc <entry+0x1f8>
 10023ac:	03 43 c0 01 	JSR        0x01001054     // 1001054 <txchr.constprop.3>
 10023b0:	78 83 ec a0 
 10023b4:	28 83 ff ff 	ADD        $-1,R5
 10023b8:	0b 41 40 00 	MOV        R5,R1
 10023bc:	08 80 00 01 	ADD        $1,R1
 10023c0:	0c 00 00 01 	CMP        $1,R1
 10023c4:	78 b3 ff e4 	BGE        @0x010023ac    // 10023ac <entry+0x1d8>
 10023c8:	78 83 ff b8 	BRA        @0x01002384    // 1002384 <entry+0x1b0>
 10023cc:	39 80 00 02 	LSL        $2,R7
 10023d0:	13 41 80 00 	MOV        R6,R2
 10023d4:	10 85 c0 00 	ADD        R7,R2
 10023d8:	0b 41 40 00 	MOV        R5,R1
 10023dc:	03 43 c0 01 	JSR        0x01001ef8     // 1001ef8 <test_fails>
 10023e0:	78 83 fb 14 
 10023e4:	0b 43 a0 00 	MOV        uCC,R1
 10023e8:	08 40 9c 50 	AND        $40016,R1
 10023ec:	78 ab ff dc 	BNZ        @0x010023cc    // 10023cc <entry+0x1f8>
 10023f0:	0b 43 a0 00 	MOV        uCC,R1
 10023f4:	08 40 01 00 	AND        $256,R1
 10023f8:	0a 28 00 80 	LDI.NZ     0x01003d7c,R1  // 1003d7c <entry+0x1ba8>
 10023fc:	0a 68 3d 7c 
 1002400:	0a 08 00 80 	LDI.Z      0x01003d8c,R1  // 1003d8c <entry+0x1bb8>
 1002404:	0a 48 3d 8c 
 1002408:	03 43 c0 01 	JSR        0x01001120     // 1001120 <txstr>
 100240c:	78 83 ed 10 
 1002410:	0a 00 00 80 	LDI        0x01003b60,R1  // 1003b60 <entry+0x198c>
 1002414:	0a 40 3b 60 
 1002418:	03 43 c0 01 	JSR        0x01001120     // 1001120 <txstr>
 100241c:	78 83 ed 00 
 1002420:	0a 00 00 80 	LDI        0x01003b61,R1  // 1003b61 <entry+0x198d>
 1002424:	0a 40 3b 61 
 1002428:	40 80 00 01 	ADD        $1,R8
 100242c:	08 80 00 01 	ADD        $1,R1
 1002430:	15 84 7f ff 	LB         -1(R1),R2
 1002434:	14 00 00 00 	CMP        $0,R2
 1002438:	78 ab ff ec 	BNZ        @0x01002428    // 1002428 <entry+0x254>
 100243c:	2e 00 00 1f 	LDI        $31,R5
 1002440:	28 06 00 00 	SUB        R8,R5
 1002444:	0e 00 00 20 	LDI        $32,R1
 1002448:	08 06 00 00 	SUB        R8,R1
 100244c:	0c 00 00 01 	CMP        $1,R1
 1002450:	78 b0 00 28 	BGE        @0x0100247c    // 100247c <entry+0x2a8>
 1002454:	0e 20 00 00 	LDI        $2097152,R1
 1002458:	2c 84 40 00 	LW         (R1),R5
 100245c:	13 43 44 40 	MOV        $1088+SP,R2
 1002460:	0b 43 d7 29 	MOV        0x01000108,R1  // 1000108 <break_one>
 1002464:	03 43 c0 01 	JSR        0x01000050     // 1000050 <run_test>
 1002468:	78 83 db e4 
 100246c:	43 40 40 00 	MOV        R1,R8
 1002470:	0c 00 00 00 	CMP        $0,R1
 1002474:	78 88 00 3c 	BZ         @0x010024b4    // 10024b4 <entry+0x2e0>
 1002478:	78 80 00 20 	BRA        @0x0100249c    // 100249c <entry+0x2c8>
 100247c:	03 43 c0 01 	JSR        0x01001054     // 1001054 <txchr.constprop.3>
 1002480:	78 83 eb d0 
 1002484:	28 83 ff ff 	ADD        $-1,R5
 1002488:	0b 41 40 00 	MOV        R5,R1
 100248c:	08 80 00 01 	ADD        $1,R1
 1002490:	0c 00 00 01 	CMP        $1,R1
 1002494:	78 b3 ff e4 	BGE        @0x0100247c    // 100247c <entry+0x2a8>
 1002498:	78 83 ff b8 	BRA        @0x01002454    // 1002454 <entry+0x280>
 100249c:	39 80 00 02 	LSL        $2,R7
 10024a0:	13 41 80 00 	MOV        R6,R2
 10024a4:	10 85 c0 00 	ADD        R7,R2
 10024a8:	0b 41 40 00 	MOV        R5,R1
 10024ac:	03 43 c0 01 	JSR        0x01001ef8     // 1001ef8 <test_fails>
 10024b0:	78 83 fa 44 
 10024b4:	0b 43 a0 00 	MOV        uCC,R1
 10024b8:	08 40 9f 50 	AND        $40784,R1
 10024bc:	78 ab ff dc 	BNZ        @0x0100249c    // 100249c <entry+0x2c8>
 10024c0:	0b 43 40 00 	MOV        SP,R1
 10024c4:	03 43 c0 01 	JSR        0x01001e64     // 1001e64 <save_context>
 10024c8:	78 83 f9 98 
 10024cc:	14 87 40 3c 	LW         60(SP),R2
 10024d0:	0b 43 d7 0e 	MOV        0x0100010c,R1  // 100010c <break_one+0x4>
 10024d4:	14 04 40 00 	CMP        R1,R2
 10024d8:	78 88 00 18 	BZ         @0x010024f4    // 10024f4 <entry+0x320>
 10024dc:	39 80 00 02 	LSL        $2,R7
 10024e0:	13 41 80 00 	MOV        R6,R2
 10024e4:	10 85 c0 00 	ADD        R7,R2
 10024e8:	0b 41 40 00 	MOV        R5,R1
 10024ec:	03 43 c0 01 	JSR        0x01001ef8     // 1001ef8 <test_fails>
 10024f0:	78 83 fa 04 
 10024f4:	0b 43 a0 00 	MOV        uCC,R1
 10024f8:	08 40 00 80 	AND        $128,R1
 10024fc:	78 8b ff dc 	BZ         @0x010024dc    // 10024dc <entry+0x308>
 1002500:	0a 00 00 80 	LDI        0x01003d5c,R1  // 1003d5c <entry+0x1b88>
 1002504:	0a 40 3d 5c 
 1002508:	03 43 c0 01 	JSR        0x01001120     // 1001120 <txstr>
 100250c:	78 83 ec 10 
 1002510:	4b 41 c0 00 	MOV        R7,R9
 1002514:	48 80 00 01 	ADD        $1,R9
 1002518:	0b 41 c0 00 	MOV        R7,R1
 100251c:	09 80 00 02 	LSL        $2,R1
 1002520:	03 41 80 00 	MOV        R6,R0
 1002524:	00 84 40 00 	ADD        R1,R0
 1002528:	44 c4 00 00 	SW         R8,(R0)
 100252c:	0a 00 00 80 	LDI        0x01003b70,R1  // 1003b70 <entry+0x199c>
 1002530:	0a 40 3b 70 
 1002534:	03 43 c0 01 	JSR        0x01001120     // 1001120 <txstr>
 1002538:	78 83 eb e4 
 100253c:	0a 00 00 80 	LDI        0x01003b71,R1  // 1003b71 <entry+0x199d>
 1002540:	0a 40 3b 71 
 1002544:	40 80 00 01 	ADD        $1,R8
 1002548:	08 80 00 01 	ADD        $1,R1
 100254c:	15 84 7f ff 	LB         -1(R1),R2
 1002550:	14 00 00 00 	CMP        $0,R2
 1002554:	78 ab ff ec 	BNZ        @0x01002544    // 1002544 <entry+0x370>
 1002558:	2e 00 00 1f 	LDI        $31,R5
 100255c:	28 06 00 00 	SUB        R8,R5
 1002560:	0e 00 00 20 	LDI        $32,R1
 1002564:	08 06 00 00 	SUB        R8,R1
 1002568:	0c 00 00 01 	CMP        $1,R1
 100256c:	78 b0 00 28 	BGE        @0x01002598    // 1002598 <entry+0x3c4>
 1002570:	0e 20 00 00 	LDI        $2097152,R1
 1002574:	2c 84 40 00 	LW         (R1),R5
 1002578:	13 43 44 40 	MOV        $1088+SP,R2
 100257c:	0b 43 d6 e6 	MOV        0x01000118,R1  // 1000118 <break_two>
 1002580:	03 43 c0 01 	JSR        0x01000050     // 1000050 <run_test>
 1002584:	78 83 da c8 
 1002588:	43 40 40 00 	MOV        R1,R8
 100258c:	0c 00 00 00 	CMP        $0,R1
 1002590:	78 88 00 3c 	BZ         @0x010025d0    // 10025d0 <entry+0x3fc>
 1002594:	78 80 00 20 	BRA        @0x010025b8    // 10025b8 <entry+0x3e4>
 1002598:	03 43 c0 01 	JSR        0x01001054     // 1001054 <txchr.constprop.3>
 100259c:	78 83 ea b4 
 10025a0:	28 83 ff ff 	ADD        $-1,R5
 10025a4:	0b 41 40 00 	MOV        R5,R1
 10025a8:	08 80 00 01 	ADD        $1,R1
 10025ac:	0c 00 00 01 	CMP        $1,R1
 10025b0:	78 b3 ff e4 	BGE        @0x01002598    // 1002598 <entry+0x3c4>
 10025b4:	78 83 ff b8 	BRA        @0x01002570    // 1002570 <entry+0x39c>
 10025b8:	49 80 00 02 	LSL        $2,R9
 10025bc:	13 41 80 00 	MOV        R6,R2
 10025c0:	10 86 40 00 	ADD        R9,R2
 10025c4:	0b 41 40 00 	MOV        R5,R1
 10025c8:	03 43 c0 01 	JSR        0x01001ef8     // 1001ef8 <test_fails>
 10025cc:	78 83 f9 28 
 10025d0:	0b 43 a0 00 	MOV        uCC,R1
 10025d4:	08 40 9d d0 	AND        $40400,R1
 10025d8:	78 ab ff dc 	BNZ        @0x010025b8    // 10025b8 <entry+0x3e4>
 10025dc:	0a 00 00 80 	LDI        0x01003d5c,R1  // 1003d5c <entry+0x1b88>
 10025e0:	0a 40 3d 5c 
 10025e4:	03 43 c0 01 	JSR        0x01001120     // 1001120 <txstr>
 10025e8:	78 83 eb 34 
 10025ec:	53 41 c0 00 	MOV        R7,R10
 10025f0:	50 80 00 02 	ADD        $2,R10
 10025f4:	49 80 00 02 	LSL        $2,R9
 10025f8:	0b 41 80 00 	MOV        R6,R1
 10025fc:	08 86 40 00 	ADD        R9,R1
 1002600:	44 c4 40 00 	SW         R8,(R1)
 1002604:	0a 00 00 80 	LDI        0x01003b80,R1  // 1003b80 <entry+0x19ac>
 1002608:	0a 40 3b 80 
 100260c:	03 43 c0 01 	JSR        0x01001120     // 1001120 <txstr>
 1002610:	78 83 eb 0c 
 1002614:	13 42 00 00 	MOV        R8,R2
 1002618:	0a 00 00 80 	LDI        0x01003b81,R1  // 1003b81 <entry+0x19ad>
 100261c:	0a 40 3b 81 
 1002620:	10 80 00 01 	ADD        $1,R2
 1002624:	08 80 00 01 	ADD        $1,R1
 1002628:	1d 84 7f ff 	LB         -1(R1),R3
 100262c:	1c 00 00 00 	CMP        $0,R3
 1002630:	78 ab ff ec 	BNZ        @0x01002620    // 1002620 <entry+0x44c>
 1002634:	2e 00 00 1f 	LDI        $31,R5
 1002638:	28 04 80 00 	SUB        R2,R5
 100263c:	0e 00 00 20 	LDI        $32,R1
 1002640:	08 04 80 00 	SUB        R2,R1
 1002644:	0c 00 00 01 	CMP        $1,R1
 1002648:	78 b0 00 38 	BGE        @0x01002684    // 1002684 <entry+0x4b0>
 100264c:	0e 20 00 00 	LDI        $2097152,R1
 1002650:	4c 84 40 00 	LW         (R1),R9
 1002654:	13 43 44 40 	MOV        $1088+SP,R2
 1002658:	0b 43 d6 b2 	MOV        0x01000124,R1  // 1000124 <break_three>
 100265c:	03 43 c0 01 	JSR        0x01000050     // 1000050 <run_test>
 1002660:	78 83 d9 ec 
 1002664:	0b 43 40 00 	MOV        SP,R1
 1002668:	03 43 c0 01 	JSR        0x01001e64     // 1001e64 <save_context>
 100266c:	78 83 f7 f4 
 1002670:	0b 43 d6 ac 	MOV        0x01000124,R1  // 1000124 <break_three>
 1002674:	14 87 40 3c 	LW         60(SP),R2
 1002678:	14 04 40 00 	CMP        R1,R2
 100267c:	78 88 00 3c 	BZ         @0x010026bc    // 10026bc <entry+0x4e8>
 1002680:	78 80 00 20 	BRA        @0x010026a4    // 10026a4 <entry+0x4d0>
 1002684:	03 43 c0 01 	JSR        0x01001054     // 1001054 <txchr.constprop.3>
 1002688:	78 83 e9 c8 
 100268c:	28 83 ff ff 	ADD        $-1,R5
 1002690:	0b 41 40 00 	MOV        R5,R1
 1002694:	08 80 00 01 	ADD        $1,R1
 1002698:	0c 00 00 01 	CMP        $1,R1
 100269c:	78 b3 ff e4 	BGE        @0x01002684    // 1002684 <entry+0x4b0>
 10026a0:	78 83 ff a8 	BRA        @0x0100264c    // 100264c <entry+0x478>
 10026a4:	51 80 00 02 	LSL        $2,R10
 10026a8:	13 41 80 00 	MOV        R6,R2
 10026ac:	10 86 80 00 	ADD        R10,R2
 10026b0:	0b 42 40 00 	MOV        R9,R1
 10026b4:	03 43 c0 01 	JSR        0x01001ef8     // 1001ef8 <test_fails>
 10026b8:	78 83 f8 3c 
 10026bc:	0b 43 a0 00 	MOV        uCC,R1
 10026c0:	08 40 00 80 	AND        $128,R1
 10026c4:	78 8b ff dc 	BZ         @0x010026a4    // 10026a4 <entry+0x4d0>
 10026c8:	2b 43 a0 00 	MOV        uCC,R5
 10026cc:	28 40 9f 50 	AND        $40784,R5
 10026d0:	78 ab ff d0 	BNZ        @0x010026a4    // 10026a4 <entry+0x4d0>
 10026d4:	0a 00 00 80 	LDI        0x01003d5c,R1  // 1003d5c <entry+0x1b88>
 10026d8:	0a 40 3d 5c 
 10026dc:	03 43 c0 01 	JSR        0x01001120     // 1001120 <txstr>
 10026e0:	78 83 ea 3c 
 10026e4:	4b 41 c0 00 	MOV        R7,R9
 10026e8:	48 80 00 03 	ADD        $3,R9
 10026ec:	51 80 00 02 	LSL        $2,R10
 10026f0:	0b 41 80 00 	MOV        R6,R1
 10026f4:	08 86 80 00 	ADD        R10,R1
 10026f8:	2c c4 40 00 	SW         R5,(R1)
 10026fc:	0a 00 00 80 	LDI        0x01003b90,R1  // 1003b90 <entry+0x19bc>
 1002700:	0a 40 3b 90 
 1002704:	03 43 c0 01 	JSR        0x01001120     // 1001120 <txstr>
 1002708:	78 83 ea 14 
 100270c:	0a 00 00 80 	LDI        0x01003b91,R1  // 1003b91 <entry+0x19bd>
 1002710:	0a 40 3b 91 
 1002714:	40 80 00 01 	ADD        $1,R8
 1002718:	08 80 00 01 	ADD        $1,R1
 100271c:	15 84 7f ff 	LB         -1(R1),R2
 1002720:	14 00 00 00 	CMP        $0,R2
 1002724:	78 ab ff ec 	BNZ        @0x01002714    // 1002714 <entry+0x540>
 1002728:	2e 00 00 1f 	LDI        $31,R5
 100272c:	28 06 00 00 	SUB        R8,R5
 1002730:	0e 00 00 20 	LDI        $32,R1
 1002734:	08 06 00 00 	SUB        R8,R1
 1002738:	0c 00 00 01 	CMP        $1,R1
 100273c:	78 b0 00 28 	BGE        @0x01002768    // 1002768 <entry+0x594>
 1002740:	0e 20 00 00 	LDI        $2097152,R1
 1002744:	2c 84 40 00 	LW         (R1),R5
 1002748:	13 43 44 40 	MOV        $1088+SP,R2
 100274c:	0b 43 d6 76 	MOV        0x01000128,R1  // 1000128 <early_branch_test>
 1002750:	03 43 c0 01 	JSR        0x01000050     // 1000050 <run_test>
 1002754:	78 83 d8 f8 
 1002758:	53 40 40 00 	MOV        R1,R10
 100275c:	0c 00 00 00 	CMP        $0,R1
 1002760:	78 88 00 3c 	BZ         @0x010027a0    // 10027a0 <entry+0x5cc>
 1002764:	78 80 00 20 	BRA        @0x01002788    // 1002788 <entry+0x5b4>
 1002768:	03 43 c0 01 	JSR        0x01001054     // 1001054 <txchr.constprop.3>
 100276c:	78 83 e8 e4 
 1002770:	28 83 ff ff 	ADD        $-1,R5
 1002774:	0b 41 40 00 	MOV        R5,R1
 1002778:	08 80 00 01 	ADD        $1,R1
 100277c:	0c 00 00 01 	CMP        $1,R1
 1002780:	78 b3 ff e4 	BGE        @0x01002768    // 1002768 <entry+0x594>
 1002784:	78 83 ff b8 	BRA        @0x01002740    // 1002740 <entry+0x56c>
 1002788:	49 80 00 02 	LSL        $2,R9
 100278c:	13 41 80 00 	MOV        R6,R2
 1002790:	10 86 40 00 	ADD        R9,R2
 1002794:	0b 41 40 00 	MOV        R5,R1
 1002798:	03 43 c0 01 	JSR        0x01001ef8     // 1001ef8 <test_fails>
 100279c:	78 83 f7 58 
 10027a0:	0b 43 a0 00 	MOV        uCC,R1
 10027a4:	08 40 9d 80 	AND        $40320,R1
 10027a8:	78 ab ff dc 	BNZ        @0x01002788    // 1002788 <entry+0x5b4>
 10027ac:	0a 00 00 80 	LDI        0x01003d5c,R1  // 1003d5c <entry+0x1b88>
 10027b0:	0a 40 3d 5c 
 10027b4:	03 43 c0 01 	JSR        0x01001120     // 1001120 <txstr>
 10027b8:	78 83 e9 64 
 10027bc:	43 41 c0 00 	MOV        R7,R8
 10027c0:	40 80 00 04 	ADD        $4,R8
 10027c4:	49 80 00 02 	LSL        $2,R9
 10027c8:	0b 41 80 00 	MOV        R6,R1
 10027cc:	08 86 40 00 	ADD        R9,R1
 10027d0:	54 c4 40 00 	SW         R10,(R1)
 10027d4:	0a 00 00 80 	LDI        0x01003ba4,R1  // 1003ba4 <entry+0x19d0>
 10027d8:	0a 40 3b a4 
 10027dc:	03 43 c0 01 	JSR        0x01001120     // 1001120 <txstr>
 10027e0:	78 83 e9 3c 
 10027e4:	0a 00 00 80 	LDI        0x01003ba5,R1  // 1003ba5 <entry+0x19d1>
 10027e8:	0a 40 3b a5 
 10027ec:	50 80 00 01 	ADD        $1,R10
 10027f0:	08 80 00 01 	ADD        $1,R1
 10027f4:	15 84 7f ff 	LB         -1(R1),R2
 10027f8:	14 00 00 00 	CMP        $0,R2
 10027fc:	78 ab ff ec 	BNZ        @0x010027ec    // 10027ec <entry+0x618>
 1002800:	2e 00 00 1f 	LDI        $31,R5
 1002804:	28 06 80 00 	SUB        R10,R5
 1002808:	0e 00 00 20 	LDI        $32,R1
 100280c:	08 06 80 00 	SUB        R10,R1
 1002810:	0c 00 00 01 	CMP        $1,R1
 1002814:	78 b0 00 28 	BGE        @0x01002840    // 1002840 <entry+0x66c>
 1002818:	0e 20 00 00 	LDI        $2097152,R1
 100281c:	2c 84 40 00 	LW         (R1),R5
 1002820:	13 43 44 40 	MOV        $1088+SP,R2
 1002824:	0b 43 d6 63 	MOV        0x010001b4,R1  // 10001b4 <trap_test_and>
 1002828:	03 43 c0 01 	JSR        0x01000050     // 1000050 <run_test>
 100282c:	78 83 d8 20 
 1002830:	53 40 40 00 	MOV        R1,R10
 1002834:	0c 00 00 00 	CMP        $0,R1
 1002838:	78 88 00 3c 	BZ         @0x01002878    // 1002878 <entry+0x6a4>
 100283c:	78 80 00 20 	BRA        @0x01002860    // 1002860 <entry+0x68c>
 1002840:	03 43 c0 01 	JSR        0x01001054     // 1001054 <txchr.constprop.3>
 1002844:	78 83 e8 0c 
 1002848:	28 83 ff ff 	ADD        $-1,R5
 100284c:	0b 41 40 00 	MOV        R5,R1
 1002850:	08 80 00 01 	ADD        $1,R1
 1002854:	0c 00 00 01 	CMP        $1,R1
 1002858:	78 b3 ff e4 	BGE        @0x01002840    // 1002840 <entry+0x66c>
 100285c:	78 83 ff b8 	BRA        @0x01002818    // 1002818 <entry+0x644>
 1002860:	41 80 00 02 	LSL        $2,R8
 1002864:	13 41 80 00 	MOV        R6,R2
 1002868:	10 86 00 00 	ADD        R8,R2
 100286c:	0b 41 40 00 	MOV        R5,R1
 1002870:	03 43 c0 01 	JSR        0x01001ef8     // 1001ef8 <test_fails>
 1002874:	78 83 f6 80 
 1002878:	0b 43 a0 00 	MOV        uCC,R1
 100287c:	08 40 9d 80 	AND        $40320,R1
 1002880:	78 ab ff dc 	BNZ        @0x01002860    // 1002860 <entry+0x68c>
 1002884:	0b 43 a0 00 	MOV        uCC,R1
 1002888:	08 40 02 00 	AND        $512,R1
 100288c:	78 a8 00 18 	BNZ        @0x010028a8    // 10028a8 <entry+0x6d4>
 1002890:	41 80 00 02 	LSL        $2,R8
 1002894:	13 41 80 00 	MOV        R6,R2
 1002898:	10 86 00 00 	ADD        R8,R2
 100289c:	0b 41 40 00 	MOV        R5,R1
 10028a0:	03 43 c0 01 	JSR        0x01001ef8     // 1001ef8 <test_fails>
 10028a4:	78 83 f6 50 
 10028a8:	0a 00 00 80 	LDI        0x01003d5c,R1  // 1003d5c <entry+0x1b88>
 10028ac:	0a 40 3d 5c 
 10028b0:	03 43 c0 01 	JSR        0x01001120     // 1001120 <txstr>
 10028b4:	78 83 e8 68 
 10028b8:	4b 41 c0 00 	MOV        R7,R9
 10028bc:	48 80 00 05 	ADD        $5,R9
 10028c0:	41 80 00 02 	LSL        $2,R8
 10028c4:	0b 41 80 00 	MOV        R6,R1
 10028c8:	08 86 00 00 	ADD        R8,R1
 10028cc:	54 c4 40 00 	SW         R10,(R1)
 10028d0:	0a 00 00 80 	LDI        0x01003bb4,R1  // 1003bb4 <entry+0x19e0>
 10028d4:	0a 40 3b b4 
 10028d8:	03 43 c0 01 	JSR        0x01001120     // 1001120 <txstr>
 10028dc:	78 83 e8 40 
 10028e0:	0a 00 00 80 	LDI        0x01003bb5,R1  // 1003bb5 <entry+0x19e1>
 10028e4:	0a 40 3b b5 
 10028e8:	50 80 00 01 	ADD        $1,R10
 10028ec:	08 80 00 01 	ADD        $1,R1
 10028f0:	15 84 7f ff 	LB         -1(R1),R2
 10028f4:	14 00 00 00 	CMP        $0,R2
 10028f8:	78 ab ff ec 	BNZ        @0x010028e8    // 10028e8 <entry+0x714>
 10028fc:	2e 00 00 1f 	LDI        $31,R5
 1002900:	28 06 80 00 	SUB        R10,R5
 1002904:	0e 00 00 20 	LDI        $32,R1
 1002908:	08 06 80 00 	SUB        R10,R1
 100290c:	0c 00 00 01 	CMP        $1,R1
 1002910:	78 b0 00 28 	BGE        @0x0100293c    // 100293c <entry+0x768>
 1002914:	0e 20 00 00 	LDI        $2097152,R1
 1002918:	2c 84 40 00 	LW         (R1),R5
 100291c:	13 43 44 40 	MOV        $1088+SP,R2
 1002920:	0b 43 d6 28 	MOV        0x010001c4,R1  // 10001c4 <trap_test_clr>
 1002924:	03 43 c0 01 	JSR        0x01000050     // 1000050 <run_test>
 1002928:	78 83 d7 24 
 100292c:	43 40 40 00 	MOV        R1,R8
 1002930:	0c 00 00 00 	CMP        $0,R1
 1002934:	78 88 00 3c 	BZ         @0x01002974    // 1002974 <entry+0x7a0>
 1002938:	78 80 00 20 	BRA        @0x0100295c    // 100295c <entry+0x788>
 100293c:	03 43 c0 01 	JSR        0x01001054     // 1001054 <txchr.constprop.3>
 1002940:	78 83 e7 10 
 1002944:	28 83 ff ff 	ADD        $-1,R5
 1002948:	0b 41 40 00 	MOV        R5,R1
 100294c:	08 80 00 01 	ADD        $1,R1
 1002950:	0c 00 00 01 	CMP        $1,R1
 1002954:	78 b3 ff e4 	BGE        @0x0100293c    // 100293c <entry+0x768>
 1002958:	78 83 ff b8 	BRA        @0x01002914    // 1002914 <entry+0x740>
 100295c:	49 80 00 02 	LSL        $2,R9
 1002960:	13 41 80 00 	MOV        R6,R2
 1002964:	10 86 40 00 	ADD        R9,R2
 1002968:	0b 41 40 00 	MOV        R5,R1
 100296c:	03 43 c0 01 	JSR        0x01001ef8     // 1001ef8 <test_fails>
 1002970:	78 83 f5 84 
 1002974:	0b 43 a0 00 	MOV        uCC,R1
 1002978:	08 40 9d 80 	AND        $40320,R1
 100297c:	78 ab ff dc 	BNZ        @0x0100295c    // 100295c <entry+0x788>
 1002980:	0b 43 a0 00 	MOV        uCC,R1
 1002984:	08 40 02 00 	AND        $512,R1
 1002988:	78 a8 00 18 	BNZ        @0x010029a4    // 10029a4 <entry+0x7d0>
 100298c:	49 80 00 02 	LSL        $2,R9
 1002990:	13 41 80 00 	MOV        R6,R2
 1002994:	10 86 40 00 	ADD        R9,R2
 1002998:	0b 41 40 00 	MOV        R5,R1
 100299c:	03 43 c0 01 	JSR        0x01001ef8     // 1001ef8 <test_fails>
 10029a0:	78 83 f5 54 
 10029a4:	0a 00 00 80 	LDI        0x01003d5c,R1  // 1003d5c <entry+0x1b88>
 10029a8:	0a 40 3d 5c 
 10029ac:	03 43 c0 01 	JSR        0x01001120     // 1001120 <txstr>
 10029b0:	78 83 e7 6c 
 10029b4:	53 41 c0 00 	MOV        R7,R10
 10029b8:	50 80 00 06 	ADD        $6,R10
 10029bc:	49 80 00 02 	LSL        $2,R9
 10029c0:	0b 41 80 00 	MOV        R6,R1
 10029c4:	08 86 40 00 	ADD        R9,R1
 10029c8:	44 c4 40 00 	SW         R8,(R1)
 10029cc:	0a 00 00 80 	LDI        0x01003bc4,R1  // 1003bc4 <entry+0x19f0>
 10029d0:	0a 40 3b c4 
 10029d4:	03 43 c0 01 	JSR        0x01001120     // 1001120 <txstr>
 10029d8:	78 83 e7 44 
 10029dc:	0a 00 00 80 	LDI        0x01003bc5,R1  // 1003bc5 <entry+0x19f1>
 10029e0:	0a 40 3b c5 
 10029e4:	40 80 00 01 	ADD        $1,R8
 10029e8:	08 80 00 01 	ADD        $1,R1
 10029ec:	15 84 7f ff 	LB         -1(R1),R2
 10029f0:	14 00 00 00 	CMP        $0,R2
 10029f4:	78 ab ff ec 	BNZ        @0x010029e4    // 10029e4 <entry+0x810>
 10029f8:	2e 00 00 1f 	LDI        $31,R5
 10029fc:	28 06 00 00 	SUB        R8,R5
 1002a00:	0e 00 00 20 	LDI        $32,R1
 1002a04:	08 06 00 00 	SUB        R8,R1
 1002a08:	0c 00 00 01 	CMP        $1,R1
 1002a0c:	78 b0 00 28 	BGE        @0x01002a38    // 1002a38 <entry+0x864>
 1002a10:	0e 20 00 00 	LDI        $2097152,R1
 1002a14:	2c 84 40 00 	LW         (R1),R5
 1002a18:	13 43 44 40 	MOV        $1088+SP,R2
 1002a1c:	0b 43 d5 ed 	MOV        0x010001d4,R1  // 10001d4 <overflow_test>
 1002a20:	03 43 c0 01 	JSR        0x01000050     // 1000050 <run_test>
 1002a24:	78 83 d6 28 
 1002a28:	43 40 40 00 	MOV        R1,R8
 1002a2c:	0c 00 00 00 	CMP        $0,R1
 1002a30:	78 88 00 3c 	BZ         @0x01002a70    // 1002a70 <entry+0x89c>
 1002a34:	78 80 00 20 	BRA        @0x01002a58    // 1002a58 <entry+0x884>
 1002a38:	03 43 c0 01 	JSR        0x01001054     // 1001054 <txchr.constprop.3>
 1002a3c:	78 83 e6 14 
 1002a40:	28 83 ff ff 	ADD        $-1,R5
 1002a44:	0b 41 40 00 	MOV        R5,R1
 1002a48:	08 80 00 01 	ADD        $1,R1
 1002a4c:	0c 00 00 01 	CMP        $1,R1
 1002a50:	78 b3 ff e4 	BGE        @0x01002a38    // 1002a38 <entry+0x864>
 1002a54:	78 83 ff b8 	BRA        @0x01002a10    // 1002a10 <entry+0x83c>
 1002a58:	51 80 00 02 	LSL        $2,R10
 1002a5c:	13 41 80 00 	MOV        R6,R2
 1002a60:	10 86 80 00 	ADD        R10,R2
 1002a64:	0b 41 40 00 	MOV        R5,R1
 1002a68:	03 43 c0 01 	JSR        0x01001ef8     // 1001ef8 <test_fails>
 1002a6c:	78 83 f4 88 
 1002a70:	0b 43 a0 00 	MOV        uCC,R1
 1002a74:	08 40 9d 80 	AND        $40320,R1
 1002a78:	78 ab ff dc 	BNZ        @0x01002a58    // 1002a58 <entry+0x884>
 1002a7c:	0a 00 00 80 	LDI        0x01003d5c,R1  // 1003d5c <entry+0x1b88>
 1002a80:	0a 40 3d 5c 
 1002a84:	03 43 c0 01 	JSR        0x01001120     // 1001120 <txstr>
 1002a88:	78 83 e6 94 
 1002a8c:	4b 41 c0 00 	MOV        R7,R9
 1002a90:	48 80 00 07 	ADD        $7,R9
 1002a94:	51 80 00 02 	LSL        $2,R10
 1002a98:	0b 41 80 00 	MOV        R6,R1
 1002a9c:	08 86 80 00 	ADD        R10,R1
 1002aa0:	44 c4 40 00 	SW         R8,(R1)
 1002aa4:	0a 00 00 80 	LDI        0x01003bd4,R1  // 1003bd4 <entry+0x1a00>
 1002aa8:	0a 40 3b d4 
 1002aac:	03 43 c0 01 	JSR        0x01001120     // 1001120 <txstr>
 1002ab0:	78 83 e6 6c 
 1002ab4:	0a 00 00 80 	LDI        0x01003bd5,R1  // 1003bd5 <entry+0x1a01>
 1002ab8:	0a 40 3b d5 
 1002abc:	40 80 00 01 	ADD        $1,R8
 1002ac0:	08 80 00 01 	ADD        $1,R1
 1002ac4:	15 84 7f ff 	LB         -1(R1),R2
 1002ac8:	14 00 00 00 	CMP        $0,R2
 1002acc:	78 ab ff ec 	BNZ        @0x01002abc    // 1002abc <entry+0x8e8>
 1002ad0:	2e 00 00 1f 	LDI        $31,R5
 1002ad4:	28 06 00 00 	SUB        R8,R5
 1002ad8:	0e 00 00 20 	LDI        $32,R1
 1002adc:	08 06 00 00 	SUB        R8,R1
 1002ae0:	0c 00 00 01 	CMP        $1,R1
 1002ae4:	78 b0 00 28 	BGE        @0x01002b10    // 1002b10 <entry+0x93c>
 1002ae8:	0e 20 00 00 	LDI        $2097152,R1
 1002aec:	2c 84 40 00 	LW         (R1),R5
 1002af0:	13 43 44 40 	MOV        $1088+SP,R2
 1002af4:	0b 43 d5 cc 	MOV        0x01000228,R1  // 1000228 <carry_test>
 1002af8:	03 43 c0 01 	JSR        0x01000050     // 1000050 <run_test>
 1002afc:	78 83 d5 50 
 1002b00:	43 40 40 00 	MOV        R1,R8
 1002b04:	0c 00 00 00 	CMP        $0,R1
 1002b08:	78 88 00 3c 	BZ         @0x01002b48    // 1002b48 <entry+0x974>
 1002b0c:	78 80 00 20 	BRA        @0x01002b30    // 1002b30 <entry+0x95c>
 1002b10:	03 43 c0 01 	JSR        0x01001054     // 1001054 <txchr.constprop.3>
 1002b14:	78 83 e5 3c 
 1002b18:	28 83 ff ff 	ADD        $-1,R5
 1002b1c:	0b 41 40 00 	MOV        R5,R1
 1002b20:	08 80 00 01 	ADD        $1,R1
 1002b24:	0c 00 00 01 	CMP        $1,R1
 1002b28:	78 b3 ff e4 	BGE        @0x01002b10    // 1002b10 <entry+0x93c>
 1002b2c:	78 83 ff b8 	BRA        @0x01002ae8    // 1002ae8 <entry+0x914>
 1002b30:	49 80 00 02 	LSL        $2,R9
 1002b34:	13 41 80 00 	MOV        R6,R2
 1002b38:	10 86 40 00 	ADD        R9,R2
 1002b3c:	0b 41 40 00 	MOV        R5,R1
 1002b40:	03 43 c0 01 	JSR        0x01001ef8     // 1001ef8 <test_fails>
 1002b44:	78 83 f3 b0 
 1002b48:	0b 43 a0 00 	MOV        uCC,R1
 1002b4c:	08 40 9d 80 	AND        $40320,R1
 1002b50:	78 ab ff dc 	BNZ        @0x01002b30    // 1002b30 <entry+0x95c>
 1002b54:	0a 00 00 80 	LDI        0x01003d5c,R1  // 1003d5c <entry+0x1b88>
 1002b58:	0a 40 3d 5c 
 1002b5c:	03 43 c0 01 	JSR        0x01001120     // 1001120 <txstr>
 1002b60:	78 83 e5 bc 
 1002b64:	53 41 c0 00 	MOV        R7,R10
 1002b68:	50 80 00 08 	ADD        $8,R10
 1002b6c:	49 80 00 02 	LSL        $2,R9
 1002b70:	0b 41 80 00 	MOV        R6,R1
 1002b74:	08 86 40 00 	ADD        R9,R1
 1002b78:	44 c4 40 00 	SW         R8,(R1)
 1002b7c:	0a 00 00 80 	LDI        0x01003be0,R1  // 1003be0 <entry+0x1a0c>
 1002b80:	0a 40 3b e0 
 1002b84:	03 43 c0 01 	JSR        0x01001120     // 1001120 <txstr>
 1002b88:	78 83 e5 94 
 1002b8c:	0a 00 00 80 	LDI        0x01003be1,R1  // 1003be1 <entry+0x1a0d>
 1002b90:	0a 40 3b e1 
 1002b94:	40 80 00 01 	ADD        $1,R8
 1002b98:	08 80 00 01 	ADD        $1,R1
 1002b9c:	15 84 7f ff 	LB         -1(R1),R2
 1002ba0:	14 00 00 00 	CMP        $0,R2
 1002ba4:	78 ab ff ec 	BNZ        @0x01002b94    // 1002b94 <entry+0x9c0>
 1002ba8:	2e 00 00 1f 	LDI        $31,R5
 1002bac:	28 06 00 00 	SUB        R8,R5
 1002bb0:	0e 00 00 20 	LDI        $32,R1
 1002bb4:	08 06 00 00 	SUB        R8,R1
 1002bb8:	0c 00 00 01 	CMP        $1,R1
 1002bbc:	78 b0 00 28 	BGE        @0x01002be8    // 1002be8 <entry+0xa14>
 1002bc0:	0e 20 00 00 	LDI        $2097152,R1
 1002bc4:	2c 84 40 00 	LW         (R1),R5
 1002bc8:	13 43 44 40 	MOV        $1088+SP,R2
 1002bcc:	0b 43 d5 a9 	MOV        0x01000274,R1  // 1000274 <loop_test>
 1002bd0:	03 43 c0 01 	JSR        0x01000050     // 1000050 <run_test>
 1002bd4:	78 83 d4 78 
 1002bd8:	43 40 40 00 	MOV        R1,R8
 1002bdc:	0c 00 00 00 	CMP        $0,R1
 1002be0:	78 88 00 3c 	BZ         @0x01002c20    // 1002c20 <entry+0xa4c>
 1002be4:	78 80 00 20 	BRA        @0x01002c08    // 1002c08 <entry+0xa34>
 1002be8:	03 43 c0 01 	JSR        0x01001054     // 1001054 <txchr.constprop.3>
 1002bec:	78 83 e4 64 
 1002bf0:	28 83 ff ff 	ADD        $-1,R5
 1002bf4:	0b 41 40 00 	MOV        R5,R1
 1002bf8:	08 80 00 01 	ADD        $1,R1
 1002bfc:	0c 00 00 01 	CMP        $1,R1
 1002c00:	78 b3 ff e4 	BGE        @0x01002be8    // 1002be8 <entry+0xa14>
 1002c04:	78 83 ff b8 	BRA        @0x01002bc0    // 1002bc0 <entry+0x9ec>
 1002c08:	51 80 00 02 	LSL        $2,R10
 1002c0c:	13 41 80 00 	MOV        R6,R2
 1002c10:	10 86 80 00 	ADD        R10,R2
 1002c14:	0b 41 40 00 	MOV        R5,R1
 1002c18:	03 43 c0 01 	JSR        0x01001ef8     // 1001ef8 <test_fails>
 1002c1c:	78 83 f2 d8 
 1002c20:	0b 43 a0 00 	MOV        uCC,R1
 1002c24:	08 40 9d 80 	AND        $40320,R1
 1002c28:	78 ab ff dc 	BNZ        @0x01002c08    // 1002c08 <entry+0xa34>
 1002c2c:	0a 00 00 80 	LDI        0x01003d5c,R1  // 1003d5c <entry+0x1b88>
 1002c30:	0a 40 3d 5c 
 1002c34:	03 43 c0 01 	JSR        0x01001120     // 1001120 <txstr>
 1002c38:	78 83 e4 e4 
 1002c3c:	4b 41 c0 00 	MOV        R7,R9
 1002c40:	48 80 00 09 	ADD        $9,R9
 1002c44:	51 80 00 02 	LSL        $2,R10
 1002c48:	0b 41 80 00 	MOV        R6,R1
 1002c4c:	08 86 80 00 	ADD        R10,R1
 1002c50:	44 c4 40 00 	SW         R8,(R1)
 1002c54:	0a 00 00 80 	LDI        0x01003bec,R1  // 1003bec <entry+0x1a18>
 1002c58:	0a 40 3b ec 
 1002c5c:	03 43 c0 01 	JSR        0x01001120     // 1001120 <txstr>
 1002c60:	78 83 e4 bc 
 1002c64:	0a 00 00 80 	LDI        0x01003bed,R1  // 1003bed <entry+0x1a19>
 1002c68:	0a 40 3b ed 
 1002c6c:	40 80 00 01 	ADD        $1,R8
 1002c70:	08 80 00 01 	ADD        $1,R1
 1002c74:	15 84 7f ff 	LB         -1(R1),R2
 1002c78:	14 00 00 00 	CMP        $0,R2
 1002c7c:	78 ab ff ec 	BNZ        @0x01002c6c    // 1002c6c <entry+0xa98>
 1002c80:	2e 00 00 1f 	LDI        $31,R5
 1002c84:	28 06 00 00 	SUB        R8,R5
 1002c88:	0e 00 00 20 	LDI        $32,R1
 1002c8c:	08 06 00 00 	SUB        R8,R1
 1002c90:	0c 00 00 01 	CMP        $1,R1
 1002c94:	78 b0 00 28 	BGE        @0x01002cc0    // 1002cc0 <entry+0xaec>
 1002c98:	0e 20 00 00 	LDI        $2097152,R1
 1002c9c:	2c 84 40 00 	LW         (R1),R5
 1002ca0:	13 43 44 40 	MOV        $1088+SP,R2
 1002ca4:	0b 43 d5 93 	MOV        0x010002f4,R1  // 10002f4 <shift_test>
 1002ca8:	03 43 c0 01 	JSR        0x01000050     // 1000050 <run_test>
 1002cac:	78 83 d3 a0 
 1002cb0:	43 40 40 00 	MOV        R1,R8
 1002cb4:	0c 00 00 00 	CMP        $0,R1
 1002cb8:	78 88 00 3c 	BZ         @0x01002cf8    // 1002cf8 <entry+0xb24>
 1002cbc:	78 80 00 20 	BRA        @0x01002ce0    // 1002ce0 <entry+0xb0c>
 1002cc0:	03 43 c0 01 	JSR        0x01001054     // 1001054 <txchr.constprop.3>
 1002cc4:	78 83 e3 8c 
 1002cc8:	28 83 ff ff 	ADD        $-1,R5
 1002ccc:	0b 41 40 00 	MOV        R5,R1
 1002cd0:	08 80 00 01 	ADD        $1,R1
 1002cd4:	0c 00 00 01 	CMP        $1,R1
 1002cd8:	78 b3 ff e4 	BGE        @0x01002cc0    // 1002cc0 <entry+0xaec>
 1002cdc:	78 83 ff b8 	BRA        @0x01002c98    // 1002c98 <entry+0xac4>
 1002ce0:	49 80 00 02 	LSL        $2,R9
 1002ce4:	13 41 80 00 	MOV        R6,R2
 1002ce8:	10 86 40 00 	ADD        R9,R2
 1002cec:	0b 41 40 00 	MOV        R5,R1
 1002cf0:	03 43 c0 01 	JSR        0x01001ef8     // 1001ef8 <test_fails>
 1002cf4:	78 83 f2 00 
 1002cf8:	0b 43 a0 00 	MOV        uCC,R1
 1002cfc:	08 40 9d 80 	AND        $40320,R1
 1002d00:	78 ab ff dc 	BNZ        @0x01002ce0    // 1002ce0 <entry+0xb0c>
 1002d04:	0a 00 00 80 	LDI        0x01003d5c,R1  // 1003d5c <entry+0x1b88>
 1002d08:	0a 40 3d 5c 
 1002d0c:	03 43 c0 01 	JSR        0x01001120     // 1001120 <txstr>
 1002d10:	78 83 e4 0c 
 1002d14:	53 41 c0 00 	MOV        R7,R10
 1002d18:	50 80 00 0a 	ADD        $10,R10
 1002d1c:	49 80 00 02 	LSL        $2,R9
 1002d20:	0b 41 80 00 	MOV        R6,R1
 1002d24:	08 86 40 00 	ADD        R9,R1
 1002d28:	44 c4 40 00 	SW         R8,(R1)
 1002d2c:	0a 00 00 80 	LDI        0x01003bfc,R1  // 1003bfc <entry+0x1a28>
 1002d30:	0a 40 3b fc 
 1002d34:	03 43 c0 01 	JSR        0x01001120     // 1001120 <txstr>
 1002d38:	78 83 e3 e4 
 1002d3c:	0a 00 00 80 	LDI        0x01003bfd,R1  // 1003bfd <entry+0x1a29>
 1002d40:	0a 40 3b fd 
 1002d44:	40 80 00 01 	ADD        $1,R8
 1002d48:	08 80 00 01 	ADD        $1,R1
 1002d4c:	15 84 7f ff 	LB         -1(R1),R2
 1002d50:	14 00 00 00 	CMP        $0,R2
 1002d54:	78 ab ff ec 	BNZ        @0x01002d44    // 1002d44 <entry+0xb70>
 1002d58:	2e 00 00 1f 	LDI        $31,R5
 1002d5c:	28 06 00 00 	SUB        R8,R5
 1002d60:	0e 00 00 20 	LDI        $32,R1
 1002d64:	08 06 00 00 	SUB        R8,R1
 1002d68:	0c 00 00 01 	CMP        $1,R1
 1002d6c:	78 b0 00 28 	BGE        @0x01002d98    // 1002d98 <entry+0xbc4>
 1002d70:	0e 20 00 00 	LDI        $2097152,R1
 1002d74:	2c 84 40 00 	LW         (R1),R5
 1002d78:	13 43 44 40 	MOV        $1088+SP,R2
 1002d7c:	0b 43 d6 1c 	MOV        0x010005f0,R1  // 10005f0 <pipeline_test>
 1002d80:	03 43 c0 01 	JSR        0x01000050     // 1000050 <run_test>
 1002d84:	78 83 d2 c8 
 1002d88:	43 40 40 00 	MOV        R1,R8
 1002d8c:	0c 00 00 00 	CMP        $0,R1
 1002d90:	78 88 00 3c 	BZ         @0x01002dd0    // 1002dd0 <entry+0xbfc>
 1002d94:	78 80 00 20 	BRA        @0x01002db8    // 1002db8 <entry+0xbe4>
 1002d98:	03 43 c0 01 	JSR        0x01001054     // 1001054 <txchr.constprop.3>
 1002d9c:	78 83 e2 b4 
 1002da0:	28 83 ff ff 	ADD        $-1,R5
 1002da4:	0b 41 40 00 	MOV        R5,R1
 1002da8:	08 80 00 01 	ADD        $1,R1
 1002dac:	0c 00 00 01 	CMP        $1,R1
 1002db0:	78 b3 ff e4 	BGE        @0x01002d98    // 1002d98 <entry+0xbc4>
 1002db4:	78 83 ff b8 	BRA        @0x01002d70    // 1002d70 <entry+0xb9c>
 1002db8:	51 80 00 02 	LSL        $2,R10
 1002dbc:	13 41 80 00 	MOV        R6,R2
 1002dc0:	10 86 80 00 	ADD        R10,R2
 1002dc4:	0b 41 40 00 	MOV        R5,R1
 1002dc8:	03 43 c0 01 	JSR        0x01001ef8     // 1001ef8 <test_fails>
 1002dcc:	78 83 f1 28 
 1002dd0:	0b 43 a0 00 	MOV        uCC,R1
 1002dd4:	08 40 9d 80 	AND        $40320,R1
 1002dd8:	78 ab ff dc 	BNZ        @0x01002db8    // 1002db8 <entry+0xbe4>
 1002ddc:	0a 00 00 80 	LDI        0x01003d5c,R1  // 1003d5c <entry+0x1b88>
 1002de0:	0a 40 3d 5c 
 1002de4:	03 43 c0 01 	JSR        0x01001120     // 1001120 <txstr>
 1002de8:	78 83 e3 34 
 1002dec:	4b 41 c0 00 	MOV        R7,R9
 1002df0:	48 80 00 0b 	ADD        $11,R9
 1002df4:	51 80 00 02 	LSL        $2,R10
 1002df8:	0b 41 80 00 	MOV        R6,R1
 1002dfc:	08 86 80 00 	ADD        R10,R1
 1002e00:	44 c4 40 00 	SW         R8,(R1)
 1002e04:	0a 00 00 80 	LDI        0x01003bf8,R1  // 1003bf8 <entry+0x1a24>
 1002e08:	0a 40 3b f8 
 1002e0c:	03 43 c0 01 	JSR        0x01001120     // 1001120 <txstr>
 1002e10:	78 83 e3 0c 
 1002e14:	0a 00 00 80 	LDI        0x01003bf9,R1  // 1003bf9 <entry+0x1a25>
 1002e18:	0a 40 3b f9 
 1002e1c:	40 80 00 01 	ADD        $1,R8
 1002e20:	08 80 00 01 	ADD        $1,R1
 1002e24:	15 84 7f ff 	LB         -1(R1),R2
 1002e28:	14 00 00 00 	CMP        $0,R2
 1002e2c:	78 ab ff ec 	BNZ        @0x01002e1c    // 1002e1c <entry+0xc48>
 1002e30:	2e 00 00 1f 	LDI        $31,R5
 1002e34:	28 06 00 00 	SUB        R8,R5
 1002e38:	0e 00 00 20 	LDI        $32,R1
 1002e3c:	08 06 00 00 	SUB        R8,R1
 1002e40:	0c 00 00 01 	CMP        $1,R1
 1002e44:	78 b0 00 28 	BGE        @0x01002e70    // 1002e70 <entry+0xc9c>
 1002e48:	0e 20 00 00 	LDI        $2097152,R1
 1002e4c:	2c 84 40 00 	LW         (R1),R5
 1002e50:	13 43 44 40 	MOV        $1088+SP,R2
 1002e54:	0b 43 d6 05 	MOV        0x0100066c,R1  // 100066c <mempipe_test>
 1002e58:	03 43 c0 01 	JSR        0x01000050     // 1000050 <run_test>
 1002e5c:	78 83 d1 f0 
 1002e60:	43 40 40 00 	MOV        R1,R8
 1002e64:	0c 00 00 00 	CMP        $0,R1
 1002e68:	78 88 00 3c 	BZ         @0x01002ea8    // 1002ea8 <entry+0xcd4>
 1002e6c:	78 80 00 20 	BRA        @0x01002e90    // 1002e90 <entry+0xcbc>
 1002e70:	03 43 c0 01 	JSR        0x01001054     // 1001054 <txchr.constprop.3>
 1002e74:	78 83 e1 dc 
 1002e78:	28 83 ff ff 	ADD        $-1,R5
 1002e7c:	0b 41 40 00 	MOV        R5,R1
 1002e80:	08 80 00 01 	ADD        $1,R1
 1002e84:	0c 00 00 01 	CMP        $1,R1
 1002e88:	78 b3 ff e4 	BGE        @0x01002e70    // 1002e70 <entry+0xc9c>
 1002e8c:	78 83 ff b8 	BRA        @0x01002e48    // 1002e48 <entry+0xc74>
 1002e90:	49 80 00 02 	LSL        $2,R9
 1002e94:	13 41 80 00 	MOV        R6,R2
 1002e98:	10 86 40 00 	ADD        R9,R2
 1002e9c:	0b 41 40 00 	MOV        R5,R1
 1002ea0:	03 43 c0 01 	JSR        0x01001ef8     // 1001ef8 <test_fails>
 1002ea4:	78 83 f0 50 
 1002ea8:	0b 43 a0 00 	MOV        uCC,R1
 1002eac:	08 40 9d 80 	AND        $40320,R1
 1002eb0:	78 ab ff dc 	BNZ        @0x01002e90    // 1002e90 <entry+0xcbc>
 1002eb4:	0a 00 00 80 	LDI        0x01003d5c,R1  // 1003d5c <entry+0x1b88>
 1002eb8:	0a 40 3d 5c 
 1002ebc:	03 43 c0 01 	JSR        0x01001120     // 1001120 <txstr>
 1002ec0:	78 83 e2 5c 
 1002ec4:	53 41 c0 00 	MOV        R7,R10
 1002ec8:	50 80 00 0c 	ADD        $12,R10
 1002ecc:	49 80 00 02 	LSL        $2,R9
 1002ed0:	0b 41 80 00 	MOV        R6,R1
 1002ed4:	08 86 40 00 	ADD        R9,R1
 1002ed8:	44 c4 40 00 	SW         R8,(R1)
 1002edc:	0a 00 00 80 	LDI        0x01003c0c,R1  // 1003c0c <entry+0x1a38>
 1002ee0:	0a 40 3c 0c 
 1002ee4:	03 43 c0 01 	JSR        0x01001120     // 1001120 <txstr>
 1002ee8:	78 83 e2 34 
 1002eec:	0a 00 00 80 	LDI        0x01003c0d,R1  // 1003c0d <entry+0x1a39>
 1002ef0:	0a 40 3c 0d 
 1002ef4:	40 80 00 01 	ADD        $1,R8
 1002ef8:	08 80 00 01 	ADD        $1,R1
 1002efc:	15 84 7f ff 	LB         -1(R1),R2
 1002f00:	14 00 00 00 	CMP        $0,R2
 1002f04:	78 ab ff ec 	BNZ        @0x01002ef4    // 1002ef4 <entry+0xd20>
 1002f08:	2e 00 00 1f 	LDI        $31,R5
 1002f0c:	28 06 00 00 	SUB        R8,R5
 1002f10:	0e 00 00 20 	LDI        $32,R1
 1002f14:	08 06 00 00 	SUB        R8,R1
 1002f18:	0c 00 00 01 	CMP        $1,R1
 1002f1c:	78 b0 00 28 	BGE        @0x01002f48    // 1002f48 <entry+0xd74>
 1002f20:	0e 20 00 00 	LDI        $2097152,R1
 1002f24:	2c 84 40 00 	LW         (R1),R5
 1002f28:	13 43 44 40 	MOV        $1088+SP,R2
 1002f2c:	0b 43 d5 e9 	MOV        0x010006d4,R1  // 10006d4 <cexec_test>
 1002f30:	03 43 c0 01 	JSR        0x01000050     // 1000050 <run_test>
 1002f34:	78 83 d1 18 
 1002f38:	4b 40 40 00 	MOV        R1,R9
 1002f3c:	0c 00 00 00 	CMP        $0,R1
 1002f40:	78 88 00 3c 	BZ         @0x01002f80    // 1002f80 <entry+0xdac>
 1002f44:	78 80 00 20 	BRA        @0x01002f68    // 1002f68 <entry+0xd94>
 1002f48:	03 43 c0 01 	JSR        0x01001054     // 1001054 <txchr.constprop.3>
 1002f4c:	78 83 e1 04 
 1002f50:	28 83 ff ff 	ADD        $-1,R5
 1002f54:	0b 41 40 00 	MOV        R5,R1
 1002f58:	08 80 00 01 	ADD        $1,R1
 1002f5c:	0c 00 00 01 	CMP        $1,R1
 1002f60:	78 b3 ff e4 	BGE        @0x01002f48    // 1002f48 <entry+0xd74>
 1002f64:	78 83 ff b8 	BRA        @0x01002f20    // 1002f20 <entry+0xd4c>
 1002f68:	51 80 00 02 	LSL        $2,R10
 1002f6c:	13 41 80 00 	MOV        R6,R2
 1002f70:	10 86 80 00 	ADD        R10,R2
 1002f74:	0b 41 40 00 	MOV        R5,R1
 1002f78:	03 43 c0 01 	JSR        0x01001ef8     // 1001ef8 <test_fails>
 1002f7c:	78 83 ef 78 
 1002f80:	0b 43 a0 00 	MOV        uCC,R1
 1002f84:	08 40 9d 80 	AND        $40320,R1
 1002f88:	78 ab ff dc 	BNZ        @0x01002f68    // 1002f68 <entry+0xd94>
 1002f8c:	0a 00 00 80 	LDI        0x01003d5c,R1  // 1003d5c <entry+0x1b88>
 1002f90:	0a 40 3d 5c 
 1002f94:	03 43 c0 01 	JSR        0x01001120     // 1001120 <txstr>
 1002f98:	78 83 e1 84 
 1002f9c:	43 41 c0 00 	MOV        R7,R8
 1002fa0:	40 80 00 0d 	ADD        $13,R8
 1002fa4:	51 80 00 02 	LSL        $2,R10
 1002fa8:	0b 41 80 00 	MOV        R6,R1
 1002fac:	08 86 80 00 	ADD        R10,R1
 1002fb0:	4c c4 40 00 	SW         R9,(R1)
 1002fb4:	0a 00 00 80 	LDI        0x01003c28,R1  // 1003c28 <entry+0x1a54>
 1002fb8:	0a 40 3c 28 
 1002fbc:	03 43 c0 01 	JSR        0x01001120     // 1001120 <txstr>
 1002fc0:	78 83 e1 5c 
 1002fc4:	0a 00 00 80 	LDI        0x01003c29,R1  // 1003c29 <entry+0x1a55>
 1002fc8:	0a 40 3c 29 
 1002fcc:	48 80 00 01 	ADD        $1,R9
 1002fd0:	08 80 00 01 	ADD        $1,R1
 1002fd4:	15 84 7f ff 	LB         -1(R1),R2
 1002fd8:	14 00 00 00 	CMP        $0,R2
 1002fdc:	78 ab ff ec 	BNZ        @0x01002fcc    // 1002fcc <entry+0xdf8>
 1002fe0:	2e 00 00 1f 	LDI        $31,R5
 1002fe4:	28 06 40 00 	SUB        R9,R5
 1002fe8:	0e 00 00 20 	LDI        $32,R1
 1002fec:	08 06 40 00 	SUB        R9,R1
 1002ff0:	0c 00 00 01 	CMP        $1,R1
 1002ff4:	78 b0 00 28 	BGE        @0x01003020    // 1003020 <entry+0xe4c>
 1002ff8:	0e 20 00 00 	LDI        $2097152,R1
 1002ffc:	2c 84 40 00 	LW         (R1),R5
 1003000:	13 43 44 40 	MOV        $1088+SP,R2
 1003004:	0b 43 d5 bd 	MOV        0x010006fc,R1  // 10006fc <nowaitpipe_test>
 1003008:	03 43 c0 01 	JSR        0x01000050     // 1000050 <run_test>
 100300c:	78 83 d0 40 
 1003010:	53 40 40 00 	MOV        R1,R10
 1003014:	0c 00 00 00 	CMP        $0,R1
 1003018:	78 88 00 3c 	BZ         @0x01003058    // 1003058 <entry+0xe84>
 100301c:	78 80 00 20 	BRA        @0x01003040    // 1003040 <entry+0xe6c>
 1003020:	03 43 c0 01 	JSR        0x01001054     // 1001054 <txchr.constprop.3>
 1003024:	78 83 e0 2c 
 1003028:	28 83 ff ff 	ADD        $-1,R5
 100302c:	0b 41 40 00 	MOV        R5,R1
 1003030:	08 80 00 01 	ADD        $1,R1
 1003034:	0c 00 00 01 	CMP        $1,R1
 1003038:	78 b3 ff e4 	BGE        @0x01003020    // 1003020 <entry+0xe4c>
 100303c:	78 83 ff b8 	BRA        @0x01002ff8    // 1002ff8 <entry+0xe24>
 1003040:	41 80 00 02 	LSL        $2,R8
 1003044:	13 41 80 00 	MOV        R6,R2
 1003048:	10 86 00 00 	ADD        R8,R2
 100304c:	0b 41 40 00 	MOV        R5,R1
 1003050:	03 43 c0 01 	JSR        0x01001ef8     // 1001ef8 <test_fails>
 1003054:	78 83 ee a0 
 1003058:	0b 43 a0 00 	MOV        uCC,R1
 100305c:	08 40 9d 80 	AND        $40320,R1
 1003060:	78 ab ff dc 	BNZ        @0x01003040    // 1003040 <entry+0xe6c>
 1003064:	0a 00 00 80 	LDI        0x01003d5c,R1  // 1003d5c <entry+0x1b88>
 1003068:	0a 40 3d 5c 
 100306c:	03 43 c0 01 	JSR        0x01001120     // 1001120 <txstr>
 1003070:	78 83 e0 ac 
 1003074:	4b 41 c0 00 	MOV        R7,R9
 1003078:	48 80 00 0e 	ADD        $14,R9
 100307c:	41 80 00 02 	LSL        $2,R8
 1003080:	0b 41 80 00 	MOV        R6,R1
 1003084:	08 86 00 00 	ADD        R8,R1
 1003088:	54 c4 40 00 	SW         R10,(R1)
 100308c:	0a 00 00 80 	LDI        0x01003c44,R1  // 1003c44 <entry+0x1a70>
 1003090:	0a 40 3c 44 
 1003094:	03 43 c0 01 	JSR        0x01001120     // 1001120 <txstr>
 1003098:	78 83 e0 84 
 100309c:	0a 00 00 80 	LDI        0x01003c45,R1  // 1003c45 <entry+0x1a71>
 10030a0:	0a 40 3c 45 
 10030a4:	50 80 00 01 	ADD        $1,R10
 10030a8:	08 80 00 01 	ADD        $1,R1
 10030ac:	15 84 7f ff 	LB         -1(R1),R2
 10030b0:	14 00 00 00 	CMP        $0,R2
 10030b4:	78 ab ff ec 	BNZ        @0x010030a4    // 10030a4 <entry+0xed0>
 10030b8:	2e 00 00 1f 	LDI        $31,R5
 10030bc:	28 06 80 00 	SUB        R10,R5
 10030c0:	0e 00 00 20 	LDI        $32,R1
 10030c4:	08 06 80 00 	SUB        R10,R1
 10030c8:	0c 00 00 01 	CMP        $1,R1
 10030cc:	78 b0 00 28 	BGE        @0x010030f8    // 10030f8 <entry+0xf24>
 10030d0:	0e 20 00 00 	LDI        $2097152,R1
 10030d4:	2c 84 40 00 	LW         (R1),R5
 10030d8:	13 43 44 40 	MOV        $1088+SP,R2
 10030dc:	0b 43 d5 bb 	MOV        0x010007cc,R1  // 10007cc <bcmem_test>
 10030e0:	03 43 c0 01 	JSR        0x01000050     // 1000050 <run_test>
 10030e4:	78 83 cf 68 
 10030e8:	43 40 40 00 	MOV        R1,R8
 10030ec:	0c 00 00 00 	CMP        $0,R1
 10030f0:	78 88 00 3c 	BZ         @0x01003130    // 1003130 <entry+0xf5c>
 10030f4:	78 80 00 20 	BRA        @0x01003118    // 1003118 <entry+0xf44>
 10030f8:	03 43 c0 01 	JSR        0x01001054     // 1001054 <txchr.constprop.3>
 10030fc:	78 83 df 54 
 1003100:	28 83 ff ff 	ADD        $-1,R5
 1003104:	0b 41 40 00 	MOV        R5,R1
 1003108:	08 80 00 01 	ADD        $1,R1
 100310c:	0c 00 00 01 	CMP        $1,R1
 1003110:	78 b3 ff e4 	BGE        @0x010030f8    // 10030f8 <entry+0xf24>
 1003114:	78 83 ff b8 	BRA        @0x010030d0    // 10030d0 <entry+0xefc>
 1003118:	49 80 00 02 	LSL        $2,R9
 100311c:	13 41 80 00 	MOV        R6,R2
 1003120:	10 86 40 00 	ADD        R9,R2
 1003124:	0b 41 40 00 	MOV        R5,R1
 1003128:	03 43 c0 01 	JSR        0x01001ef8     // 1001ef8 <test_fails>
 100312c:	78 83 ed c8 
 1003130:	0b 43 a0 00 	MOV        uCC,R1
 1003134:	08 40 9d 80 	AND        $40320,R1
 1003138:	78 ab ff dc 	BNZ        @0x01003118    // 1003118 <entry+0xf44>
 100313c:	0a 00 00 80 	LDI        0x01003d5c,R1  // 1003d5c <entry+0x1b88>
 1003140:	0a 40 3d 5c 
 1003144:	03 43 c0 01 	JSR        0x01001120     // 1001120 <txstr>
 1003148:	78 83 df d4 
 100314c:	53 41 c0 00 	MOV        R7,R10
 1003150:	50 80 00 0f 	ADD        $15,R10
 1003154:	49 80 00 02 	LSL        $2,R9
 1003158:	0b 41 80 00 	MOV        R6,R1
 100315c:	08 86 40 00 	ADD        R9,R1
 1003160:	44 c4 40 00 	SW         R8,(R1)
 1003164:	0a 00 00 80 	LDI        0x01003c60,R1  // 1003c60 <entry+0x1a8c>
 1003168:	0a 40 3c 60 
 100316c:	03 43 c0 01 	JSR        0x01001120     // 1001120 <txstr>
 1003170:	78 83 df ac 
 1003174:	0a 00 00 80 	LDI        0x01003c61,R1  // 1003c61 <entry+0x1a8d>
 1003178:	0a 40 3c 61 
 100317c:	40 80 00 01 	ADD        $1,R8
 1003180:	08 80 00 01 	ADD        $1,R1
 1003184:	15 84 7f ff 	LB         -1(R1),R2
 1003188:	14 00 00 00 	CMP        $0,R2
 100318c:	78 ab ff ec 	BNZ        @0x0100317c    // 100317c <entry+0xfa8>
 1003190:	2e 00 00 1f 	LDI        $31,R5
 1003194:	28 06 00 00 	SUB        R8,R5
 1003198:	0e 00 00 20 	LDI        $32,R1
 100319c:	08 06 00 00 	SUB        R8,R1
 10031a0:	0c 00 00 01 	CMP        $1,R1
 10031a4:	78 b0 00 28 	BGE        @0x010031d0    // 10031d0 <entry+0xffc>
 10031a8:	0e 20 00 00 	LDI        $2097152,R1
 10031ac:	2c 84 40 00 	LW         (R1),R5
 10031b0:	13 43 44 40 	MOV        $1088+SP,R2
 10031b4:	0e 00 00 00 	CLR        R1
 10031b8:	03 43 c0 01 	JSR        0x01000050     // 1000050 <run_test>
 10031bc:	78 83 ce 90 
 10031c0:	43 40 40 00 	MOV        R1,R8
 10031c4:	0c 00 00 00 	CMP        $0,R1
 10031c8:	78 88 00 3c 	BZ         @0x01003208    // 1003208 <entry+0x1034>
 10031cc:	78 80 00 20 	BRA        @0x010031f0    // 10031f0 <entry+0x101c>
 10031d0:	03 43 c0 01 	JSR        0x01001054     // 1001054 <txchr.constprop.3>
 10031d4:	78 83 de 7c 
 10031d8:	28 83 ff ff 	ADD        $-1,R5
 10031dc:	0b 41 40 00 	MOV        R5,R1
 10031e0:	08 80 00 01 	ADD        $1,R1
 10031e4:	0c 00 00 01 	CMP        $1,R1
 10031e8:	78 b3 ff e4 	BGE        @0x010031d0    // 10031d0 <entry+0xffc>
 10031ec:	78 83 ff b8 	BRA        @0x010031a8    // 10031a8 <entry+0xfd4>
 10031f0:	51 80 00 02 	LSL        $2,R10
 10031f4:	13 41 80 00 	MOV        R6,R2
 10031f8:	10 86 80 00 	ADD        R10,R2
 10031fc:	0b 41 40 00 	MOV        R5,R1
 1003200:	03 43 c0 01 	JSR        0x01001ef8     // 1001ef8 <test_fails>
 1003204:	78 83 ec f0 
 1003208:	0b 43 a0 00 	MOV        uCC,R1
 100320c:	09 00 01 00 	XOR        $256,R1
 1003210:	08 40 9d 80 	AND        $40320,R1
 1003214:	78 ab ff d8 	BNZ        @0x010031f0    // 10031f0 <entry+0x101c>
 1003218:	0a 00 00 80 	LDI        0x01003d5c,R1  // 1003d5c <entry+0x1b88>
 100321c:	0a 40 3d 5c 
 1003220:	03 43 c0 01 	JSR        0x01001120     // 1001120 <txstr>
 1003224:	78 83 de f8 
 1003228:	4b 41 c0 00 	MOV        R7,R9
 100322c:	48 80 00 10 	ADD        $16,R9
 1003230:	51 80 00 02 	LSL        $2,R10
 1003234:	0b 41 80 00 	MOV        R6,R1
 1003238:	08 86 80 00 	ADD        R10,R1
 100323c:	44 c4 40 00 	SW         R8,(R1)
 1003240:	0a 00 00 80 	LDI        0x01003c80,R1  // 1003c80 <entry+0x1aac>
 1003244:	0a 40 3c 80 
 1003248:	03 43 c0 01 	JSR        0x01001120     // 1001120 <txstr>
 100324c:	78 83 de d0 
 1003250:	0a 00 00 80 	LDI        0x01003c81,R1  // 1003c81 <entry+0x1aad>
 1003254:	0a 40 3c 81 
 1003258:	40 80 00 01 	ADD        $1,R8
 100325c:	08 80 00 01 	ADD        $1,R1
 1003260:	15 84 7f ff 	LB         -1(R1),R2
 1003264:	14 00 00 00 	CMP        $0,R2
 1003268:	78 ab ff ec 	BNZ        @0x01003258    // 1003258 <entry+0x1084>
 100326c:	2e 00 00 1f 	LDI        $31,R5
 1003270:	28 06 00 00 	SUB        R8,R5
 1003274:	0e 00 00 20 	LDI        $32,R1
 1003278:	08 06 00 00 	SUB        R8,R1
 100327c:	0c 00 00 01 	CMP        $1,R1
 1003280:	78 b0 00 28 	BGE        @0x010032ac    // 10032ac <entry+0x10d8>
 1003284:	0e 20 00 00 	LDI        $2097152,R1
 1003288:	2c 84 40 00 	LW         (R1),R5
 100328c:	13 43 44 40 	MOV        $1088+SP,R2
 1003290:	0b 43 d5 66 	MOV        0x0100082c,R1  // 100082c <ill_test>
 1003294:	03 43 c0 01 	JSR        0x01000050     // 1000050 <run_test>
 1003298:	78 83 cd b4 
 100329c:	43 40 40 00 	MOV        R1,R8
 10032a0:	0c 00 00 00 	CMP        $0,R1
 10032a4:	78 88 00 3c 	BZ         @0x010032e4    // 10032e4 <entry+0x1110>
 10032a8:	78 80 00 20 	BRA        @0x010032cc    // 10032cc <entry+0x10f8>
 10032ac:	03 43 c0 01 	JSR        0x01001054     // 1001054 <txchr.constprop.3>
 10032b0:	78 83 dd a0 
 10032b4:	28 83 ff ff 	ADD        $-1,R5
 10032b8:	0b 41 40 00 	MOV        R5,R1
 10032bc:	08 80 00 01 	ADD        $1,R1
 10032c0:	0c 00 00 01 	CMP        $1,R1
 10032c4:	78 b3 ff e4 	BGE        @0x010032ac    // 10032ac <entry+0x10d8>
 10032c8:	78 83 ff b8 	BRA        @0x01003284    // 1003284 <entry+0x10b0>
 10032cc:	49 80 00 02 	LSL        $2,R9
 10032d0:	13 41 80 00 	MOV        R6,R2
 10032d4:	10 86 40 00 	ADD        R9,R2
 10032d8:	0b 41 40 00 	MOV        R5,R1
 10032dc:	03 43 c0 01 	JSR        0x01001ef8     // 1001ef8 <test_fails>
 10032e0:	78 83 ec 14 
 10032e4:	0b 43 a0 00 	MOV        uCC,R1
 10032e8:	08 40 9c 80 	AND        $40064,R1
 10032ec:	78 ab ff dc 	BNZ        @0x010032cc    // 10032cc <entry+0x10f8>
 10032f0:	0b 43 40 00 	MOV        SP,R1
 10032f4:	03 43 c0 01 	JSR        0x01001e64     // 1001e64 <save_context>
 10032f8:	78 83 eb 68 
 10032fc:	0b 43 d5 4b 	MOV        0x0100082c,R1  // 100082c <ill_test>
 1003300:	14 87 40 3c 	LW         60(SP),R2
 1003304:	14 04 40 00 	CMP        R1,R2
 1003308:	78 88 00 18 	BZ         @0x01003324    // 1003324 <entry+0x1150>
 100330c:	49 80 00 02 	LSL        $2,R9
 1003310:	13 41 80 00 	MOV        R6,R2
 1003314:	10 86 40 00 	ADD        R9,R2
 1003318:	0b 41 40 00 	MOV        R5,R1
 100331c:	03 43 c0 01 	JSR        0x01001ef8     // 1001ef8 <test_fails>
 1003320:	78 83 eb d4 
 1003324:	0a 00 00 80 	LDI        0x01003d5c,R1  // 1003d5c <entry+0x1b88>
 1003328:	0a 40 3d 5c 
 100332c:	03 43 c0 01 	JSR        0x01001120     // 1001120 <txstr>
 1003330:	78 83 dd ec 
 1003334:	53 41 c0 00 	MOV        R7,R10
 1003338:	50 80 00 11 	ADD        $17,R10
 100333c:	49 80 00 02 	LSL        $2,R9
 1003340:	0b 41 80 00 	MOV        R6,R1
 1003344:	08 86 40 00 	ADD        R9,R1
 1003348:	44 c4 40 00 	SW         R8,(R1)
 100334c:	0a 00 00 80 	LDI        0x01003c9c,R1  // 1003c9c <entry+0x1ac8>
 1003350:	0a 40 3c 9c 
 1003354:	03 43 c0 01 	JSR        0x01001120     // 1001120 <txstr>
 1003358:	78 83 dd c4 
 100335c:	0a 00 00 80 	LDI        0x01003c9d,R1  // 1003c9d <entry+0x1ac9>
 1003360:	0a 40 3c 9d 
 1003364:	40 80 00 01 	ADD        $1,R8
 1003368:	08 80 00 01 	ADD        $1,R1
 100336c:	15 84 7f ff 	LB         -1(R1),R2
 1003370:	14 00 00 00 	CMP        $0,R2
 1003374:	78 ab ff ec 	BNZ        @0x01003364    // 1003364 <entry+0x1190>
 1003378:	2e 00 00 1f 	LDI        $31,R5
 100337c:	28 06 00 00 	SUB        R8,R5
 1003380:	0e 00 00 20 	LDI        $32,R1
 1003384:	08 06 00 00 	SUB        R8,R1
 1003388:	0c 00 00 01 	CMP        $1,R1
 100338c:	78 b0 00 28 	BGE        @0x010033b8    // 10033b8 <entry+0x11e4>
 1003390:	0e 20 00 00 	LDI        $2097152,R1
 1003394:	2c 84 40 00 	LW         (R1),R5
 1003398:	13 43 44 40 	MOV        $1088+SP,R2
 100339c:	0b 43 d5 29 	MOV        0x01000844,R1  // 1000844 <cmpeq_test>
 10033a0:	03 43 c0 01 	JSR        0x01000050     // 1000050 <run_test>
 10033a4:	78 83 cc a8 
 10033a8:	43 40 40 00 	MOV        R1,R8
 10033ac:	0c 00 00 00 	CMP        $0,R1
 10033b0:	78 88 00 3c 	BZ         @0x010033f0    // 10033f0 <entry+0x121c>
 10033b4:	78 80 00 20 	BRA        @0x010033d8    // 10033d8 <entry+0x1204>
 10033b8:	03 43 c0 01 	JSR        0x01001054     // 1001054 <txchr.constprop.3>
 10033bc:	78 83 dc 94 
 10033c0:	28 83 ff ff 	ADD        $-1,R5
 10033c4:	0b 41 40 00 	MOV        R5,R1
 10033c8:	08 80 00 01 	ADD        $1,R1
 10033cc:	0c 00 00 01 	CMP        $1,R1
 10033d0:	78 b3 ff e4 	BGE        @0x010033b8    // 10033b8 <entry+0x11e4>
 10033d4:	78 83 ff b8 	BRA        @0x01003390    // 1003390 <entry+0x11bc>
 10033d8:	51 80 00 02 	LSL        $2,R10
 10033dc:	13 41 80 00 	MOV        R6,R2
 10033e0:	10 86 80 00 	ADD        R10,R2
 10033e4:	0b 41 40 00 	MOV        R5,R1
 10033e8:	03 43 c0 01 	JSR        0x01001ef8     // 1001ef8 <test_fails>
 10033ec:	78 83 eb 08 
 10033f0:	0b 43 a0 00 	MOV        uCC,R1
 10033f4:	08 40 9d 80 	AND        $40320,R1
 10033f8:	78 ab ff dc 	BNZ        @0x010033d8    // 10033d8 <entry+0x1204>
 10033fc:	0a 00 00 80 	LDI        0x01003d5c,R1  // 1003d5c <entry+0x1b88>
 1003400:	0a 40 3d 5c 
 1003404:	03 43 c0 01 	JSR        0x01001120     // 1001120 <txstr>
 1003408:	78 83 dd 14 
 100340c:	4b 41 c0 00 	MOV        R7,R9
 1003410:	48 80 00 12 	ADD        $18,R9
 1003414:	51 80 00 02 	LSL        $2,R10
 1003418:	0b 41 80 00 	MOV        R6,R1
 100341c:	08 86 80 00 	ADD        R10,R1
 1003420:	44 c4 40 00 	SW         R8,(R1)
 1003424:	0a 00 00 80 	LDI        0x01003cb0,R1  // 1003cb0 <entry+0x1adc>
 1003428:	0a 40 3c b0 
 100342c:	03 43 c0 01 	JSR        0x01001120     // 1001120 <txstr>
 1003430:	78 83 dc ec 
 1003434:	0a 00 00 80 	LDI        0x01003cb1,R1  // 1003cb1 <entry+0x1add>
 1003438:	0a 40 3c b1 
 100343c:	40 80 00 01 	ADD        $1,R8
 1003440:	08 80 00 01 	ADD        $1,R1
 1003444:	15 84 7f ff 	LB         -1(R1),R2
 1003448:	14 00 00 00 	CMP        $0,R2
 100344c:	78 ab ff ec 	BNZ        @0x0100343c    // 100343c <entry+0x1268>
 1003450:	2e 00 00 1f 	LDI        $31,R5
 1003454:	28 06 00 00 	SUB        R8,R5
 1003458:	0e 00 00 20 	LDI        $32,R1
 100345c:	08 06 00 00 	SUB        R8,R1
 1003460:	0c 00 00 01 	CMP        $1,R1
 1003464:	78 b0 00 28 	BGE        @0x01003490    // 1003490 <entry+0x12bc>
 1003468:	0e 20 00 00 	LDI        $2097152,R1
 100346c:	2c 84 40 00 	LW         (R1),R5
 1003470:	13 43 44 40 	MOV        $1088+SP,R2
 1003474:	0b 43 d4 f7 	MOV        0x01000854,R1  // 1000854 <cmpneq_test>
 1003478:	03 43 c0 01 	JSR        0x01000050     // 1000050 <run_test>
 100347c:	78 83 cb d0 
 1003480:	43 40 40 00 	MOV        R1,R8
 1003484:	0c 00 00 00 	CMP        $0,R1
 1003488:	78 88 00 3c 	BZ         @0x010034c8    // 10034c8 <entry+0x12f4>
 100348c:	78 80 00 20 	BRA        @0x010034b0    // 10034b0 <entry+0x12dc>
 1003490:	03 43 c0 01 	JSR        0x01001054     // 1001054 <txchr.constprop.3>
 1003494:	78 83 db bc 
 1003498:	28 83 ff ff 	ADD        $-1,R5
 100349c:	0b 41 40 00 	MOV        R5,R1
 10034a0:	08 80 00 01 	ADD        $1,R1
 10034a4:	0c 00 00 01 	CMP        $1,R1
 10034a8:	78 b3 ff e4 	BGE        @0x01003490    // 1003490 <entry+0x12bc>
 10034ac:	78 83 ff b8 	BRA        @0x01003468    // 1003468 <entry+0x1294>
 10034b0:	49 80 00 02 	LSL        $2,R9
 10034b4:	13 41 80 00 	MOV        R6,R2
 10034b8:	10 86 40 00 	ADD        R9,R2
 10034bc:	0b 41 40 00 	MOV        R5,R1
 10034c0:	03 43 c0 01 	JSR        0x01001ef8     // 1001ef8 <test_fails>
 10034c4:	78 83 ea 30 
 10034c8:	0b 43 a0 00 	MOV        uCC,R1
 10034cc:	08 40 9d 80 	AND        $40320,R1
 10034d0:	78 ab ff dc 	BNZ        @0x010034b0    // 10034b0 <entry+0x12dc>
 10034d4:	0a 00 00 80 	LDI        0x01003d5c,R1  // 1003d5c <entry+0x1b88>
 10034d8:	0a 40 3d 5c 
 10034dc:	03 43 c0 01 	JSR        0x01001120     // 1001120 <txstr>
 10034e0:	78 83 dc 3c 
 10034e4:	53 41 c0 00 	MOV        R7,R10
 10034e8:	50 80 00 13 	ADD        $19,R10
 10034ec:	49 80 00 02 	LSL        $2,R9
 10034f0:	0b 41 80 00 	MOV        R6,R1
 10034f4:	08 86 40 00 	ADD        R9,R1
 10034f8:	44 c4 40 00 	SW         R8,(R1)
 10034fc:	0a 00 00 80 	LDI        0x01003cc4,R1  // 1003cc4 <entry+0x1af0>
 1003500:	0a 40 3c c4 
 1003504:	03 43 c0 01 	JSR        0x01001120     // 1001120 <txstr>
 1003508:	78 83 dc 14 
 100350c:	0a 00 00 80 	LDI        0x01003cc5,R1  // 1003cc5 <entry+0x1af1>
 1003510:	0a 40 3c c5 
 1003514:	40 80 00 01 	ADD        $1,R8
 1003518:	08 80 00 01 	ADD        $1,R1
 100351c:	15 84 7f ff 	LB         -1(R1),R2
 1003520:	14 00 00 00 	CMP        $0,R2
 1003524:	78 ab ff ec 	BNZ        @0x01003514    // 1003514 <entry+0x1340>
 1003528:	2e 00 00 1f 	LDI        $31,R5
 100352c:	28 06 00 00 	SUB        R8,R5
 1003530:	0e 00 00 20 	LDI        $32,R1
 1003534:	08 06 00 00 	SUB        R8,R1
 1003538:	0c 00 00 01 	CMP        $1,R1
 100353c:	78 b0 00 28 	BGE        @0x01003568    // 1003568 <entry+0x1394>
 1003540:	0e 20 00 00 	LDI        $2097152,R1
 1003544:	2c 84 40 00 	LW         (R1),R5
 1003548:	13 43 44 40 	MOV        $1088+SP,R2
 100354c:	0b 43 d4 c6 	MOV        0x01000868,R1  // 1000868 <ccreg_test>
 1003550:	03 43 c0 01 	JSR        0x01000050     // 1000050 <run_test>
 1003554:	78 83 ca f8 
 1003558:	43 40 40 00 	MOV        R1,R8
 100355c:	0c 00 00 00 	CMP        $0,R1
 1003560:	78 88 00 3c 	BZ         @0x010035a0    // 10035a0 <entry+0x13cc>
 1003564:	78 80 00 20 	BRA        @0x01003588    // 1003588 <entry+0x13b4>
 1003568:	03 43 c0 01 	JSR        0x01001054     // 1001054 <txchr.constprop.3>
 100356c:	78 83 da e4 
 1003570:	28 83 ff ff 	ADD        $-1,R5
 1003574:	0b 41 40 00 	MOV        R5,R1
 1003578:	08 80 00 01 	ADD        $1,R1
 100357c:	0c 00 00 01 	CMP        $1,R1
 1003580:	78 b3 ff e4 	BGE        @0x01003568    // 1003568 <entry+0x1394>
 1003584:	78 83 ff b8 	BRA        @0x01003540    // 1003540 <entry+0x136c>
 1003588:	51 80 00 02 	LSL        $2,R10
 100358c:	13 41 80 00 	MOV        R6,R2
 1003590:	10 86 80 00 	ADD        R10,R2
 1003594:	0b 41 40 00 	MOV        R5,R1
 1003598:	03 43 c0 01 	JSR        0x01001ef8     // 1001ef8 <test_fails>
 100359c:	78 83 e9 58 
 10035a0:	0b 43 a0 00 	MOV        uCC,R1
 10035a4:	08 40 9d 80 	AND        $40320,R1
 10035a8:	78 ab ff dc 	BNZ        @0x01003588    // 1003588 <entry+0x13b4>
 10035ac:	0a 00 00 80 	LDI        0x01003d5c,R1  // 1003d5c <entry+0x1b88>
 10035b0:	0a 40 3d 5c 
 10035b4:	03 43 c0 01 	JSR        0x01001120     // 1001120 <txstr>
 10035b8:	78 83 db 64 
 10035bc:	4b 41 c0 00 	MOV        R7,R9
 10035c0:	48 80 00 14 	ADD        $20,R9
 10035c4:	51 80 00 02 	LSL        $2,R10
 10035c8:	0b 41 80 00 	MOV        R6,R1
 10035cc:	08 86 80 00 	ADD        R10,R1
 10035d0:	44 c4 40 00 	SW         R8,(R1)
 10035d4:	0a 00 00 80 	LDI        0x01003cd8,R1  // 1003cd8 <entry+0x1b04>
 10035d8:	0a 40 3c d8 
 10035dc:	03 43 c0 01 	JSR        0x01001120     // 1001120 <txstr>
 10035e0:	78 83 db 3c 
 10035e4:	0a 00 00 80 	LDI        0x01003cd9,R1  // 1003cd9 <entry+0x1b05>
 10035e8:	0a 40 3c d9 
 10035ec:	40 80 00 01 	ADD        $1,R8
 10035f0:	08 80 00 01 	ADD        $1,R1
 10035f4:	15 84 7f ff 	LB         -1(R1),R2
 10035f8:	14 00 00 00 	CMP        $0,R2
 10035fc:	78 ab ff ec 	BNZ        @0x010035ec    // 10035ec <entry+0x1418>
 1003600:	2e 00 00 1f 	LDI        $31,R5
 1003604:	28 06 00 00 	SUB        R8,R5
 1003608:	0e 00 00 20 	LDI        $32,R1
 100360c:	08 06 00 00 	SUB        R8,R1
 1003610:	0c 00 00 01 	CMP        $1,R1
 1003614:	78 b0 00 28 	BGE        @0x01003640    // 1003640 <entry+0x146c>
 1003618:	0e 20 00 00 	LDI        $2097152,R1
 100361c:	2c 84 40 00 	LW         (R1),R5
 1003620:	13 43 44 40 	MOV        $1088+SP,R2
 1003624:	0b 43 d6 6c 	MOV        0x01000fd8,R1  // 1000fd8 <multiarg_test>
 1003628:	03 43 c0 01 	JSR        0x01000050     // 1000050 <run_test>
 100362c:	78 83 ca 20 
 1003630:	43 40 40 00 	MOV        R1,R8
 1003634:	0c 00 00 00 	CMP        $0,R1
 1003638:	78 88 00 3c 	BZ         @0x01003678    // 1003678 <entry+0x14a4>
 100363c:	78 80 00 20 	BRA        @0x01003660    // 1003660 <entry+0x148c>
 1003640:	03 43 c0 01 	JSR        0x01001054     // 1001054 <txchr.constprop.3>
 1003644:	78 83 da 0c 
 1003648:	28 83 ff ff 	ADD        $-1,R5
 100364c:	0b 41 40 00 	MOV        R5,R1
 1003650:	08 80 00 01 	ADD        $1,R1
 1003654:	0c 00 00 01 	CMP        $1,R1
 1003658:	78 b3 ff e4 	BGE        @0x01003640    // 1003640 <entry+0x146c>
 100365c:	78 83 ff b8 	BRA        @0x01003618    // 1003618 <entry+0x1444>
 1003660:	49 80 00 02 	LSL        $2,R9
 1003664:	13 41 80 00 	MOV        R6,R2
 1003668:	10 86 40 00 	ADD        R9,R2
 100366c:	0b 41 40 00 	MOV        R5,R1
 1003670:	03 43 c0 01 	JSR        0x01001ef8     // 1001ef8 <test_fails>
 1003674:	78 83 e8 80 
 1003678:	0b 43 a0 00 	MOV        uCC,R1
 100367c:	08 40 9d 80 	AND        $40320,R1
 1003680:	78 ab ff dc 	BNZ        @0x01003660    // 1003660 <entry+0x148c>
 1003684:	0a 00 00 80 	LDI        0x01003d5c,R1  // 1003d5c <entry+0x1b88>
 1003688:	0a 40 3d 5c 
 100368c:	03 43 c0 01 	JSR        0x01001120     // 1001120 <txstr>
 1003690:	78 83 da 8c 
 1003694:	53 41 c0 00 	MOV        R7,R10
 1003698:	50 80 00 15 	ADD        $21,R10
 100369c:	49 80 00 02 	LSL        $2,R9
 10036a0:	0b 41 80 00 	MOV        R6,R1
 10036a4:	08 86 40 00 	ADD        R9,R1
 10036a8:	44 c4 40 00 	SW         R8,(R1)
 10036ac:	0a 00 00 80 	LDI        0x01003ce8,R1  // 1003ce8 <entry+0x1b14>
 10036b0:	0a 40 3c e8 
 10036b4:	03 43 c0 01 	JSR        0x01001120     // 1001120 <txstr>
 10036b8:	78 83 da 64 
 10036bc:	0a 00 00 80 	LDI        0x01003ce9,R1  // 1003ce9 <entry+0x1b15>
 10036c0:	0a 40 3c e9 
 10036c4:	40 80 00 01 	ADD        $1,R8
 10036c8:	08 80 00 01 	ADD        $1,R1
 10036cc:	15 84 7f ff 	LB         -1(R1),R2
 10036d0:	14 00 00 00 	CMP        $0,R2
 10036d4:	78 ab ff ec 	BNZ        @0x010036c4    // 10036c4 <entry+0x14f0>
 10036d8:	2e 00 00 1f 	LDI        $31,R5
 10036dc:	28 06 00 00 	SUB        R8,R5
 10036e0:	0e 00 00 20 	LDI        $32,R1
 10036e4:	08 06 00 00 	SUB        R8,R1
 10036e8:	0c 00 00 01 	CMP        $1,R1
 10036ec:	78 b0 00 28 	BGE        @0x01003718    // 1003718 <entry+0x1544>
 10036f0:	0e 20 00 00 	LDI        $2097152,R1
 10036f4:	2c 84 40 00 	LW         (R1),R5
 10036f8:	13 43 44 40 	MOV        $1088+SP,R2
 10036fc:	0b 43 d3 91 	MOV        0x01000544,R1  // 1000544 <mpy_test>
 1003700:	03 43 c0 01 	JSR        0x01000050     // 1000050 <run_test>
 1003704:	78 83 c9 48 
 1003708:	43 40 40 00 	MOV        R1,R8
 100370c:	0c 00 00 00 	CMP        $0,R1
 1003710:	78 88 00 3c 	BZ         @0x01003750    // 1003750 <entry+0x157c>
 1003714:	78 80 00 20 	BRA        @0x01003738    // 1003738 <entry+0x1564>
 1003718:	03 43 c0 01 	JSR        0x01001054     // 1001054 <txchr.constprop.3>
 100371c:	78 83 d9 34 
 1003720:	28 83 ff ff 	ADD        $-1,R5
 1003724:	0b 41 40 00 	MOV        R5,R1
 1003728:	08 80 00 01 	ADD        $1,R1
 100372c:	0c 00 00 01 	CMP        $1,R1
 1003730:	78 b3 ff e4 	BGE        @0x01003718    // 1003718 <entry+0x1544>
 1003734:	78 83 ff b8 	BRA        @0x010036f0    // 10036f0 <entry+0x151c>
 1003738:	51 80 00 02 	LSL        $2,R10
 100373c:	13 41 80 00 	MOV        R6,R2
 1003740:	10 86 80 00 	ADD        R10,R2
 1003744:	0b 41 40 00 	MOV        R5,R1
 1003748:	03 43 c0 01 	JSR        0x01001ef8     // 1001ef8 <test_fails>
 100374c:	78 83 e7 a8 
 1003750:	0b 43 a0 00 	MOV        uCC,R1
 1003754:	08 40 9c 50 	AND        $40016,R1
 1003758:	78 ab ff dc 	BNZ        @0x01003738    // 1003738 <entry+0x1564>
 100375c:	0b 43 a0 00 	MOV        uCC,R1
 1003760:	08 40 01 00 	AND        $256,R1
 1003764:	78 88 00 18 	BZ         @0x01003780    // 1003780 <entry+0x15ac>
 1003768:	0a 00 00 80 	LDI        0x01003d98,R1  // 1003d98 <entry+0x1bc4>
 100376c:	0a 40 3d 98 
 1003770:	03 43 c0 01 	JSR        0x01001120     // 1001120 <txstr>
 1003774:	78 83 d9 a8 
 1003778:	4b 42 80 00 	MOV        R10,R9
 100377c:	78 80 01 08 	BRA        @0x01003888    // 1003888 <entry+0x16b4>
 1003780:	0a 00 00 80 	LDI        0x01003d5c,R1  // 1003d5c <entry+0x1b88>
 1003784:	0a 40 3d 5c 
 1003788:	03 43 c0 01 	JSR        0x01001120     // 1001120 <txstr>
 100378c:	78 83 d9 90 
 1003790:	4b 41 c0 00 	MOV        R7,R9
 1003794:	48 80 00 16 	ADD        $22,R9
 1003798:	51 80 00 02 	LSL        $2,R10
 100379c:	0b 41 80 00 	MOV        R6,R1
 10037a0:	08 86 80 00 	ADD        R10,R1
 10037a4:	44 c4 40 00 	SW         R8,(R1)
 10037a8:	0b 43 a0 00 	MOV        uCC,R1
 10037ac:	08 40 01 00 	AND        $256,R1
 10037b0:	78 a8 00 d4 	BNZ        @0x01003888    // 1003888 <entry+0x16b4>
 10037b4:	0a 00 00 80 	LDI        0x01003cf8,R1  // 1003cf8 <entry+0x1b24>
 10037b8:	0a 40 3c f8 
 10037bc:	03 43 c0 01 	JSR        0x01001120     // 1001120 <txstr>
 10037c0:	78 83 d9 5c 
 10037c4:	13 42 00 00 	MOV        R8,R2
 10037c8:	0a 00 00 80 	LDI        0x01003cf9,R1  // 1003cf9 <entry+0x1b25>
 10037cc:	0a 40 3c f9 
 10037d0:	10 80 00 01 	ADD        $1,R2
 10037d4:	08 80 00 01 	ADD        $1,R1
 10037d8:	1d 84 7f ff 	LB         -1(R1),R3
 10037dc:	1c 00 00 00 	CMP        $0,R3
 10037e0:	78 ab ff ec 	BNZ        @0x010037d0    // 10037d0 <entry+0x15fc>
 10037e4:	2e 00 00 1f 	LDI        $31,R5
 10037e8:	28 04 80 00 	SUB        R2,R5
 10037ec:	0e 00 00 20 	LDI        $32,R1
 10037f0:	08 04 80 00 	SUB        R2,R1
 10037f4:	0c 00 00 01 	CMP        $1,R1
 10037f8:	78 b0 00 24 	BGE        @0x01003820    // 1003820 <entry+0x164c>
 10037fc:	0e 20 00 00 	LDI        $2097152,R1
 1003800:	54 84 40 00 	LW         (R1),R10
 1003804:	13 43 44 40 	MOV        $1088+SP,R2
 1003808:	0b 43 d6 a2 	MOV        0x01001294,R1  // 1001294 <mpyhi_test>
 100380c:	03 43 c0 01 	JSR        0x01000050     // 1000050 <run_test>
 1003810:	78 83 c8 3c 
 1003814:	0c 00 00 00 	CMP        $0,R1
 1003818:	78 88 00 3c 	BZ         @0x01003858    // 1003858 <entry+0x1684>
 100381c:	78 80 00 20 	BRA        @0x01003840    // 1003840 <entry+0x166c>
 1003820:	03 43 c0 01 	JSR        0x01001054     // 1001054 <txchr.constprop.3>
 1003824:	78 83 d8 2c 
 1003828:	28 83 ff ff 	ADD        $-1,R5
 100382c:	0b 41 40 00 	MOV        R5,R1
 1003830:	08 80 00 01 	ADD        $1,R1
 1003834:	0c 00 00 01 	CMP        $1,R1
 1003838:	78 b3 ff e4 	BGE        @0x01003820    // 1003820 <entry+0x164c>
 100383c:	78 83 ff bc 	BRA        @0x010037fc    // 10037fc <entry+0x1628>
 1003840:	49 80 00 02 	LSL        $2,R9
 1003844:	13 41 80 00 	MOV        R6,R2
 1003848:	10 86 40 00 	ADD        R9,R2
 100384c:	0b 42 80 00 	MOV        R10,R1
 1003850:	03 43 c0 01 	JSR        0x01001ef8     // 1001ef8 <test_fails>
 1003854:	78 83 e6 a0 
 1003858:	2b 43 a0 00 	MOV        uCC,R5
 100385c:	28 40 9d 80 	AND        $40320,R5
 1003860:	78 ab ff dc 	BNZ        @0x01003840    // 1003840 <entry+0x166c>
 1003864:	0a 00 00 80 	LDI        0x01003d5c,R1  // 1003d5c <entry+0x1b88>
 1003868:	0a 40 3d 5c 
 100386c:	03 43 c0 01 	JSR        0x01001120     // 1001120 <txstr>
 1003870:	78 83 d8 ac 
 1003874:	49 80 00 02 	LSL        $2,R9
 1003878:	0b 41 80 00 	MOV        R6,R1
 100387c:	08 86 40 00 	ADD        R9,R1
 1003880:	2c c4 40 00 	SW         R5,(R1)
 1003884:	4b 41 c0 17 	MOV        $23+R7,R9
 1003888:	0a 00 00 80 	LDI        0x01003d10,R1  // 1003d10 <entry+0x1b3c>
 100388c:	0a 40 3d 10 
 1003890:	03 43 c0 01 	JSR        0x01001120     // 1001120 <txstr>
 1003894:	78 83 d8 88 
 1003898:	0a 00 00 80 	LDI        0x01003d11,R1  // 1003d11 <entry+0x1b3d>
 100389c:	0a 40 3d 11 
 10038a0:	40 80 00 01 	ADD        $1,R8
 10038a4:	08 80 00 01 	ADD        $1,R1
 10038a8:	15 84 7f ff 	LB         -1(R1),R2
 10038ac:	14 00 00 00 	CMP        $0,R2
 10038b0:	78 ab ff ec 	BNZ        @0x010038a0    // 10038a0 <entry+0x16cc>
 10038b4:	2e 00 00 1f 	LDI        $31,R5
 10038b8:	28 06 00 00 	SUB        R8,R5
 10038bc:	0e 00 00 20 	LDI        $32,R1
 10038c0:	08 06 00 00 	SUB        R8,R1
 10038c4:	0c 00 00 01 	CMP        $1,R1
 10038c8:	78 b0 00 14 	BGE        @0x010038e0    // 10038e0 <entry+0x170c>
 10038cc:	0b 43 80 00 	MOV        CC,R1
 10038d0:	12 00 00 04 	BREV       $4,R2
 10038d4:	08 44 80 00 	AND        R2,R1
 10038d8:	78 88 00 24 	BZ         @0x01003900    // 1003900 <entry+0x172c>
 10038dc:	78 80 00 34 	BRA        @0x01003914    // 1003914 <entry+0x1740>
 10038e0:	03 43 c0 01 	JSR        0x01001054     // 1001054 <txchr.constprop.3>
 10038e4:	78 83 d7 6c 
 10038e8:	28 83 ff ff 	ADD        $-1,R5
 10038ec:	0b 41 40 00 	MOV        R5,R1
 10038f0:	08 80 00 01 	ADD        $1,R1
 10038f4:	0c 00 00 01 	CMP        $1,R1
 10038f8:	78 b3 ff e4 	BGE        @0x010038e0    // 10038e0 <entry+0x170c>
 10038fc:	78 83 ff cc 	BRA        @0x010038cc    // 10038cc <entry+0x16f8>
 1003900:	0a 00 00 80 	LDI        0x01003db4,R1  // 1003db4 <entry+0x1be0>
 1003904:	0a 40 3d b4 
 1003908:	03 43 c0 01 	JSR        0x01001120     // 1001120 <txstr>
 100390c:	78 83 d8 10 
 1003910:	78 80 00 80 	BRA        @0x01003994    // 1003994 <entry+0x17c0>
 1003914:	0e 20 00 00 	LDI        $2097152,R1
 1003918:	2c 84 40 00 	LW         (R1),R5
 100391c:	13 43 44 40 	MOV        $1088+SP,R2
 1003920:	0b 43 d3 24 	MOV        0x010005b4,R1  // 10005b4 <div_test>
 1003924:	03 43 c0 01 	JSR        0x01000050     // 1000050 <run_test>
 1003928:	78 83 c7 24 
 100392c:	0c 00 00 00 	CMP        $0,R1
 1003930:	78 88 00 18 	BZ         @0x0100394c    // 100394c <entry+0x1778>
 1003934:	49 80 00 02 	LSL        $2,R9
 1003938:	13 41 80 00 	MOV        R6,R2
 100393c:	10 86 40 00 	ADD        R9,R2
 1003940:	0b 41 40 00 	MOV        R5,R1
 1003944:	03 43 c0 01 	JSR        0x01001ef8     // 1001ef8 <test_fails>
 1003948:	78 83 e5 ac 
 100394c:	0b 43 a0 00 	MOV        uCC,R1
 1003950:	08 40 9c 50 	AND        $40016,R1
 1003954:	78 ab ff dc 	BNZ        @0x01003934    // 1003934 <entry+0x1760>
 1003958:	0b 43 a0 00 	MOV        uCC,R1
 100395c:	08 40 01 00 	AND        $256,R1
 1003960:	78 88 00 10 	BZ         @0x01003974    // 1003974 <entry+0x17a0>
 1003964:	0a 00 00 80 	LDI        0x01003dd0,R1  // 1003dd0 <entry+0x1bfc>
 1003968:	0a 40 3d d0 
 100396c:	03 43 c0 01 	JSR        0x01001120     // 1001120 <txstr>
 1003970:	78 83 d7 ac 
 1003974:	0a 00 00 80 	LDI        0x01003d5c,R1  // 1003d5c <entry+0x1b88>
 1003978:	0a 40 3d 5c 
 100397c:	03 43 c0 01 	JSR        0x01001120     // 1001120 <txstr>
 1003980:	78 83 d7 9c 
 1003984:	49 80 00 02 	LSL        $2,R9
 1003988:	30 86 40 00 	ADD        R9,R6
 100398c:	06 00 00 00 	CLR        R0
 1003990:	04 c5 80 00 	SW         R0,(R6)
 1003994:	0a 00 00 80 	LDI        0x01003d78,R1  // 1003d78 <entry+0x1ba4>
 1003998:	0a 40 3d 78 
 100399c:	03 43 c0 01 	JSR        0x01001120     // 1001120 <txstr>
 10039a0:	78 83 d7 7c 
 10039a4:	0a 00 00 80 	LDI        0x01003d34,R1  // 1003d34 <entry+0x1b60>
 10039a8:	0a 40 3d 34 
 10039ac:	03 43 c0 01 	JSR        0x01001120     // 1001120 <txstr>
 10039b0:	78 83 d7 6c 
 10039b4:	0a 00 00 80 	LDI        0x01003df0,R1  // 1003df0 <entry+0x1c1c>
 10039b8:	0a 40 3d f0 
 10039bc:	03 43 c0 01 	JSR        0x01001120     // 1001120 <txstr>
 10039c0:	78 83 d7 5c 
 10039c4:	12 00 06 00 	BREV       $1536,R2
 10039c8:	0c 84 80 0c 	LW         12(R2),R1
 10039cc:	08 40 01 00 	AND        $256,R1
 10039d0:	78 ab ff f4 	BNZ        @0x010039c8    // 10039c8 <entry+0x17f4>
 10039d4:	0a 00 00 80 	LDI        0x01003d78,R1  // 1003d78 <entry+0x1ba4>
 10039d8:	0a 40 3d 78 
 10039dc:	03 43 c0 01 	JSR        0x01001120     // 1001120 <txstr>
 10039e0:	78 83 d7 3c 
 10039e4:	12 00 06 00 	BREV       $1536,R2
 10039e8:	0c 84 80 0c 	LW         12(R2),R1
 10039ec:	08 40 01 00 	AND        $256,R1
 10039f0:	78 ab ff f4 	BNZ        @0x010039e8    // 10039e8 <entry+0x1814>
 10039f4:	0e 00 c3 50 	LDI        $50000,R1
 10039f8:	7f c0 00 00 	NOOP
 10039fc:	08 83 ff ff 	ADD        $-1,R1
 1003a00:	78 ab ff f4 	BNZ        @0x010039f8    // 10039f8 <entry+0x1824>
 1003a04:	7f c0 01 00 	NEXIT
 1003a08:	70 c0 00 10 	HALT
 1003a0c:	04 87 44 40 	LW         1088(SP),R0
 1003a10:	2c 87 44 44 	LW         1092(SP),R5
 1003a14:	34 87 44 48 	LW         1096(SP),R6
 1003a18:	3c 87 44 4c 	LW         1100(SP),R7
 1003a1c:	44 87 44 50 	LW         1104(SP),R8
 1003a20:	4c 87 44 54 	LW         1108(SP),R9
 1003a24:	54 87 44 58 	LW         1112(SP),R10
 1003a28:	68 80 04 5c 	ADD        $1116,SP
 1003a2c:	7b 40 00 00 	RTN
 1003a30:	20 78 20 00 	AND.NC     $8192,R4
 1003a34:	20 3d 20 00 	SUB.NC     $-8192+R4,R4
 1003a38:	28 53 6f 66 	AND.LT     $-37018,R5
 1003a3c:	74 29 20 3d 	CMP.NZ     $73789,CC
 1003a40:	20 00 00 00 	SUB        $0,R4
 1003a44:	28 48 61 72 	AND.Z      $24946,R5
 1003a48:	64 29 0d 0a 	CMP.NZ     $68874,R12
 1003a4c:	00 00 00 00 	SUB        $0,R0
 1003a50:	4d 50 59 55 	SH.LT      R9,($22869)
 1003a54:	48 49 3a 20 	AND.Z      $80416,R9
 1003a58:	00 00 00 00 	SUB        $0,R0
 1003a5c:	4d 50 59 53 	SH.LT      R9,($22867)
 1003a60:	48 49 3a 20 	AND.Z      $80416,R9
 1003a64:	00 00 00 00 	SUB        $0,R0
 1003a68:	4d 50 59 53 	SH.LT      R9,($22867)
 1003a6c:	48 49 2d 4e 	AND.Z      $77134,R9
 1003a70:	45 47 3a 20 	SH         R8,$-1504(R12)
 1003a74:	00 00 00 00 	SUB        $0,R0
 1003a78:	20 20 20 20 	SUB.V      $8224,R4
 1003a7c:	00 00 00 00 	SUB        $0,R0
 1003a80:	46 41 49 4c 	LDI        $-4110004,R8
 1003a84:	21 0d 0a 0d 	XOR.Z      $2573+R4,R4
 1003a88:	0a 00 00 00 	CLR        $0,R1
 1003a8c:	42 65 74 77 	LDILO.V    $-2953+R5,R8
 1003a90:	65 65 6e 20 	SH.V       R12,$-4576(R5)
 1003a94:	30 78 00 00 	AND.NC     $0,R6
 1003a98:	20 61 6e 64 	AND.V      $93796,R4
 1003a9c:	20 30 78 00 	SUB.GE     $30720,R4
 1003aa0:	0d 0a 0d 0a 	LH.Z       ($-127734),R1
 1003aa4:	00 00 00 00 	SUB        $0,R0
 1003aa8:	43 6f 72 65 	MOV.NZ     $-3483+uSP,uR8
 1003aac:	2d 64 75 6d 	SH.V       R5,$-2707(R1)
 1003ab0:	70 3a 0d 0a 	SUB.NC     $-127734,CC
 1003ab4:	00 00 00 00 	SUB        $0,R0
 1003ab8:	75 52 30 20 	SH.LT      CC,($-118752)
 1003abc:	3a 20 00 00 	CLR.V      $0,R7
 1003ac0:	75 52 31 20 	SH.LT      CC,($-118496)
 1003ac4:	3a 20 00 00 	CLR.V      $0,R7
 1003ac8:	75 52 32 20 	SH.LT      CC,($-118240)
 1003acc:	3a 20 00 00 	CLR.V      $0,R7
 1003ad0:	75 52 33 20 	SH.LT      CC,($-117984)
 1003ad4:	3a 20 00 00 	CLR.V      $0,R7
 1003ad8:	75 52 34 20 	SH.LT      CC,($-117728)
 1003adc:	3a 20 00 00 	CLR.V      $0,R7
 1003ae0:	75 52 35 20 	SH.LT      CC,($-117472)
 1003ae4:	3a 20 00 00 	CLR.V      $0,R7
 1003ae8:	75 52 36 20 	SH.LT      CC,($-117216)
 1003aec:	3a 20 00 00 	CLR.V      $0,R7
 1003af0:	75 52 37 20 	SH.LT      CC,($-116960)
 1003af4:	3a 20 00 00 	CLR.V      $0,R7
 1003af8:	75 52 38 20 	SH.LT      CC,($-116704)
 1003afc:	3a 20 00 00 	CLR.V      $0,R7
 1003b00:	75 52 39 20 	SH.LT      CC,($-116448)
 1003b04:	3a 20 00 00 	CLR.V      $0,R7
 1003b08:	75 52 31 30 	SH.LT      CC,($-118480)
 1003b0c:	3a 20 00 00 	CLR.V      $0,R7
 1003b10:	75 52 31 31 	SH.LT      CC,($-118479)
 1003b14:	3a 20 00 00 	CLR.V      $0,R7
 1003b18:	75 52 31 32 	SH.LT      CC,($-118478)
 1003b1c:	3a 20 00 00 	CLR.V      $0,R7
 1003b20:	75 53 50 20 	SH.LT      CC,($-45024)
 1003b24:	3a 20 00 00 	CLR.V      $0,R7
 1003b28:	75 43 43 20 	SH         CC,($-48352)
 1003b2c:	3a 20 00 00 	CLR.V      $0,R7
 1003b30:	75 50 43 20 	SH.LT      CC,($17184)
 1003b34:	3a 20 00 00 	CLR.V      $0,R7
 1003b38:	53 49 4d 20 	MOV.Z      $3360+R5,R10
 1003b3c:	49 6e 73 74 	LSR.NZ     $-3212+R9,R9
 1003b40:	72 75 63 74 	LDILO.GE   $-7308+R5,CC
 1003b44:	69 6f 6e 73 	LSR.NZ     $-4493+SP,SP
 1003b48:	00 00 00 00 	SUB        $0,R0
 1003b4c:	43 49 53 20 	MOV.Z      $-3296+R5,R8
 1003b50:	49 6e 73 74 	LSR.NZ     $-3212+R9,R9
 1003b54:	72 75 63 74 	LDILO.GE   $-7308+R5,CC
 1003b58:	69 6f 6e 73 	LSR.NZ     $-4493+SP,SP
 1003b5c:	00 00 00 00 	SUB        $0,R0
 1003b60:	42 72 65 61 	LDILO.GE   $-105119,R8
 1003b64:	6b 20 74 65 	MPY.V      $29797,SP
 1003b68:	73 74 20 23 	MOV.GE     $35+uR0,uCC
 1003b6c:	31 00 00 00 	XOR        $0,R6
 1003b70:	42 72 65 61 	LDILO.GE   $-105119,R8
 1003b74:	6b 20 74 65 	MPY.V      $29797,SP
 1003b78:	73 74 20 23 	MOV.GE     $35+uR0,uCC
 1003b7c:	32 00 00 00 	CLR        $0,R6
 1003b80:	42 72 65 61 	LDILO.GE   $-105119,R8
 1003b84:	6b 20 74 65 	MPY.V      $29797,SP
 1003b88:	73 74 20 23 	MOV.GE     $35+uR0,uCC
 1003b8c:	33 00 00 00 	MPY        $0,R6
 1003b90:	45 61 72 6c 	SH.V       R8,($94828)
 1003b94:	79 20 42 72 	XOR.V      $17010,PC
 1003b98:	61 6e 63 68 	LSR.NZ     $-7320+R9,R12
 1003b9c:	20 74 65 73 	AND.GE     $-6797+R1,R4
 1003ba0:	74 00 00 00 	CMP        $0,CC
 1003ba4:	54 72 61 70 	TST.GE     $-106128,R10
 1003ba8:	20 74 65 73 	AND.GE     $-6797+R1,R4
 1003bac:	74 2f 41 4e 	CMP.NZ     $334+SP,CC
 1003bb0:	44 00 00 00 	CMP        $0,R8
 1003bb4:	54 72 61 70 	TST.GE     $-106128,R10
 1003bb8:	20 74 65 73 	AND.GE     $-6797+R1,R4
 1003bbc:	74 2f 43 4c 	CMP.NZ     $844+SP,CC
 1003bc0:	52 00 00 00 	CLR        $0,R10
 1003bc4:	4f 76 65 72 	ILL 4f766572
 1003bc8:	66 6c 6f 77 	LDI        $-1282185,R12
 1003bcc:	20 74 65 73 	AND.GE     $-6797+R1,R4
 1003bd0:	74 00 00 00 	CMP        $0,CC
 1003bd4:	43 61 72 72 	MOV.V      $-3470+uR5,R8
 1003bd8:	79 20 74 65 	XOR.V      $29797,PC
 1003bdc:	73 74 00 00 	MOV.GE     R0,uCC
 1003be0:	4c 6f 6f 70 	TST.NZ     $-4240+SP,R9
 1003be4:	20 74 65 73 	AND.GE     $-6797+R1,R4
 1003be8:	74 00 00 00 	CMP        $0,CC
 1003bec:	53 68 69 66 	MOV.NZ     $2406+uR1,R10
 1003bf0:	74 20 74 65 	CMP.V      $29797,CC
 1003bf4:	73 74 00 00 	MOV.GE     R0,uCC
 1003bf8:	4d 65 6d 2d 	SH.V       R9,$-4819(R5)
 1003bfc:	50 69 70 65 	AND.NZ     $94309,R10
 1003c00:	6c 69 6e 65 	TST.NZ     $93797,SP
 1003c04:	20 74 65 73 	AND.GE     $-6797+R1,R4
 1003c08:	74 00 00 00 	CMP        $0,CC
 1003c0c:	43 6f 6e 64 	MOV.NZ     $3684+uSP,uR8
 1003c10:	69 74 69 6f 	LSR.GE     $-5777+R1,SP
 1003c14:	6e 61 6c 20 	LDI        $-2003936,SP
 1003c18:	45 78 65 63 	SH.NC      R8,($25955)
 1003c1c:	75 74 69 6f 	SH.GE      CC,$-5777(R1)
 1003c20:	6e 20 74 65 	LDI        $2126949,SP
 1003c24:	73 74 00 00 	MOV.GE     R0,uCC
 1003c28:	4e 6f 2d 77 	LDI        $-1102473,R9
 1003c2c:	61 69 74 69 	LSR.NZ     $95337,R12
 1003c30:	6e 67 20 70 	LDI        $-1630096,SP
 1003c34:	69 70 65 6c 	LSR.GE     $25964,SP
 1003c38:	69 6e 65 20 	LSR.NZ     $-6880+R9,SP
 1003c3c:	74 65 73 74 	TST.V      $-3212+R5,CC
 1003c40:	00 00 00 00 	SUB        $0,R0
 1003c44:	43 6f 6e 64 	MOV.NZ     $3684+uSP,uR8
 1003c48:	69 74 69 6f 	LSR.GE     $-5777+R1,SP
 1003c4c:	6e 61 6c 20 	LDI        $-2003936,SP
 1003c50:	42 72 61 6e 	LDILO.GE   $-106130,R8
 1003c54:	63 68 69 6e 	MOV.NZ     $2414+uR1,R12
 1003c58:	67 20 74 65 	ILL 67207465
 1003c5c:	73 74 00 00 	MOV.GE     R0,uCC
 1003c60:	49 6c 6c 20 	LSR.NZ     $-5088+R1,R9
 1003c64:	49 6e 73 74 	LSR.NZ     $-3212+R9,R9
 1003c68:	72 75 63 74 	LDILO.GE   $-7308+R5,CC
 1003c6c:	69 6f 6e 20 	LSR.NZ     $-4576+SP,SP
 1003c70:	74 65 73 74 	TST.V      $-3212+R5,CC
 1003c74:	2c 20 4e 55 	CMP.V      $20053,R5
 1003c78:	4c 4c 20 50 	TST.Z      $-8112+R0,R9
 1003c7c:	43 00 00 00 	MPY        $0,R8
 1003c80:	49 6c 6c 20 	LSR.NZ     $-5088+R1,R9
 1003c84:	49 6e 73 74 	LSR.NZ     $-3212+R9,R9
 1003c88:	72 75 63 74 	LDILO.GE   $-7308+R5,CC
 1003c8c:	69 6f 6e 20 	LSR.NZ     $-4576+SP,SP
 1003c90:	74 65 73 74 	TST.V      $-3212+R5,CC
 1003c94:	2c 20 74 77 	CMP.V      $29815,R5
 1003c98:	6f 00 00 00 	ILL 6f000000
 1003c9c:	43 6f 6d 70 	MOV.NZ     $3440+uSP,uR8
 1003ca0:	61 72 69 73 	LSR.GE     $-104077,R12
 1003ca4:	6f 6e 20 74 	ILL 6f6e2074
 1003ca8:	65 73 74 2c 	SH.GE      R12,($-35796)
 1003cac:	20 3d 3d 00 	SUB.NC     $-768+R4,R4
 1003cb0:	43 6f 6d 70 	MOV.NZ     $3440+uSP,uR8
 1003cb4:	61 72 69 73 	LSR.GE     $-104077,R12
 1003cb8:	6f 6e 20 74 	ILL 6f6e2074
 1003cbc:	65 73 74 2c 	SH.GE      R12,($-35796)
 1003cc0:	20 21 3d 00 	SUB.V      $81152,R4
 1003cc4:	43 43 20 52 	MOV        $82+uR12,R8
 1003cc8:	65 67 69 73 	SH.V       R12,$-5773(SP)
 1003ccc:	74 65 72 20 	TST.V      $-3552+R5,CC
 1003cd0:	74 65 73 74 	TST.V      $-3212+R5,CC
 1003cd4:	00 00 00 00 	SUB        $0,R0
 1003cd8:	4d 75 6c 74 	SH.GE      R9,$-5004(R5)
 1003cdc:	69 2d 41 72 	XOR.NZ     $370+R5,SP
 1003ce0:	67 20 74 65 	ILL 67207465
 1003ce4:	73 74 00 00 	MOV.GE     R0,uCC
 1003ce8:	4d 75 6c 74 	SH.GE      R9,$-5004(R5)
 1003cec:	69 70 6c 79 	LSR.GE     $27769,SP
 1003cf0:	20 74 65 73 	AND.GE     $-6797+R1,R4
 1003cf4:	74 00 00 00 	CMP        $0,CC
 1003cf8:	4d 75 6c 74 	SH.GE      R9,$-5004(R5)
 1003cfc:	69 70 6c 79 	LSR.GE     $27769,SP
 1003d00:	20 48 49 2d 	AND.Z      $18733,R4
 1003d04:	77 6f 72 64 	LOCK       $-1084828
 1003d08:	20 74 65 73 	AND.GE     $-6797+R1,R4
 1003d0c:	74 00 00 00 	CMP        $0,CC
 1003d10:	44 69 76 69 	TST.NZ     $95849,R8
 1003d14:	64 65 20 74 	TST.V      $-8076+R4,R12
 1003d18:	65 73 74 00 	SH.GE      R12,($-35840)
 1003d1c:	52 75 6e 6e 	LDILO.GE   $-4498+R5,R10
 1003d20:	69 6e 67 20 	LSR.NZ     $-6368+R9,SP
 1003d24:	43 50 55 20 	MOV.LT     $-2784+R1,R8
 1003d28:	73 65 6c 66 	MOV.V      $3174+uR5,uCC
 1003d2c:	2d 74 65 73 	SH.GE      R5,$-6797(R1)
 1003d30:	74 0d 0a 00 	CMP.Z      $2560+R4,CC
 1003d34:	2d 2d 2d 2d 	LH.NZ      -4819(R4),R5
 1003d38:	2d 2d 2d 2d 	LH.NZ      -4819(R4),R5
 1003d3c:	2d 2d 2d 2d 	LH.NZ      -4819(R4),R5
 1003d40:	2d 2d 2d 2d 	LH.NZ      -4819(R4),R5
 1003d44:	2d 2d 2d 2d 	LH.NZ      -4819(R4),R5
 1003d48:	2d 2d 2d 2d 	LH.NZ      -4819(R4),R5
 1003d4c:	2d 2d 2d 2d 	LH.NZ      -4819(R4),R5
 1003d50:	2d 2d 2d 2d 	LH.NZ      -4819(R4),R5
 1003d54:	2d 2d 2d 0d 	LH.NZ      -4851(R4),R5
 1003d58:	0a 00 00 00 	CLR        $0,R1
 1003d5c:	50 61 73 73 	AND.V      $95091,R10
 1003d60:	0d 0a 00 00 	LH.Z       ($-131072),R1
 1003d64:	49 73 20 74 	LSR.GE     $-57228,R9
 1003d68:	68 69 73 20 	AND.NZ     $95008,SP
 1003d6c:	61 20 73 69 	XOR.V      $29545,R12
 1003d70:	6d 75 6c 61 	SH.GE      SP,$-5023(R5)
 1003d74:	74 6f 72 3f 	TST.NZ     $-3521+SP,CC
 1003d78:	0d 0a 00 00 	LH.Z       ($-131072),R1
 1003d7c:	4e 6f 74 20 	LDI        $-1084384,R9
 1003d80:	73 75 70 70 	MOV.GE     $-3984+uR5,uCC
 1003d84:	6f 72 74 65 	ILL 6f727465
 1003d88:	64 0d 0a 00 	CMP.Z      $2560+R4,R12
 1003d8c:	53 75 70 70 	MOV.GE     $-3984+uR5,uR10
 1003d90:	6f 72 74 65 	ILL 6f727465
 1003d94:	64 0d 0a 00 	CMP.Z      $2560+R4,R12
 1003d98:	4e 6f 20 4d 	LDI        $-1105843,R9
 1003d9c:	75 6c 74 69 	SH.NZ      CC,$-2967(R1)
 1003da0:	70 6c 79 20 	AND.NZ     $-1760+R1,CC
 1003da4:	49 6d 70 6c 	LSR.NZ     $-3988+R5,R9
 1003da8:	65 6d 65 6e 	SH.NZ      R12,$-6802(R5)
 1003dac:	74 65 64 0d 	TST.V      $-7155+R5,CC
 1003db0:	0a 00 00 00 	CLR        $0,R1
 1003db4:	4e 6f 20 64 	LDI        $-1105820,R9
 1003db8:	69 76 69 64 	LSR.GE     $-5788+R9,SP
 1003dbc:	65 20 75 6e 	LH.V       ($30062),R12
 1003dc0:	69 74 20 69 	LSR.GE     $-8087+R0,SP
 1003dc4:	6e 73 74 61 	LDI        $-822175,SP
 1003dc8:	6c 6c 65 64 	TST.NZ     $-6812+R1,SP
 1003dcc:	0d 0a 00 00 	LH.Z       ($-131072),R1
 1003dd0:	4e 6f 20 44 	LDI        $-1105852,R9
 1003dd4:	69 76 69 64 	LSR.GE     $-5788+R9,SP
 1003dd8:	65 20 49 6d 	LH.V       ($18797),R12
 1003ddc:	70 6c 65 6d 	AND.NZ     $-6803+R1,CC
 1003de0:	65 6e 74 65 	SH.NZ      R12,$-2971(R9)
 1003de4:	64 20 28 3f 	CMP.V      $10303,R12
 1003de8:	3f 29 0d 0a 	ILL 3f290d0a
 1003dec:	00 00 00 00 	SUB        $0,R0
 1003df0:	41 6c 6c 20 	LSR.NZ     $-5088+R1,R8
 1003df4:	74 65 73 74 	TST.V      $-3212+R5,CC
 1003df8:	73 20 70 61 	MPY.V      $28769,CC
 1003dfc:	73 73 65 64 	MOV.GE     $1380+uSP,CC
 1003e00:	2e 20 20 48 	LDI        $2105416,R5
 1003e04:	61 6c 74 69 	LSR.NZ     $-2967+R1,R12
 1003e08:	6e 67 20 43 	LDI        $-1630141,SP
 1003e0c:	50 55 2e 0d 	AND.LT     $-4595+R4,R10
 1003e10:	0a 00 00 00 	CLR        $0,R1

01003e14 <testlist>:
	...
