
jpeg:     file format elf32-zip


Disassembly of section .rocode:

02000000 <_boot_address>:
 2000000:	6a 00 00 c0 	LDI        0x03000000,SP  // 3000000 <_top_of_stack>
 2000004:	6a 40 00 00 
 2000008:	7b 47 c0 09 	MOV        $36+PC,uPC
 200000c:	0e 00 00 00 	CLR        R1
 2000010:	13 43 c0 09 	MOV        0x02000038,R2  // 2000038 <_argv>
 2000014:	1a 03 20 40 	LDI        0x0204f1b0,R3  // 204f1b0 <__env>
 2000018:	1a 40 f1 b0 
 200001c:	87 fa fc f8 	JSR        0x02000044     // 2000044 <main>
 2000020:	02 00 00 44 

02000024 <_graceful_kernel_exit>:
 2000024:	87 fa fc f8 	JSR        0x02000920     // 2000920 <exit>
 2000028:	02 00 09 20 

0200002c <_hw_shutdown>:
 200002c:	7f c0 03 01 	NEXIT      R1

02000030 <_kernel_is_dead>:
 2000030:	70 c0 00 10 	HALT
 2000034:	78 83 ff f8 	BRA        @0x02000030    // 2000030 <_kernel_is_dead>

02000038 <_argv>:
	...

02000040 <__define_the_top_of_the_stack__>:
 2000040:	7b 40 00 00 	RTN

02000044 <main>:
 2000044:	e8 38 85 18 	SUB        $56,SP         | SW         R0,$24(SP)
 2000048:	ad 1c b5 20 	SW         R5,$28(SP)     | SW         R6,$32(SP)
 200004c:	bd 24 c5 28 	SW         R7,$36(SP)     | SW         R8,$40(SP)
 2000050:	cd 2c d5 30 	SW         R9,$44(SP)     | SW         R10,$48(SP)
 2000054:	5c c7 40 34 	SW         R11,$52(SP)
 2000058:	3a 03 00 40 	LDI        0x0200f148,R7  // 200f148 <ptrs>
 200005c:	3a 40 f1 48 
 2000060:	0e 04 00 04 	LDI        $262148,R1
 2000064:	c7 b8 c2 88 	MOV        R7,R8          | ADD        R1,R8
 2000068:	06 00 01 00 	LDI        $256,R0
 200006c:	04 c6 00 00 	SW         R0,(R8)
 2000070:	0e 04 00 08 	LDI        $262152,R1
 2000074:	cf b8 ca 88 	MOV        R7,R9          | ADD        R1,R9
 2000078:	04 c6 40 00 	SW         R0,(R9)
 200007c:	0e 04 00 1c 	LDI        $262172,R1
 2000080:	d7 b8 d2 88 	MOV        R7,R10         | ADD        R1,R10
 2000084:	02 00 02 80 	LDI        0x01401000,R0  // 1401000 <_bkram+0x1000>
 2000088:	02 40 10 00 
 200008c:	04 c6 80 00 	SW         R0,(R10)
 2000090:	0e 04 00 20 	LDI        $262176,R1
 2000094:	df b8 da 88 	MOV        R7,R11         | ADD        R1,R11
 2000098:	02 40 10 04 	LDILO      $4100,R0
 200009c:	04 c6 c0 00 	SW         R0,(R11)
 20000a0:	0e 08 00 00 	LDI        $524288,R1
 20000a4:	87 fa fc f8 	JSR        0x0200095c     // 200095c <malloc>
 20000a8:	02 00 09 5c 
 20000ac:	af 88 8e 04 	MOV        R1,R5          | LDI        $4,R1
 20000b0:	87 fa fc f8 	JSR        0x0200095c     // 200095c <malloc>
 20000b4:	02 00 09 5c 
 20000b8:	2c 00 00 00 	CMP        $0,R5
 20000bc:	78 88 02 08 	BZ         @0x020002c8    // 20002c8 <main+0x284>
 20000c0:	b7 88 8b 00 	MOV        R1,R6          | CMP        $0,R1
 20000c4:	78 88 02 08 	BZ         @0x020002d0    // 20002d0 <main+0x28c>
 20000c8:	7f 00 00 00 	BREAK      @0x020000cc    // 20000cc <main+0x88>
 20000cc:	ad 08 bd 04 	SW         R5,$8(SP)      | SW         R7,$4(SP)
 20000d0:	02 03 00 40 	LDI        0x0200e228,R0  // 200e228 <__errno+0x50>
 20000d4:	02 40 e2 28 
 20000d8:	04 c7 40 00 	SW         R0,(SP)
 20000dc:	87 fa fc f8 	JSR        0x02001798     // 2001798 <printf>
 20000e0:	02 00 17 98 
 20000e4:	34 c7 40 04 	SW         R6,$4(SP)
 20000e8:	02 03 00 40 	LDI        0x0200e24c,R0  // 200e24c <__errno+0x74>
 20000ec:	02 40 e2 4c 
 20000f0:	04 c7 40 00 	SW         R0,(SP)
 20000f4:	87 fa fc f8 	JSR        0x02001798     // 2001798 <printf>
 20000f8:	02 00 17 98 
 20000fc:	9c c0 8c c8 	LW         (R8),R3        | LW         (R9),R1
 2000100:	1b 04 40 00 	MPY        R1,R3
 2000104:	9a 98 9b 01 	ADD        R3,R3          | CMP        $1,R3
 2000108:	78 b0 00 38 	BGE        @0x02000144    // 2000144 <main+0x100>
 200010c:	8c d0 8c 88 	LW         (R10),R1       | LW         (R1),R1
 2000110:	16 04 00 00 	LDI        $262144,R2
 2000114:	ba 90 8d b8 	ADD        R2,R7          | SW         R1,(R7)
 2000118:	23 41 40 00 	MOV        R5,R4
 200011c:	1a 03 00 40 	LDI        0x0200f148,R3  // 200f148 <ptrs>
 2000120:	1a 40 f1 48 
 2000124:	16 00 ff ff 	LDI        $65535,R2
 2000128:	87 fa fc f8 	JSR        0x02000760     // 2000760 <split>
 200012c:	02 00 07 60 
 2000130:	8c d8 8c 88 	LW         (R11),R1       | LW         (R1),R1
 2000134:	8d b0 8c b8 	SW         R1,(R6)        | LW         (R7),R1
 2000138:	0c 00 00 00 	CMP        $0,R1
 200013c:	78 a8 00 2c 	BNZ        @0x0200016c    // 200016c <main+0x128>
 2000140:	78 80 00 14 	BRA        @0x02000158    // 2000158 <main+0x114>
 2000144:	19 80 00 02 	LSL        $2,R3
 2000148:	96 00 8f a8 	CLR        R2             | MOV        R5,R1
 200014c:	87 fa fc f8 	JSR        0x02001524     // 2001524 <memset>
 2000150:	02 00 15 24 
 2000154:	78 83 ff b4 	BRA        @0x0200010c    // 200010c <main+0xc8>
 2000158:	0a 03 00 40 	LDI        0x0200e25c,R1  // 200e25c <__errno+0x84>
 200015c:	0a 40 e2 5c 
 2000160:	87 fa fc f8 	JSR        0x0200186c     // 200186c <puts>
 2000164:	02 00 18 6c 
 2000168:	78 80 00 6c 	BRA        @0x020001d8    // 20001d8 <main+0x194>
 200016c:	0c 00 00 01 	CMP        $1,R1
 2000170:	78 a8 00 14 	BNZ        @0x02000188    // 2000188 <main+0x144>
 2000174:	0a 03 00 40 	LDI        0x0200e274,R1  // 200e274 <__errno+0x9c>
 2000178:	0a 40 e2 74 
 200017c:	87 fa fc f8 	JSR        0x0200186c     // 200186c <puts>
 2000180:	02 00 18 6c 
 2000184:	78 80 00 50 	BRA        @0x020001d8    // 20001d8 <main+0x194>
 2000188:	0c 00 00 02 	CMP        $2,R1
 200018c:	78 a8 00 14 	BNZ        @0x020001a4    // 20001a4 <main+0x160>
 2000190:	0a 03 00 40 	LDI        0x0200e28c,R1  // 200e28c <__errno+0xb4>
 2000194:	0a 40 e2 8c 
 2000198:	87 fa fc f8 	JSR        0x0200186c     // 200186c <puts>
 200019c:	02 00 18 6c 
 20001a0:	78 80 00 34 	BRA        @0x020001d8    // 20001d8 <main+0x194>
 20001a4:	0a 03 00 40 	LDI        0x0200e2a4,R1  // 200e2a4 <__errno+0xcc>
 20001a8:	0a 40 e2 a4 
 20001ac:	87 fa fc f8 	JSR        0x0200186c     // 200186c <puts>
 20001b0:	02 00 18 6c 
 20001b4:	0b 41 40 00 	MOV        R5,R1
 20001b8:	87 fa fc f8 	JSR        0x0200097c     // 200097c <free>
 20001bc:	02 00 09 7c 
 20001c0:	0b 41 80 00 	MOV        R6,R1
 20001c4:	87 fa fc f8 	JSR        0x0200097c     // 200097c <free>
 20001c8:	02 00 09 7c 
 20001cc:	0e 00 00 01 	LDI        $1,R1
 20001d0:	87 fa fc f8 	JSR        0x02000920     // 2000920 <exit>
 20001d4:	02 00 09 20 
 20001d8:	8c b0 8b 00 	LW         (R6),R1        | CMP        $0,R1
 20001dc:	78 a8 00 14 	BNZ        @0x020001f4    // 20001f4 <main+0x1b0>
 20001e0:	0a 03 00 40 	LDI        0x0200e2c8,R1  // 200e2c8 <__errno+0xf0>
 20001e4:	0a 40 e2 c8 
 20001e8:	87 fa fc f8 	JSR        0x0200186c     // 200186c <puts>
 20001ec:	02 00 18 6c 
 20001f0:	78 80 00 50 	BRA        @0x02000244    // 2000244 <main+0x200>
 20001f4:	0c 00 00 01 	CMP        $1,R1
 20001f8:	78 a8 00 14 	BNZ        @0x02000210    // 2000210 <main+0x1cc>
 20001fc:	0a 03 00 40 	LDI        0x0200e2ec,R1  // 200e2ec <__errno+0x114>
 2000200:	0a 40 e2 ec 
 2000204:	87 fa fc f8 	JSR        0x0200186c     // 200186c <puts>
 2000208:	02 00 18 6c 
 200020c:	78 80 00 34 	BRA        @0x02000244    // 2000244 <main+0x200>
 2000210:	0a 03 00 40 	LDI        0x0200e304,R1  // 200e304 <__errno+0x12c>
 2000214:	0a 40 e3 04 
 2000218:	87 fa fc f8 	JSR        0x0200186c     // 200186c <puts>
 200021c:	02 00 18 6c 
 2000220:	0b 41 40 00 	MOV        R5,R1
 2000224:	87 fa fc f8 	JSR        0x0200097c     // 200097c <free>
 2000228:	02 00 09 7c 
 200022c:	0b 41 80 00 	MOV        R6,R1
 2000230:	87 fa fc f8 	JSR        0x0200097c     // 200097c <free>
 2000234:	02 00 09 7c 
 2000238:	0e 00 00 02 	LDI        $2,R1
 200023c:	87 fa fc f8 	JSR        0x02000920     // 2000920 <exit>
 2000240:	02 00 09 20 
 2000244:	94 c0 8c c8 	LW         (R8),R2        | LW         (R9),R1
 2000248:	03 40 80 00 	MOV        R2,R0
 200024c:	03 04 40 00 	MPY        R1,R0
 2000250:	0b 40 00 00 	MOV        R0,R1
 2000254:	09 80 00 02 	LSL        $2,R1
 2000258:	bf a8 ba 88 	MOV        R5,R7          | ADD        R1,R7
 200025c:	84 b0 85 14 	LW         (R6),R0        | SW         R0,$20(SP)
 2000260:	b5 10 bd 0c 	SW         R6,$16(SP)     | SW         R7,$12(SP)
 2000264:	ad 08 95 04 	SW         R5,$8(SP)      | SW         R2,$4(SP)
 2000268:	02 03 00 40 	LDI        0x0200e330,R0  // 200e330 <__errno+0x158>
 200026c:	02 40 e3 30 
 2000270:	04 c7 40 00 	SW         R0,(SP)
 2000274:	87 fa fc f8 	JSR        0x02001798     // 2001798 <printf>
 2000278:	02 00 17 98 
 200027c:	0a 03 00 40 	LDI        0x0200e37c,R1  // 200e37c <__errno+0x1a4>
 2000280:	0a 40 e3 7c 
 2000284:	87 fa fc f8 	JSR        0x0200186c     // 200186c <puts>
 2000288:	02 00 18 6c 
 200028c:	a7 b0 9f b8 	MOV        R6,R4          | MOV        R7,R3
 2000290:	97 a8 8c c0 	MOV        R5,R2          | LW         (R8),R1
 2000294:	87 fa fc f8 	JSR        0x020005a4     // 20005a4 <lifting>
 2000298:	02 00 05 a4 
 200029c:	0a 03 00 40 	LDI        0x0200e390,R1  // 200e390 <__errno+0x1b8>
 20002a0:	0a 40 e3 90 
 20002a4:	87 fa fc f8 	JSR        0x0200186c     // 200186c <puts>
 20002a8:	02 00 18 6c 
 20002ac:	1e 03 ff fc 	LDI        $262140,R3
 20002b0:	13 41 40 00 	MOV        R5,R2
 20002b4:	0a 03 00 40 	LDI        0x0200f148,R1  // 200f148 <ptrs>
 20002b8:	0a 40 f1 48 
 20002bc:	87 fa fc f8 	JSR        0x02001354     // 2001354 <memcpy>
 20002c0:	02 00 13 54 
 20002c4:	78 83 ff fc 	BUSY
 20002c8:	0e 00 00 02 	LDI        $2,R1
 20002cc:	78 80 00 04 	BRA        @0x020002d4    // 20002d4 <main+0x290>
 20002d0:	0e 00 00 05 	LDI        $5,R1
 20002d4:	84 18 ac 1c 	LW         24(SP),R0      | LW         28(SP),R5
 20002d8:	b4 20 bc 24 	LW         32(SP),R6      | LW         36(SP),R7
 20002dc:	c4 28 cc 2c 	LW         40(SP),R8      | LW         44(SP),R9
 20002e0:	d4 30 dc 34 	LW         48(SP),R10     | LW         52(SP),R11
 20002e4:	ea 38 ff 80 	ADD        $56,SP         | RTN

020002e8 <singlelift>:
 20002e8:	e8 3c 85 18 	SUB        $60,SP         | SW         R0,$24(SP)
 20002ec:	ad 1c b5 20 	SW         R5,$28(SP)     | SW         R6,$32(SP)
 20002f0:	bd 24 c5 28 	SW         R7,$36(SP)     | SW         R8,$40(SP)
 20002f4:	cd 2c d5 30 	SW         R9,$44(SP)     | SW         R10,$48(SP)
 20002f8:	dd 34 e5 38 	SW         R11,$52(SP)    | SW         R12,$56(SP)
 20002fc:	cf 88 af 90 	MOV        R1,R9          | MOV        R2,R5
 2000300:	df 98 e7 a0 	MOV        R3,R11         | MOV        R4,R12
 2000304:	0a 03 00 40 	LDI        0x0200e1e4,R1  // 200e1e4 <__errno+0xc>
 2000308:	0a 40 e1 e4 
 200030c:	87 fa fc f8 	JSR        0x0200186c     // 200186c <puts>
 2000310:	02 00 18 6c 
 2000314:	2c 00 00 01 	CMP        $1,R5
 2000318:	78 90 01 0c 	BLT        @0x02000428    // 2000428 <singlelift+0x140>
 200031c:	13 41 40 00 	MOV        R5,R2
 2000320:	13 06 40 00 	MPY        R9,R2
 2000324:	0b 40 80 00 	MOV        R2,R1
 2000328:	09 40 00 1f 	LSR        $31,R1
 200032c:	08 84 80 00 	ADD        R2,R1
 2000330:	09 c0 00 01 	ASR        $1,R1
 2000334:	09 80 00 02 	LSL        $2,R1
 2000338:	0c c7 40 14 	SW         R1,$20(SP)
 200033c:	49 80 00 02 	LSL        $2,R9
 2000340:	0b 41 40 00 	MOV        R5,R1
 2000344:	09 c0 00 01 	ASR        $1,R1
 2000348:	8d 0c 97 e0 	SW         R1,$12(SP)     | MOV        R12,R2
 200034c:	9c 14 92 98 	LW         20(SP),R3      | ADD        R3,R2
 2000350:	95 04 8a 7e 	SW         R2,$4(SP)      | ADD        $-2,R1
 2000354:	0b 06 40 00 	MPY        R9,R1
 2000358:	97 e0 92 88 	MOV        R12,R2         | ADD        R1,R2
 200035c:	95 08 da 10 	SW         R2,$8(SP)      | ADD        $16,R11
 2000360:	29 80 00 02 	LSL        $2,R5
 2000364:	9f e0 9a a8 	MOV        R12,R3         | ADD        R5,R3
 2000368:	9d 10 d4 0c 	SW         R3,$16(SP)     | LW         12(SP),R10
 200036c:	50 83 ff ff 	ADD        $-1,R10
 2000370:	af e0 a4 04 	MOV        R12,R5         | LW         4(SP),R4
 2000374:	14 86 ff f0 	LW         -16(R11),R2
 2000378:	1c 86 ff f4 	LW         -12(R11),R3
 200037c:	3c 86 ff f8 	LW         -8(R11),R7
 2000380:	b4 dc 90 98 	LW         -4(R11),R6     | SUB        R3,R2
 2000384:	8f 98 8a b0 	MOV        R3,R1          | ADD        R6,R1
 2000388:	09 c0 00 01 	ASR        $1,R1
 200038c:	b8 88 8f b8 	SUB        R1,R7          | MOV        R7,R1
 2000390:	95 e0 92 b8 	SW         R2,(R12)       | ADD        R7,R2
 2000394:	10 80 00 02 	ADD        $2,R2
 2000398:	11 c0 00 02 	ASR        $2,R2
 200039c:	92 98 95 a0 	ADD        R3,R2          | SW         R2,(R4)
 20003a0:	94 0c 93 03 	LW         12(SP),R2      | CMP        $3,R2
 20003a4:	78 90 00 50 	BLT        @0x020003f8    // 20003f8 <singlelift+0x110>
 20003a8:	97 d8 c6 01 	MOV        R11,R2         | LDI        $1,R8
 20003ac:	5c c7 40 00 	SW         R11,(SP)
 20003b0:	aa c8 a2 c8 	ADD        R9,R5          | ADD        R9,R4
 20003b4:	3c 84 80 04 	LW         4(R2),R7
 20003b8:	9f b8 9a b0 	MOV        R7,R3          | ADD        R6,R3
 20003bc:	19 c0 00 01 	ASR        $1,R3
 20003c0:	dc 90 d8 98 	LW         (R2),R11       | SUB        R3,R11
 20003c4:	9f d8 8d a8 	MOV        R11,R3         | SW         R1,(R5)
 20003c8:	da 88 8f d8 	ADD        R1,R11         | MOV        R11,R1
 20003cc:	08 80 00 02 	ADD        $2,R1
 20003d0:	09 c0 00 02 	ASR        $2,R1
 20003d4:	8a b0 8d a0 	ADD        R6,R1          | SW         R1,(R4)
 20003d8:	92 08 c2 01 	ADD        $8,R2          | ADD        $1,R8
 20003dc:	8f 98 b7 b8 	MOV        R3,R1          | MOV        R7,R6
 20003e0:	44 06 80 00 	CMP        R10,R8
 20003e4:	78 ab ff c8 	BNZ        @0x020003b0    // 20003b0 <singlelift+0xc8>
 20003e8:	dc 00 ac 08 	LW         (SP),R11       | LW         8(SP),R5
 20003ec:	a7 a8 8c 14 	MOV        R5,R4          | LW         20(SP),R1
 20003f0:	a2 88 94 04 	ADD        R1,R4          | LW         4(SP),R2
 20003f4:	78 80 00 08 	BRA        @0x02000400    // 2000400 <singlelift+0x118>
 20003f8:	bf b0 9f 88 	MOV        R6,R7          | MOV        R1,R3
 20003fc:	13 41 00 00 	MOV        R4,R2
 2000400:	aa c8 9d a8 	ADD        R9,R5          | SW         R3,(R5)
 2000404:	a2 c8 9a 01 	ADD        R9,R4          | ADD        $1,R3
 2000408:	19 c0 00 03 	ASR        $3,R3
 200040c:	9a b8 9d a0 	ADD        R7,R3          | SW         R3,(R4)
 2000410:	e2 04 92 04 	ADD        $4,R12         | ADD        $4,R2
 2000414:	95 04 9c 08 	SW         R2,$4(SP)      | LW         8(SP),R3
 2000418:	9a 04 9d 08 	ADD        $4,R3          | SW         R3,$8(SP)
 200041c:	da c8 8c 10 	ADD        R9,R11         | LW         16(SP),R1
 2000420:	0c 07 00 00 	CMP        R12,R1
 2000424:	78 ab ff 48 	BNZ        @0x02000370    // 2000370 <singlelift+0x88>
 2000428:	84 18 ac 1c 	LW         24(SP),R0      | LW         28(SP),R5
 200042c:	b4 20 bc 24 	LW         32(SP),R6      | LW         36(SP),R7
 2000430:	c4 28 cc 2c 	LW         40(SP),R8      | LW         44(SP),R9
 2000434:	d4 30 dc 34 	LW         48(SP),R10     | LW         52(SP),R11
 2000438:	e4 38 ea 3c 	LW         56(SP),R12     | ADD        $60,SP
 200043c:	7b 40 00 00 	RTN

02000440 <ilift>:
 2000440:	14 00 00 01 	CMP        $1,R2
 2000444:	78 90 01 54 	BLT        @0x0200059c    // 200059c <ilift+0x15c>
 2000448:	78 80 01 54 	BRA        @0x020005a0    // 20005a0 <ilift+0x160>
 200044c:	e8 3c ad 1c 	SUB        $60,SP         | SW         R5,$28(SP)
 2000450:	b5 20 bd 24 	SW         R6,$32(SP)     | SW         R7,$36(SP)
 2000454:	c5 28 cd 2c 	SW         R8,$40(SP)     | SW         R9,$44(SP)
 2000458:	d5 30 dd 34 	SW         R10,$48(SP)    | SW         R11,$52(SP)
 200045c:	e5 38 b7 90 	SW         R12,$56(SP)    | MOV        R2,R6
 2000460:	33 04 40 00 	MPY        R1,R6
 2000464:	2b 41 80 00 	MOV        R6,R5
 2000468:	29 40 00 1f 	LSR        $31,R5
 200046c:	28 85 80 00 	ADD        R6,R5
 2000470:	29 c0 00 01 	ASR        $1,R5
 2000474:	29 80 00 02 	LSL        $2,R5
 2000478:	53 40 40 00 	MOV        R1,R10
 200047c:	51 80 00 02 	LSL        $2,R10
 2000480:	0b 40 80 00 	MOV        R2,R1
 2000484:	09 c0 00 01 	ASR        $1,R1
 2000488:	8d 0c 9d 04 	SW         R1,$12(SP)     | SW         R3,$4(SP)
 200048c:	cf 98 ca d0 	MOV        R3,R9          | ADD        R10,R9
 2000490:	cd 00 8f 98 	SW         R9,(SP)        | MOV        R3,R1
 2000494:	8a a8 8d 08 	ADD        R5,R1          | SW         R1,$8(SP)
 2000498:	63 41 00 00 	MOV        R4,R12
 200049c:	11 80 00 02 	LSL        $2,R2
 20004a0:	cf 98 ca 90 	MOV        R3,R9          | ADD        R2,R9
 20004a4:	cd 10 8c 0c 	SW         R9,$16(SP)     | LW         12(SP),R1
 20004a8:	09 80 00 03 	LSL        $3,R1
 20004ac:	0b 40 5f f0 	MOV        $-16+R1,R1
 20004b0:	8d 18 8c 0c 	SW         R1,$24(SP)     | LW         12(SP),R1
 20004b4:	08 83 ff fe 	ADD        $-2,R1
 20004b8:	0b 06 80 00 	MPY        R10,R1
 20004bc:	8a a8 88 d0 	ADD        R5,R1          | SUB        R10,R1
 20004c0:	8d 14 dc 0c 	SW         R1,$20(SP)     | LW         12(SP),R11
 20004c4:	58 83 ff ff 	ADD        $-1,R11
 20004c8:	9f e0 a4 08 	MOV        R12,R3         | LW         8(SP),R4
 20004cc:	8c 04 ac 88 	LW         4(SP),R1       | LW         (R1),R5
 20004d0:	bc 00 b4 b8 	LW         (SP),R7        | LW         (R7),R6
 20004d4:	8f a8 8a b0 	MOV        R5,R1          | ADD        R6,R1
 20004d8:	08 80 00 02 	ADD        $2,R1
 20004dc:	09 c0 00 02 	ASR        $2,R1
 20004e0:	94 a0 90 88 	LW         (R4),R2        | SUB        R1,R2
 20004e4:	aa 90 ad e0 	ADD        R2,R5          | SW         R5,(R12)
 20004e8:	14 c7 00 04 	SW         R2,$4(R12)
 20004ec:	cc 0c af b0 	LW         12(SP),R9      | MOV        R6,R5
 20004f0:	4c 00 00 03 	CMP        $3,R9
 20004f4:	78 90 00 50 	BLT        @0x02000548    // 2000548 <ilift+0x108>
 20004f8:	c7 90 ce 01 	MOV        R2,R8          | LDI        $1,R9
 20004fc:	78 80 00 04 	BRA        @0x02000504    // 2000504 <ilift+0xc4>
 2000500:	43 40 80 00 	MOV        R2,R8
 2000504:	9a 08 ba d0 	ADD        $8,R3          | ADD        R10,R7
 2000508:	a2 d0 ac b8 	ADD        R10,R4         | LW         (R7),R5
 200050c:	8f a8 8a b0 	MOV        R5,R1          | ADD        R6,R1
 2000510:	08 80 00 02 	ADD        $2,R1
 2000514:	09 c0 00 02 	ASR        $2,R1
 2000518:	94 a0 90 88 	LW         (R4),R2        | SUB        R1,R2
 200051c:	8f 90 8a c0 	MOV        R2,R1          | ADD        R8,R1
 2000520:	09 c0 00 01 	ASR        $1,R1
 2000524:	8a b0 8d 98 	ADD        R6,R1          | SW         R1,(R3)
 2000528:	14 c4 c0 04 	SW         R2,$4(R3)
 200052c:	ca 01 b7 a8 	ADD        $1,R9          | MOV        R5,R6
 2000530:	4c 06 c0 00 	CMP        R11,R9
 2000534:	78 ab ff c8 	BNZ        @0x02000500    // 2000500 <ilift+0xc0>
 2000538:	9f e0 8c 18 	MOV        R12,R3         | LW         24(SP),R1
 200053c:	9a 88 a4 14 	ADD        R1,R3          | LW         20(SP),R4
 2000540:	94 00 a2 90 	LW         (SP),R2        | ADD        R2,R4
 2000544:	78 80 00 00 	BRA        @0x02000548    // 2000548 <ilift+0x108>
 2000548:	a2 d0 8f a8 	ADD        R10,R4         | MOV        R5,R1
 200054c:	08 80 00 01 	ADD        $1,R1
 2000550:	09 c0 00 03 	ASR        $3,R1
 2000554:	94 a0 90 88 	LW         (R4),R2        | SUB        R1,R2
 2000558:	8f 90 8a c0 	MOV        R2,R1          | ADD        R8,R1
 200055c:	09 c0 00 01 	ASR        $1,R1
 2000560:	08 85 40 00 	ADD        R5,R1
 2000564:	0c c4 c0 08 	SW         R1,$8(R3)
 2000568:	14 c4 c0 0c 	SW         R2,$12(R3)
 200056c:	cc 04 ca 04 	LW         4(SP),R9       | ADD        $4,R9
 2000570:	cd 04 8c 00 	SW         R9,$4(SP)      | LW         (SP),R1
 2000574:	8a 04 8d 00 	ADD        $4,R1          | SW         R1,(SP)
 2000578:	94 08 92 04 	LW         8(SP),R2       | ADD        $4,R2
 200057c:	95 08 e2 d0 	SW         R2,$8(SP)      | ADD        R10,R12
 2000580:	8c 10 8b c8 	LW         16(SP),R1      | CMP        R9,R1
 2000584:	78 ab ff 40 	BNZ        @0x020004c8    // 20004c8 <ilift+0x88>
 2000588:	ac 1c b4 20 	LW         28(SP),R5      | LW         32(SP),R6
 200058c:	bc 24 c4 28 	LW         36(SP),R7      | LW         40(SP),R8
 2000590:	cc 2c d4 30 	LW         44(SP),R9      | LW         48(SP),R10
 2000594:	dc 34 e4 38 	LW         52(SP),R11     | LW         56(SP),R12
 2000598:	ea 3c ff 80 	ADD        $60,SP         | RTN
 200059c:	7b 40 00 00 	RTN
 20005a0:	78 83 fe a8 	BRA        @0x0200044c    // 200044c <ilift+0xc>

020005a4 <lifting>:
 20005a4:	e8 38 85 14 	SUB        $56,SP         | SW         R0,$20(SP)
 20005a8:	ad 18 b5 1c 	SW         R5,$24(SP)     | SW         R6,$28(SP)
 20005ac:	bd 20 c5 24 	SW         R7,$32(SP)     | SW         R8,$36(SP)
 20005b0:	cd 28 d5 2c 	SW         R9,$40(SP)     | SW         R10,$44(SP)
 20005b4:	dd 30 e5 34 	SW         R11,$48(SP)    | SW         R12,$52(SP)
 20005b8:	b7 88 95 00 	MOV        R1,R6          | SW         R2,(SP)
 20005bc:	e7 98 a5 04 	MOV        R3,R12         | SW         R4,$4(SP)
 20005c0:	df e8 da 08 	MOV        SP,R11         | ADD        $8,R11
 20005c4:	d7 d8 c7 98 	MOV        R11,R10        | MOV        R3,R8
 20005c8:	bf 90 af 88 	MOV        R2,R7          | MOV        R1,R5
 20005cc:	4e 00 00 01 	LDI        $1,R9
 20005d0:	78 80 00 10 	BRA        @0x020005e4    // 20005e4 <lifting+0x40>
 20005d4:	29 c0 00 01 	ASR        $1,R5
 20005d8:	09 80 00 02 	LSL        $2,R1
 20005dc:	ba 88 c2 88 	ADD        R1,R7          | ADD        R1,R8
 20005e0:	ca 01 d2 04 	ADD        $1,R9          | ADD        $4,R10
 20005e4:	a7 c0 9f b8 	MOV        R8,R4          | MOV        R7,R3
 20005e8:	97 a8 8f b0 	MOV        R5,R2          | MOV        R6,R1
 20005ec:	87 fa fc f8 	JSR        0x020002e8     // 20002e8 <singlelift>
 20005f0:	02 00 02 e8 
 20005f4:	a7 b8 9f c0 	MOV        R7,R4          | MOV        R8,R3
 20005f8:	97 a8 8f b0 	MOV        R5,R2          | MOV        R6,R1
 20005fc:	87 fa fc f8 	JSR        0x020002e8     // 20002e8 <singlelift>
 2000600:	02 00 02 e8 
 2000604:	13 41 80 00 	MOV        R6,R2
 2000608:	13 05 40 00 	MPY        R5,R2
 200060c:	0b 40 80 00 	MOV        R2,R1
 2000610:	09 40 00 1f 	LSR        $31,R1
 2000614:	08 84 80 00 	ADD        R2,R1
 2000618:	09 c0 00 01 	ASR        $1,R1
 200061c:	13 41 40 00 	MOV        R5,R2
 2000620:	11 40 00 1f 	LSR        $31,R2
 2000624:	10 85 40 00 	ADD        R5,R2
 2000628:	11 c0 00 01 	ASR        $1,R2
 200062c:	8a 90 cb 01 	ADD        R2,R1          | CMP        $1,R9
 2000630:	78 88 00 6c 	BZ         @0x020006a0    // 20006a0 <lifting+0xfc>
 2000634:	94 d4 92 88 	LW         -4(R10),R2     | ADD        R1,R2
 2000638:	95 d0 cb 03 	SW         R2,(R10)       | CMP        $3,R9
 200063c:	78 ab ff 94 	BNZ        @0x020005d4    // 20005d4 <lifting+0x30>
 2000640:	0a 03 00 40 	LDI        0x0200e1f4,R1  // 200e1f4 <__errno+0x1c>
 2000644:	0a 40 e1 f4 
 2000648:	87 fa fc f8 	JSR        0x0200186c     // 200186c <puts>
 200064c:	02 00 18 6c 
 2000650:	94 04 8c 90 	LW         4(SP),R2       | LW         (R2),R1
 2000654:	0c 00 00 00 	CMP        $0,R1
 2000658:	78 88 00 80 	BZ         @0x020006dc    // 20006dc <lifting+0x138>
 200065c:	78 80 00 88 	BRA        @0x020006e8    // 20006e8 <lifting+0x144>
 2000660:	0c 86 c0 04 	LW         4(R11),R1
 2000664:	09 80 00 02 	LSL        $2,R1
 2000668:	cf c0 ca 88 	MOV        R8,R9          | ADD        R1,R9
 200066c:	d7 e0 d2 88 	MOV        R12,R10        | ADD        R1,R10
 2000670:	a7 d0 9f c8 	MOV        R10,R4         | MOV        R9,R3
 2000674:	97 a8 8f b0 	MOV        R5,R2          | MOV        R6,R1
 2000678:	87 fa fc f8 	JSR        0x02000440     // 2000440 <ilift>
 200067c:	02 00 04 40 
 2000680:	a7 c8 9f d0 	MOV        R9,R4          | MOV        R10,R3
 2000684:	97 a8 8f b0 	MOV        R5,R2          | MOV        R6,R1
 2000688:	87 fa fc f8 	JSR        0x02000440     // 2000440 <ilift>
 200068c:	02 00 04 40 
 2000690:	aa a8 da 7c 	ADD        R5,R5          | ADD        $-4,R11
 2000694:	3c 06 c0 00 	CMP        R11,R7
 2000698:	78 ab ff c4 	BNZ        @0x02000660    // 2000660 <lifting+0xbc>
 200069c:	78 80 00 0c 	BRA        @0x020006ac    // 20006ac <lifting+0x108>
 20006a0:	0c c6 80 00 	SW         R1,(R10)
 20006a4:	29 c0 00 01 	ASR        $1,R5
 20006a8:	78 83 ff 2c 	BRA        @0x020005d8    // 20005d8 <lifting+0x34>
 20006ac:	a7 e0 9c 00 	MOV        R12,R4         | LW         (SP),R3
 20006b0:	97 a8 8f b0 	MOV        R5,R2          | MOV        R6,R1
 20006b4:	87 fa fc f8 	JSR        0x02000440     // 2000440 <ilift>
 20006b8:	02 00 04 40 
 20006bc:	a4 00 9f e0 	LW         (SP),R4        | MOV        R12,R3
 20006c0:	97 a8 8f b0 	MOV        R5,R2          | MOV        R6,R1
 20006c4:	84 14 ac 18 	LW         20(SP),R0      | LW         24(SP),R5
 20006c8:	b4 1c bc 20 	LW         28(SP),R6      | LW         32(SP),R7
 20006cc:	c4 24 cc 28 	LW         36(SP),R8      | LW         40(SP),R9
 20006d0:	d4 2c dc 30 	LW         44(SP),R10     | LW         48(SP),R11
 20006d4:	e4 34 ea 38 	LW         52(SP),R12     | ADD        $56,SP
 20006d8:	78 83 fd 64 	BRA        @0x02000440    // 2000440 <ilift>
 20006dc:	a9 7e bf e8 	AND        $-2,R5         | MOV        SP,R7
 20006e0:	44 87 40 00 	LW         (SP),R8
 20006e4:	78 83 ff 78 	BRA        @0x02000660    // 2000660 <lifting+0xbc>
 20006e8:	84 14 ac 18 	LW         20(SP),R0      | LW         24(SP),R5
 20006ec:	b4 1c bc 20 	LW         28(SP),R6      | LW         32(SP),R7
 20006f0:	c4 24 cc 28 	LW         36(SP),R8      | LW         40(SP),R9
 20006f4:	d4 2c dc 30 	LW         44(SP),R10     | LW         48(SP),R11
 20006f8:	e4 34 ea 38 	LW         52(SP),R12     | ADD        $56,SP
 20006fc:	7b 40 00 00 	RTN

02000700 <clrram>:
 2000700:	e8 04 85 00 	SUB        $4,SP          | SW         R0,(SP)
 2000704:	9f 88 8b 01 	MOV        R1,R3          | CMP        $1,R1
 2000708:	78 90 00 18 	BLT        @0x02000724    // 2000724 <clrram+0x24>
 200070c:	0b 40 80 00 	MOV        R2,R1
 2000710:	19 80 00 02 	LSL        $2,R3
 2000714:	96 00 84 00 	CLR        R2             | LW         (SP),R0
 2000718:	68 80 00 04 	ADD        $4,SP
 200071c:	7c 87 c0 00 	LJMP       @0x02001524    // 2001524 <memset>
 2000720:	02 00 15 24 
 2000724:	84 00 ea 04 	LW         (SP),R0        | ADD        $4,SP
 2000728:	7b 40 00 00 	RTN

0200072c <out2inpbuf>:
 200072c:	0c 00 00 01 	CMP        $1,R1
 2000730:	78 90 00 24 	BLT        @0x02000758    // 2000758 <out2inpbuf+0x2c>
 2000734:	78 80 00 24 	BRA        @0x0200075c    // 200075c <out2inpbuf+0x30>
 2000738:	e8 04 ad 00 	SUB        $4,SP          | SW         R5,(SP)
 200073c:	26 00 00 00 	CLR        R4
 2000740:	ac 90 ad 98 	LW         (R2),R5        | SW         R5,(R3)
 2000744:	9a 04 92 04 	ADD        $4,R3          | ADD        $4,R2
 2000748:	a2 01 8b a0 	ADD        $1,R4          | CMP        R4,R1
 200074c:	78 ab ff f0 	BNZ        @0x02000740    // 2000740 <out2inpbuf+0x14>
 2000750:	ac 00 ea 04 	LW         (SP),R5        | ADD        $4,SP
 2000754:	7b 40 00 00 	RTN
 2000758:	7b 40 00 00 	RTN
 200075c:	78 83 ff d8 	BRA        @0x02000738    // 2000738 <out2inpbuf+0xc>

02000760 <split>:
 2000760:	14 00 00 01 	CMP        $1,R2
 2000764:	78 90 01 b0 	BLT        @0x02000918    // 2000918 <split+0x1b8>
 2000768:	78 80 01 b0 	BRA        @0x0200091c    // 200091c <split+0x1bc>
 200076c:	e8 2c 85 10 	SUB        $44,SP         | SW         R0,$16(SP)
 2000770:	ad 14 b5 18 	SW         R5,$20(SP)     | SW         R6,$24(SP)
 2000774:	bd 1c c5 20 	SW         R7,$28(SP)     | SW         R8,$32(SP)
 2000778:	cd 24 d5 28 	SW         R9,$36(SP)     | SW         R10,$40(SP)
 200077c:	af 88 c7 90 	MOV        R1,R5          | MOV        R2,R8
 2000780:	b7 98 bf a0 	MOV        R3,R6          | MOV        R4,R7
 2000784:	0c 00 00 00 	CMP        $0,R1
 2000788:	78 88 01 20 	BZ         @0x020008ac    // 20008ac <split+0x14c>
 200078c:	0c 00 00 02 	CMP        $2,R1
 2000790:	78 88 00 c0 	BZ         @0x02000854    // 2000854 <split+0xf4>
 2000794:	0c 00 00 01 	CMP        $1,R1
 2000798:	78 88 00 58 	BZ         @0x020007f4    // 20007f4 <split+0x94>
 200079c:	2e 00 00 00 	CLR        R5
 20007a0:	4a 03 00 40 	LDI        0x0200e208,R9  // 200e208 <__errno+0x30>
 20007a4:	4a 40 e2 08 
 20007a8:	8c b0 96 00 	LW         (R6),R1        | CLR        R2
 20007ac:	95 b8 ab 04 	SW         R2,(R7)        | CMP        $4,R5
 20007b0:	78 90 00 1c 	BLT        @0x020007d0    // 20007d0 <split+0x70>
 20007b4:	2c 00 ff fd 	CMP        $65533,R5
 20007b8:	78 90 00 28 	BLT        @0x020007e4    // 20007e4 <split+0x84>
 20007bc:	95 0c 95 08 	SW         R2,$12(SP)     | SW         R2,$8(SP)
 20007c0:	8d 04 cd 00 	SW         R1,$4(SP)      | SW         R9,(SP)
 20007c4:	87 fa fc f8 	JSR        0x02001798     // 2001798 <printf>
 20007c8:	02 00 17 98 
 20007cc:	78 80 00 14 	BRA        @0x020007e4    // 20007e4 <split+0x84>
 20007d0:	95 0c 86 00 	SW         R2,$12(SP)     | CLR        R0
 20007d4:	85 08 8d 04 	SW         R0,$8(SP)      | SW         R1,$4(SP)
 20007d8:	4c c7 40 00 	SW         R9,(SP)
 20007dc:	87 fa fc f8 	JSR        0x02001798     // 2001798 <printf>
 20007e0:	02 00 17 98 
 20007e4:	b2 04 ba 04 	ADD        $4,R6          | ADD        $4,R7
 20007e8:	aa 01 c3 a8 	ADD        $1,R5          | CMP        R5,R8
 20007ec:	78 ab ff b8 	BNZ        @0x020007a8    // 20007a8 <split+0x48>
 20007f0:	78 80 01 10 	BRA        @0x02000904    // 2000904 <split+0x1a4>
 20007f4:	2e 00 00 00 	CLR        R5
 20007f8:	56 07 fc 00 	LDI        $523264,R10
 20007fc:	4a 03 00 40 	LDI        0x0200e208,R9  // 200e208 <__errno+0x30>
 2000800:	4a 40 e2 08 
 2000804:	8c b0 9f 88 	LW         (R6),R1        | MOV        R1,R3
 2000808:	99 d0 97 98 	AND        R10,R3         | MOV        R3,R2
 200080c:	11 c0 00 08 	ASR        $8,R2
 2000810:	95 b8 ab 04 	SW         R2,(R7)        | CMP        $4,R5
 2000814:	78 b0 00 14 	BGE        @0x0200082c    // 200082c <split+0xcc>
 2000818:	9d 0c 95 08 	SW         R3,$12(SP)     | SW         R2,$8(SP)
 200081c:	8d 04 cd 00 	SW         R1,$4(SP)      | SW         R9,(SP)
 2000820:	87 fa fc f8 	JSR        0x02001798     // 2001798 <printf>
 2000824:	02 00 17 98 
 2000828:	78 80 00 18 	BRA        @0x02000844    // 2000844 <split+0xe4>
 200082c:	2c 00 ff fd 	CMP        $65533,R5
 2000830:	78 90 00 10 	BLT        @0x02000844    // 2000844 <split+0xe4>
 2000834:	9d 0c 95 08 	SW         R3,$12(SP)     | SW         R2,$8(SP)
 2000838:	8d 04 cd 00 	SW         R1,$4(SP)      | SW         R9,(SP)
 200083c:	87 fa fc f8 	JSR        0x02001798     // 2001798 <printf>
 2000840:	02 00 17 98 
 2000844:	b2 04 ba 04 	ADD        $4,R6          | ADD        $4,R7
 2000848:	aa 01 c3 a8 	ADD        $1,R5          | CMP        R5,R8
 200084c:	78 ab ff b4 	BNZ        @0x02000804    // 2000804 <split+0xa4>
 2000850:	78 80 00 b0 	BRA        @0x02000904    // 2000904 <split+0x1a4>
 2000854:	2e 00 00 00 	CLR        R5
 2000858:	4a 03 00 40 	LDI        0x0200e208,R9  // 200e208 <__errno+0x30>
 200085c:	4a 40 e2 08 
 2000860:	94 b0 8f 90 	LW         (R6),R2        | MOV        R2,R1
 2000864:	08 40 01 ff 	AND        $511,R1
 2000868:	8d b8 ab 04 	SW         R1,(R7)        | CMP        $4,R5
 200086c:	78 b0 00 14 	BGE        @0x02000884    // 2000884 <split+0x124>
 2000870:	8d 0c 8d 08 	SW         R1,$12(SP)     | SW         R1,$8(SP)
 2000874:	95 04 cd 00 	SW         R2,$4(SP)      | SW         R9,(SP)
 2000878:	87 fa fc f8 	JSR        0x02001798     // 2001798 <printf>
 200087c:	02 00 17 98 
 2000880:	78 80 00 18 	BRA        @0x0200089c    // 200089c <split+0x13c>
 2000884:	2c 00 ff fd 	CMP        $65533,R5
 2000888:	78 90 00 10 	BLT        @0x0200089c    // 200089c <split+0x13c>
 200088c:	8d 0c 8d 08 	SW         R1,$12(SP)     | SW         R1,$8(SP)
 2000890:	95 04 cd 00 	SW         R2,$4(SP)      | SW         R9,(SP)
 2000894:	87 fa fc f8 	JSR        0x02001798     // 2001798 <printf>
 2000898:	02 00 17 98 
 200089c:	b2 04 ba 04 	ADD        $4,R6          | ADD        $4,R7
 20008a0:	aa 01 c3 a8 	ADD        $1,R5          | CMP        R5,R8
 20008a4:	78 ab ff b8 	BNZ        @0x02000860    // 2000860 <split+0x100>
 20008a8:	78 80 00 58 	BRA        @0x02000904    // 2000904 <split+0x1a4>
 20008ac:	52 00 0f f8 	BREV       $4088,R10
 20008b0:	4a 03 00 40 	LDI        0x0200e208,R9  // 200e208 <__errno+0x30>
 20008b4:	4a 40 e2 08 
 20008b8:	8c b0 9f 88 	LW         (R6),R1        | MOV        R1,R3
 20008bc:	99 d0 97 98 	AND        R10,R3         | MOV        R3,R2
 20008c0:	11 c0 00 14 	ASR        $20,R2
 20008c4:	95 b8 ab 04 	SW         R2,(R7)        | CMP        $4,R5
 20008c8:	78 b0 00 14 	BGE        @0x020008e0    // 20008e0 <split+0x180>
 20008cc:	9d 0c 95 08 	SW         R3,$12(SP)     | SW         R2,$8(SP)
 20008d0:	8d 04 cd 00 	SW         R1,$4(SP)      | SW         R9,(SP)
 20008d4:	87 fa fc f8 	JSR        0x02001798     // 2001798 <printf>
 20008d8:	02 00 17 98 
 20008dc:	78 80 00 18 	BRA        @0x020008f8    // 20008f8 <split+0x198>
 20008e0:	2c 00 ff fd 	CMP        $65533,R5
 20008e4:	78 90 00 10 	BLT        @0x020008f8    // 20008f8 <split+0x198>
 20008e8:	9d 0c 95 08 	SW         R3,$12(SP)     | SW         R2,$8(SP)
 20008ec:	8d 04 cd 00 	SW         R1,$4(SP)      | SW         R9,(SP)
 20008f0:	87 fa fc f8 	JSR        0x02001798     // 2001798 <printf>
 20008f4:	02 00 17 98 
 20008f8:	b2 04 ba 04 	ADD        $4,R6          | ADD        $4,R7
 20008fc:	aa 01 c3 a8 	ADD        $1,R5          | CMP        R5,R8
 2000900:	78 ab ff b4 	BNZ        @0x020008b8    // 20008b8 <split+0x158>
 2000904:	84 10 ac 14 	LW         16(SP),R0      | LW         20(SP),R5
 2000908:	b4 18 bc 1c 	LW         24(SP),R6      | LW         28(SP),R7
 200090c:	c4 20 cc 24 	LW         32(SP),R8      | LW         36(SP),R9
 2000910:	d4 28 ea 2c 	LW         40(SP),R10     | ADD        $44,SP
 2000914:	7b 40 00 00 	RTN
 2000918:	7b 40 00 00 	RTN
 200091c:	78 83 fe 4c 	BRA        @0x0200076c    // 200076c <split+0xc>

02000920 <exit>:
 2000920:	e8 08 85 00 	SUB        $8,SP          | SW         R0,(SP)
 2000924:	ad 04 af 88 	SW         R5,$4(SP)      | MOV        R1,R5
 2000928:	16 00 00 00 	CLR        R2
 200092c:	87 fa fc f8 	JSR        0x02003d00     // 2003d00 <__call_exitprocs>
 2000930:	02 00 3d 00 
 2000934:	0a 03 00 40 	LDI        0x0200e3a4,R1  // 200e3a4 <_global_impure_ptr>
 2000938:	0a 40 e3 a4 
 200093c:	0c 84 40 00 	LW         (R1),R1
 2000940:	14 84 40 3c 	LW         60(R1),R2
 2000944:	14 00 00 00 	CMP        $0,R2
 2000948:	78 88 00 04 	BZ         @0x02000950    // 2000950 <exit+0x30>
 200094c:	87 f9 ff 90 	JSR        R2
 2000950:	0b 41 40 00 	MOV        R5,R1
 2000954:	87 fa fc f8 	JSR        0x0200c910     // 200c910 <_exit>
 2000958:	02 00 c9 10 

0200095c <malloc>:
 200095c:	e8 04 85 00 	SUB        $4,SP          | SW         R0,(SP)
 2000960:	13 40 40 00 	MOV        R1,R2
 2000964:	0a 03 00 40 	LDI        0x0200e78c,R1  // 200e78c <_impure_ptr>
 2000968:	0a 40 e7 8c 
 200096c:	8c 88 84 00 	LW         (R1),R1        | LW         (SP),R0
 2000970:	68 80 00 04 	ADD        $4,SP
 2000974:	7c 87 c0 00 	LJMP       @0x0200099c    // 200099c <_malloc_r>
 2000978:	02 00 09 9c 

0200097c <free>:
 200097c:	e8 04 85 00 	SUB        $4,SP          | SW         R0,(SP)
 2000980:	13 40 40 00 	MOV        R1,R2
 2000984:	0a 03 00 40 	LDI        0x0200e78c,R1  // 200e78c <_impure_ptr>
 2000988:	0a 40 e7 8c 
 200098c:	8c 88 84 00 	LW         (R1),R1        | LW         (SP),R0
 2000990:	68 80 00 04 	ADD        $4,SP
 2000994:	7c 87 c0 00 	LJMP       @0x0200658c    // 200658c <_free_r>
 2000998:	02 00 65 8c 

0200099c <_malloc_r>:
 200099c:	e8 3c 85 18 	SUB        $60,SP         | SW         R0,$24(SP)
 20009a0:	ad 1c b5 20 	SW         R5,$28(SP)     | SW         R6,$32(SP)
 20009a4:	bd 24 c5 28 	SW         R7,$36(SP)     | SW         R8,$40(SP)
 20009a8:	cd 2c d5 30 	SW         R9,$44(SP)     | SW         R10,$48(SP)
 20009ac:	dd 34 e5 38 	SW         R11,$52(SP)    | SW         R12,$56(SP)
 20009b0:	e7 88 af 90 	MOV        R1,R12         | MOV        R2,R5
 20009b4:	aa 0b ab 17 	ADD        $11,R5         | CMP        $23,R5
 20009b8:	78 98 09 4c 	BC         @0x02001308    // 2001308 <_malloc_r+0x96c>
 20009bc:	a9 78 9f a8 	AND        $-8,R5         | MOV        R5,R3
 20009c0:	19 40 00 1f 	LSR        $31,R3
 20009c4:	ab 90 96 00 	CMP        R2,R5          | CLR        R2
 20009c8:	12 58 00 01 	LDILO.C    $1,R2
 20009cc:	10 c4 c0 00 	OR         R3,R2
 20009d0:	78 88 00 0c 	BZ         @0x020009e0    // 20009e0 <_malloc_r+0x44>
 20009d4:	8e 0c 8d e0 	LDI        $12,R1         | SW         R1,(R12)
 20009d8:	0e 00 00 00 	CLR        R1
 20009dc:	78 80 09 5c 	BRA        @0x0200133c    // 200133c <_malloc_r+0x9a0>
 20009e0:	87 fa fc f8 	JSR        0x02001770     // 2001770 <__malloc_lock>
 20009e4:	02 00 17 70 
 20009e8:	2c 00 01 f8 	CMP        $504,R5
 20009ec:	78 b8 00 70 	BNC        @0x02000a60    // 2000a60 <_malloc_r+0xc4>
 20009f0:	03 41 40 00 	MOV        R5,R0
 20009f4:	01 40 00 03 	LSR        $3,R0
 20009f8:	0b 41 40 08 	MOV        $8+R5,R1
 20009fc:	42 03 00 40 	LDI        0x0200ebcc,R8  // 200ebcc <__malloc_av_>
 2000a00:	42 40 eb cc 
 2000a04:	97 c0 92 88 	MOV        R8,R2          | ADD        R1,R2
 2000a08:	0b 40 80 00 	MOV        R2,R1
 2000a0c:	4c 84 80 04 	LW         4(R2),R9
 2000a10:	92 78 cb 90 	ADD        $-8,R2         | CMP        R2,R9
 2000a14:	78 a8 00 0c 	BNZ        @0x02000a24    // 2000a24 <_malloc_r+0x88>
 2000a18:	4c 84 40 0c 	LW         12(R1),R9
 2000a1c:	82 02 8b c8 	ADD        $2,R0          | CMP        R9,R1
 2000a20:	78 88 01 ac 	BZ         @0x02000bd0    // 2000bd0 <_malloc_r+0x234>
 2000a24:	04 86 40 04 	LW         4(R9),R0
 2000a28:	00 43 ff fc 	AND        $-4,R0
 2000a2c:	0c 86 40 0c 	LW         12(R9),R1
 2000a30:	14 86 40 08 	LW         8(R9),R2
 2000a34:	0c c4 80 0c 	SW         R1,$12(R2)
 2000a38:	14 c4 40 08 	SW         R2,$8(R1)
 2000a3c:	8f c8 8a 80 	MOV        R9,R1          | ADD        R0,R1
 2000a40:	04 84 40 04 	LW         4(R1),R0
 2000a44:	00 c0 00 01 	OR         $1,R0
 2000a48:	04 c4 40 04 	SW         R0,$4(R1)
 2000a4c:	0b 43 00 00 	MOV        R12,R1
 2000a50:	87 fa fc f8 	JSR        0x02001774     // 2001774 <__malloc_unlock>
 2000a54:	02 00 17 74 
 2000a58:	8f c8 8a 08 	MOV        R9,R1          | ADD        $8,R1
 2000a5c:	78 80 08 dc 	BRA        @0x0200133c    // 200133c <_malloc_r+0x9a0>
 2000a60:	03 41 40 00 	MOV        R5,R0
 2000a64:	01 40 00 09 	LSR        $9,R0
 2000a68:	78 88 00 b8 	BZ         @0x02000b24    // 2000b24 <_malloc_r+0x188>
 2000a6c:	04 00 00 05 	CMP        $5,R0
 2000a70:	78 b8 00 18 	BNC        @0x02000a8c    // 2000a8c <_malloc_r+0xf0>
 2000a74:	03 41 40 00 	MOV        R5,R0
 2000a78:	01 40 00 06 	LSR        $6,R0
 2000a7c:	9f 80 9a 38 	MOV        R0,R3          | ADD        $56,R3
 2000a80:	82 39 8f 80 	ADD        $57,R0         | MOV        R0,R1
 2000a84:	09 80 00 03 	LSL        $3,R1
 2000a88:	78 80 00 ac 	BRA        @0x02000b38    // 2000b38 <_malloc_r+0x19c>
 2000a8c:	04 00 00 15 	CMP        $21,R0
 2000a90:	78 b8 00 18 	BNC        @0x02000aac    // 2000aac <_malloc_r+0x110>
 2000a94:	1b 40 00 00 	MOV        R0,R3
 2000a98:	18 80 00 5b 	ADD        $91,R3
 2000a9c:	00 80 00 5c 	ADD        $92,R0
 2000aa0:	0b 40 00 00 	MOV        R0,R1
 2000aa4:	09 80 00 03 	LSL        $3,R1
 2000aa8:	78 80 00 8c 	BRA        @0x02000b38    // 2000b38 <_malloc_r+0x19c>
 2000aac:	04 00 00 55 	CMP        $85,R0
 2000ab0:	78 b8 00 20 	BNC        @0x02000ad4    // 2000ad4 <_malloc_r+0x138>
 2000ab4:	03 41 40 00 	MOV        R5,R0
 2000ab8:	01 40 00 0c 	LSR        $12,R0
 2000abc:	1b 40 00 00 	MOV        R0,R3
 2000ac0:	18 80 00 6e 	ADD        $110,R3
 2000ac4:	00 80 00 6f 	ADD        $111,R0
 2000ac8:	0b 40 00 00 	MOV        R0,R1
 2000acc:	09 80 00 03 	LSL        $3,R1
 2000ad0:	78 80 00 64 	BRA        @0x02000b38    // 2000b38 <_malloc_r+0x19c>
 2000ad4:	04 00 01 55 	CMP        $341,R0
 2000ad8:	78 b8 00 20 	BNC        @0x02000afc    // 2000afc <_malloc_r+0x160>
 2000adc:	03 41 40 00 	MOV        R5,R0
 2000ae0:	01 40 00 0f 	LSR        $15,R0
 2000ae4:	1b 40 00 00 	MOV        R0,R3
 2000ae8:	18 80 00 77 	ADD        $119,R3
 2000aec:	00 80 00 78 	ADD        $120,R0
 2000af0:	0b 40 00 00 	MOV        R0,R1
 2000af4:	09 80 00 03 	LSL        $3,R1
 2000af8:	78 80 00 3c 	BRA        @0x02000b38    // 2000b38 <_malloc_r+0x19c>
 2000afc:	04 00 05 55 	CMP        $1365,R0
 2000b00:	78 b8 00 2c 	BNC        @0x02000b30    // 2000b30 <_malloc_r+0x194>
 2000b04:	03 41 40 00 	MOV        R5,R0
 2000b08:	01 40 00 12 	LSR        $18,R0
 2000b0c:	1b 40 00 00 	MOV        R0,R3
 2000b10:	18 80 00 7c 	ADD        $124,R3
 2000b14:	00 80 00 7d 	ADD        $125,R0
 2000b18:	0b 40 00 00 	MOV        R0,R1
 2000b1c:	09 80 00 03 	LSL        $3,R1
 2000b20:	78 80 00 14 	BRA        @0x02000b38    // 2000b38 <_malloc_r+0x19c>
 2000b24:	0e 00 02 00 	LDI        $512,R1
 2000b28:	86 40 9e 3f 	LDI        $64,R0         | LDI        $63,R3
 2000b2c:	78 80 00 08 	BRA        @0x02000b38    // 2000b38 <_malloc_r+0x19c>
 2000b30:	0e 00 03 f8 	LDI        $1016,R1
 2000b34:	86 7f 9e 7e 	LDI        $127,R0        | LDI        $126,R3
 2000b38:	42 03 00 40 	LDI        0x0200ebcc,R8  // 200ebcc <__malloc_av_>
 2000b3c:	42 40 eb cc 
 2000b40:	a7 c0 a2 88 	MOV        R8,R4          | ADD        R1,R4
 2000b44:	97 a0 92 78 	MOV        R4,R2          | ADD        $-8,R2
 2000b48:	4c 85 00 04 	LW         4(R4),R9
 2000b4c:	14 06 40 00 	CMP        R9,R2
 2000b50:	78 88 00 7c 	BZ         @0x02000bd0    // 2000bd0 <_malloc_r+0x234>
 2000b54:	0c 86 40 04 	LW         4(R9),R1
 2000b58:	89 7c 8b a8 	AND        $-4,R1         | CMP        R5,R1
 2000b5c:	78 b8 00 1c 	BNC        @0x02000b7c    // 2000b7c <_malloc_r+0x1e0>
 2000b60:	78 80 00 60 	BRA        @0x02000bc4    // 2000bc4 <_malloc_r+0x228>
 2000b64:	0c 86 40 04 	LW         4(R9),R1
 2000b68:	89 7c 8b a8 	AND        $-4,R1         | CMP        R5,R1
 2000b6c:	78 b8 00 0c 	BNC        @0x02000b7c    // 2000b7c <_malloc_r+0x1e0>
 2000b70:	2c 04 40 00 	CMP        R1,R5
 2000b74:	78 a8 00 4c 	BNZ        @0x02000bc4    // 2000bc4 <_malloc_r+0x228>
 2000b78:	78 80 00 14 	BRA        @0x02000b90    // 2000b90 <_malloc_r+0x1f4>
 2000b7c:	87 88 80 a8 	MOV        R1,R0          | SUB        R5,R0
 2000b80:	04 00 00 10 	CMP        $16,R0
 2000b84:	78 98 00 08 	BC         @0x02000b90    // 2000b90 <_malloc_r+0x1f4>
 2000b88:	03 40 c0 00 	MOV        R3,R0
 2000b8c:	78 80 00 40 	BRA        @0x02000bd0    // 2000bd0 <_malloc_r+0x234>
 2000b90:	04 86 40 0c 	LW         12(R9),R0
 2000b94:	14 86 40 08 	LW         8(R9),R2
 2000b98:	04 c4 80 0c 	SW         R0,$12(R2)
 2000b9c:	14 c4 00 08 	SW         R2,$8(R0)
 2000ba0:	b7 c8 b2 88 	MOV        R9,R6          | ADD        R1,R6
 2000ba4:	04 85 80 04 	LW         4(R6),R0
 2000ba8:	00 c0 00 01 	OR         $1,R0
 2000bac:	04 c5 80 04 	SW         R0,$4(R6)
 2000bb0:	0b 43 00 00 	MOV        R12,R1
 2000bb4:	87 fa fc f8 	JSR        0x02001774     // 2001774 <__malloc_unlock>
 2000bb8:	02 00 17 74 
 2000bbc:	8f c8 8a 08 	MOV        R9,R1          | ADD        $8,R1
 2000bc0:	78 80 07 78 	BRA        @0x0200133c    // 200133c <_malloc_r+0x9a0>
 2000bc4:	4c 86 40 0c 	LW         12(R9),R9
 2000bc8:	14 06 40 00 	CMP        R9,R2
 2000bcc:	78 ab ff 94 	BNZ        @0x02000b64    // 2000b64 <_malloc_r+0x1c8>
 2000bd0:	4c 86 00 10 	LW         16(R8),R9
 2000bd4:	12 03 00 40 	LDI        0x0200ebd4,R2  // 200ebd4 <__malloc_av_+0x8>
 2000bd8:	12 40 eb d4 
 2000bdc:	4c 04 80 00 	CMP        R2,R9
 2000be0:	78 a8 00 08 	BNZ        @0x02000bec    // 2000bec <_malloc_r+0x250>
 2000be4:	24 86 00 04 	LW         4(R8),R4
 2000be8:	78 80 01 f8 	BRA        @0x02000de4    // 2000de4 <_malloc_r+0x448>
 2000bec:	0c 86 40 04 	LW         4(R9),R1
 2000bf0:	89 7c 8b a8 	AND        $-4,R1         | CMP        R5,R1
 2000bf4:	78 b8 00 14 	BNC        @0x02000c0c    // 2000c0c <_malloc_r+0x270>
 2000bf8:	14 c6 00 14 	SW         R2,$20(R8)
 2000bfc:	14 c6 00 10 	SW         R2,$16(R8)
 2000c00:	0c 00 02 00 	CMP        $512,R1
 2000c04:	78 b8 00 a8 	BNC        @0x02000cb0    // 2000cb0 <_malloc_r+0x314>
 2000c08:	78 80 00 4c 	BRA        @0x02000c58    // 2000c58 <_malloc_r+0x2bc>
 2000c0c:	87 88 80 a8 	MOV        R1,R0          | SUB        R5,R0
 2000c10:	04 00 00 10 	CMP        $16,R0
 2000c14:	78 98 06 fc 	BC         @0x02001314    // 2001314 <_malloc_r+0x978>
 2000c18:	9f c8 9a a8 	MOV        R9,R3          | ADD        R5,R3
 2000c1c:	28 c0 00 01 	OR         $1,R5
 2000c20:	2c c6 40 04 	SW         R5,$4(R9)
 2000c24:	1c c6 00 14 	SW         R3,$20(R8)
 2000c28:	1c c6 00 10 	SW         R3,$16(R8)
 2000c2c:	14 c4 c0 0c 	SW         R2,$12(R3)
 2000c30:	14 c4 c0 08 	SW         R2,$8(R3)
 2000c34:	13 40 00 00 	MOV        R0,R2
 2000c38:	10 c0 00 01 	OR         $1,R2
 2000c3c:	14 c4 c0 04 	SW         R2,$4(R3)
 2000c40:	bf c8 ba 88 	MOV        R9,R7          | ADD        R1,R7
 2000c44:	85 b8 8f e0 	SW         R0,(R7)        | MOV        R12,R1
 2000c48:	87 fa fc f8 	JSR        0x02001774     // 2001774 <__malloc_unlock>
 2000c4c:	02 00 17 74 
 2000c50:	8f c8 8a 08 	MOV        R9,R1          | ADD        $8,R1
 2000c54:	78 80 06 e4 	BRA        @0x0200133c    // 200133c <_malloc_r+0x9a0>
 2000c58:	09 40 00 03 	LSR        $3,R1
 2000c5c:	1b 40 40 00 	MOV        R1,R3
 2000c60:	19 c0 00 02 	ASR        $2,R3
 2000c64:	97 98 92 60 	MOV        R3,R2          | ADD        $-32,R2
 2000c68:	78 90 00 08 	BLT        @0x02000c74    // 2000c74 <_malloc_r+0x2d8>
 2000c6c:	16 00 00 00 	CLR        R2
 2000c70:	78 80 00 08 	BRA        @0x02000c7c    // 2000c7c <_malloc_r+0x2e0>
 2000c74:	16 00 00 01 	LDI        $1,R2
 2000c78:	11 84 c0 00 	LSL        R3,R2
 2000c7c:	24 86 00 04 	LW         4(R8),R4
 2000c80:	20 c4 80 00 	OR         R2,R4
 2000c84:	24 c6 00 04 	SW         R4,$4(R8)
 2000c88:	08 80 00 01 	ADD        $1,R1
 2000c8c:	09 80 00 03 	LSL        $3,R1
 2000c90:	97 c0 92 88 	MOV        R8,R2          | ADD        R1,R2
 2000c94:	8f 90 94 90 	MOV        R2,R1          | LW         (R2),R2
 2000c98:	9f 88 9a 78 	MOV        R1,R3          | ADD        $-8,R3
 2000c9c:	1c c6 40 0c 	SW         R3,$12(R9)
 2000ca0:	14 c6 40 08 	SW         R2,$8(R9)
 2000ca4:	4c c4 40 00 	SW         R9,(R1)
 2000ca8:	4c c4 80 0c 	SW         R9,$12(R2)
 2000cac:	78 80 01 34 	BRA        @0x02000de4    // 2000de4 <_malloc_r+0x448>
 2000cb0:	13 40 40 00 	MOV        R1,R2
 2000cb4:	11 40 00 09 	LSR        $9,R2
 2000cb8:	14 00 00 05 	CMP        $5,R2
 2000cbc:	78 b8 00 18 	BNC        @0x02000cd8    // 2000cd8 <_malloc_r+0x33c>
 2000cc0:	13 40 40 00 	MOV        R1,R2
 2000cc4:	11 40 00 06 	LSR        $6,R2
 2000cc8:	9f 90 9a 38 	MOV        R2,R3          | ADD        $56,R3
 2000ccc:	10 80 00 39 	ADD        $57,R2
 2000cd0:	11 80 00 03 	LSL        $3,R2
 2000cd4:	78 80 00 90 	BRA        @0x02000d68    // 2000d68 <_malloc_r+0x3cc>
 2000cd8:	14 00 00 15 	CMP        $21,R2
 2000cdc:	78 b8 00 14 	BNC        @0x02000cf4    // 2000cf4 <_malloc_r+0x358>
 2000ce0:	1b 40 80 00 	MOV        R2,R3
 2000ce4:	18 80 00 5b 	ADD        $91,R3
 2000ce8:	10 80 00 5c 	ADD        $92,R2
 2000cec:	11 80 00 03 	LSL        $3,R2
 2000cf0:	78 80 00 74 	BRA        @0x02000d68    // 2000d68 <_malloc_r+0x3cc>
 2000cf4:	14 00 00 55 	CMP        $85,R2
 2000cf8:	78 b8 00 1c 	BNC        @0x02000d18    // 2000d18 <_malloc_r+0x37c>
 2000cfc:	13 40 40 00 	MOV        R1,R2
 2000d00:	11 40 00 0c 	LSR        $12,R2
 2000d04:	1b 40 80 00 	MOV        R2,R3
 2000d08:	18 80 00 6e 	ADD        $110,R3
 2000d0c:	10 80 00 6f 	ADD        $111,R2
 2000d10:	11 80 00 03 	LSL        $3,R2
 2000d14:	78 80 00 50 	BRA        @0x02000d68    // 2000d68 <_malloc_r+0x3cc>
 2000d18:	14 00 01 55 	CMP        $341,R2
 2000d1c:	78 b8 00 1c 	BNC        @0x02000d3c    // 2000d3c <_malloc_r+0x3a0>
 2000d20:	13 40 40 00 	MOV        R1,R2
 2000d24:	11 40 00 0f 	LSR        $15,R2
 2000d28:	1b 40 80 00 	MOV        R2,R3
 2000d2c:	18 80 00 77 	ADD        $119,R3
 2000d30:	10 80 00 78 	ADD        $120,R2
 2000d34:	11 80 00 03 	LSL        $3,R2
 2000d38:	78 80 00 2c 	BRA        @0x02000d68    // 2000d68 <_malloc_r+0x3cc>
 2000d3c:	14 00 05 55 	CMP        $1365,R2
 2000d40:	78 b8 00 1c 	BNC        @0x02000d60    // 2000d60 <_malloc_r+0x3c4>
 2000d44:	13 40 40 00 	MOV        R1,R2
 2000d48:	11 40 00 12 	LSR        $18,R2
 2000d4c:	1b 40 80 00 	MOV        R2,R3
 2000d50:	18 80 00 7c 	ADD        $124,R3
 2000d54:	10 80 00 7d 	ADD        $125,R2
 2000d58:	11 80 00 03 	LSL        $3,R2
 2000d5c:	78 80 00 08 	BRA        @0x02000d68    // 2000d68 <_malloc_r+0x3cc>
 2000d60:	16 00 03 f8 	LDI        $1016,R2
 2000d64:	1e 00 00 7e 	LDI        $126,R3
 2000d68:	a7 c0 a2 90 	MOV        R8,R4          | ADD        R2,R4
 2000d6c:	b7 a0 b2 78 	MOV        R4,R6          | ADD        $-8,R6
 2000d70:	94 a0 b3 90 	LW         (R4),R2        | CMP        R2,R6
 2000d74:	78 a8 00 40 	BNZ        @0x02000db8    // 2000db8 <_malloc_r+0x41c>
 2000d78:	19 c0 00 02 	ASR        $2,R3
 2000d7c:	8f 98 8a 60 	MOV        R3,R1          | ADD        $-32,R1
 2000d80:	78 90 00 08 	BLT        @0x02000d8c    // 2000d8c <_malloc_r+0x3f0>
 2000d84:	0e 00 00 00 	CLR        R1
 2000d88:	78 80 00 08 	BRA        @0x02000d94    // 2000d94 <_malloc_r+0x3f8>
 2000d8c:	0e 00 00 01 	LDI        $1,R1
 2000d90:	09 84 c0 00 	LSL        R3,R1
 2000d94:	24 86 00 04 	LW         4(R8),R4
 2000d98:	20 c4 40 00 	OR         R1,R4
 2000d9c:	24 c6 00 04 	SW         R4,$4(R8)
 2000da0:	8f b0 b7 90 	MOV        R6,R1          | MOV        R2,R6
 2000da4:	78 80 00 2c 	BRA        @0x02000dd4    // 2000dd4 <_malloc_r+0x438>
 2000da8:	14 84 80 08 	LW         8(R2),R2
 2000dac:	34 04 80 00 	CMP        R2,R6
 2000db0:	78 88 00 18 	BZ         @0x02000dcc    // 2000dcc <_malloc_r+0x430>
 2000db4:	78 80 00 00 	BRA        @0x02000db8    // 2000db8 <_malloc_r+0x41c>
 2000db8:	1c 84 80 04 	LW         4(R2),R3
 2000dbc:	99 7c 8b 98 	AND        $-4,R3         | CMP        R3,R1
 2000dc0:	78 9b ff e4 	BC         @0x02000da8    // 2000da8 <_malloc_r+0x40c>
 2000dc4:	33 40 80 00 	MOV        R2,R6
 2000dc8:	78 80 00 00 	BRA        @0x02000dcc    // 2000dcc <_malloc_r+0x430>
 2000dcc:	0c 85 80 0c 	LW         12(R6),R1
 2000dd0:	24 86 00 04 	LW         4(R8),R4
 2000dd4:	0c c6 40 0c 	SW         R1,$12(R9)
 2000dd8:	34 c6 40 08 	SW         R6,$8(R9)
 2000ddc:	4c c4 40 08 	SW         R9,$8(R1)
 2000de0:	4c c5 80 0c 	SW         R9,$12(R6)
 2000de4:	13 40 00 00 	MOV        R0,R2
 2000de8:	11 c0 00 02 	ASR        $2,R2
 2000dec:	8f 90 8a 60 	MOV        R2,R1          | ADD        $-32,R1
 2000df0:	78 90 00 10 	BLT        @0x02000e04    // 2000e04 <_malloc_r+0x468>
 2000df4:	96 01 d6 01 	LDI        $1,R2          | LDI        $1,R10
 2000df8:	51 84 40 00 	LSL        R1,R10
 2000dfc:	5e 00 00 00 	CLR        R11
 2000e00:	78 80 00 0c 	BRA        @0x02000e10    // 2000e10 <_malloc_r+0x474>
 2000e04:	d6 00 de 00 	CLR        R10            | CLR        R11
 2000e08:	8e 01 de 01 	LDI        $1,R1          | LDI        $1,R11
 2000e0c:	59 84 80 00 	LSL        R2,R11
 2000e10:	9f a0 96 00 	MOV        R4,R3          | CLR        R2
 2000e14:	14 06 80 00 	CMP        R10,R2
 2000e18:	1c 0e c0 00 	CMP.Z      R11,R3
 2000e1c:	78 98 01 fc 	BC         @0x0200101c    // 200101c <_malloc_r+0x680>
 2000e20:	b7 d0 bf d8 	MOV        R10,R6         | MOV        R11,R7
 2000e24:	b9 98 b1 90 	AND        R3,R7          | AND        R2,R6
 2000e28:	34 00 00 00 	CMP        $0,R6
 2000e2c:	3c 08 00 00 	CMP.Z      $0,R7
 2000e30:	78 a8 00 3c 	BNZ        @0x02000e70    // 2000e70 <_malloc_r+0x4d4>
 2000e34:	81 7c 82 04 	AND        $-4,R0         | ADD        $4,R0
 2000e38:	58 86 c0 00 	ADD        R11,R11
 2000e3c:	50 98 00 01 	ADD.C      $1,R10
 2000e40:	d2 d0 b7 90 	ADD        R10,R10        | MOV        R2,R6
 2000e44:	bf 98 b9 d8 	MOV        R3,R7          | AND        R11,R7
 2000e48:	b1 d0 b3 00 	AND        R10,R6         | CMP        $0,R6
 2000e4c:	3c 08 00 00 	CMP.Z      $0,R7
 2000e50:	78 a8 00 1c 	BNZ        @0x02000e70    // 2000e70 <_malloc_r+0x4d4>
 2000e54:	82 04 da d8 	ADD        $4,R0          | ADD        R11,R11
 2000e58:	50 98 00 01 	ADD.C      $1,R10
 2000e5c:	d2 d0 b7 90 	ADD        R10,R10        | MOV        R2,R6
 2000e60:	bf 98 b9 d8 	MOV        R3,R7          | AND        R11,R7
 2000e64:	b1 d0 b3 00 	AND        R10,R6         | CMP        $0,R6
 2000e68:	3c 08 00 00 	CMP.Z      $0,R7
 2000e6c:	78 8b ff e4 	BZ         @0x02000e54    // 2000e54 <_malloc_r+0x4b8>
 2000e70:	0b 40 00 00 	MOV        R0,R1
 2000e74:	09 80 00 03 	LSL        $3,R1
 2000e78:	bf c0 ba 88 	MOV        R8,R7          | ADD        R1,R7
 2000e7c:	9f b8 97 80 	MOV        R7,R3          | MOV        R0,R2
 2000e80:	4c 84 c0 0c 	LW         12(R3),R9
 2000e84:	1c 06 40 00 	CMP        R9,R3
 2000e88:	78 88 00 c8 	BZ         @0x02000f54    // 2000f54 <_malloc_r+0x5b8>
 2000e8c:	0c 86 40 04 	LW         4(R9),R1
 2000e90:	89 7c 8b a8 	AND        $-4,R1         | CMP        R5,R1
 2000e94:	78 b8 00 14 	BNC        @0x02000eac    // 2000eac <_malloc_r+0x510>
 2000e98:	78 80 00 ac 	BRA        @0x02000f48    // 2000f48 <_malloc_r+0x5ac>
 2000e9c:	0c 86 40 04 	LW         4(R9),R1
 2000ea0:	89 7c 8b a8 	AND        $-4,R1         | CMP        R5,R1
 2000ea4:	78 98 00 a0 	BC         @0x02000f48    // 2000f48 <_malloc_r+0x5ac>
 2000ea8:	78 80 00 00 	BRA        @0x02000eac    // 2000eac <_malloc_r+0x510>
 2000eac:	87 88 80 a8 	MOV        R1,R0          | SUB        R5,R0
 2000eb0:	04 00 00 10 	CMP        $16,R0
 2000eb4:	78 98 00 58 	BC         @0x02000f10    // 2000f10 <_malloc_r+0x574>
 2000eb8:	97 c8 92 a8 	MOV        R9,R2          | ADD        R5,R2
 2000ebc:	28 c0 00 01 	OR         $1,R5
 2000ec0:	2c c6 40 04 	SW         R5,$4(R9)
 2000ec4:	1c 86 40 0c 	LW         12(R9),R3
 2000ec8:	24 86 40 08 	LW         8(R9),R4
 2000ecc:	1c c5 00 0c 	SW         R3,$12(R4)
 2000ed0:	24 c4 c0 08 	SW         R4,$8(R3)
 2000ed4:	14 c6 00 14 	SW         R2,$20(R8)
 2000ed8:	14 c6 00 10 	SW         R2,$16(R8)
 2000edc:	32 03 00 40 	LDI        0x0200ebd4,R6  // 200ebd4 <__malloc_av_+0x8>
 2000ee0:	32 40 eb d4 
 2000ee4:	34 c4 80 0c 	SW         R6,$12(R2)
 2000ee8:	34 c4 80 08 	SW         R6,$8(R2)
 2000eec:	1b 40 00 00 	MOV        R0,R3
 2000ef0:	18 c0 00 01 	OR         $1,R3
 2000ef4:	1c c4 80 04 	SW         R3,$4(R2)
 2000ef8:	bf c8 ba 88 	MOV        R9,R7          | ADD        R1,R7
 2000efc:	85 b8 8f e0 	SW         R0,(R7)        | MOV        R12,R1
 2000f00:	87 fa fc f8 	JSR        0x02001774     // 2001774 <__malloc_unlock>
 2000f04:	02 00 17 74 
 2000f08:	8f c8 8a 08 	MOV        R9,R1          | ADD        $8,R1
 2000f0c:	78 80 04 2c 	BRA        @0x0200133c    // 200133c <_malloc_r+0x9a0>
 2000f10:	87 c8 82 88 	MOV        R9,R0          | ADD        R1,R0
 2000f14:	0b 40 00 00 	MOV        R0,R1
 2000f18:	04 84 00 04 	LW         4(R0),R0
 2000f1c:	00 c0 00 01 	OR         $1,R0
 2000f20:	04 c4 40 04 	SW         R0,$4(R1)
 2000f24:	04 86 40 0c 	LW         12(R9),R0
 2000f28:	0c 86 40 08 	LW         8(R9),R1
 2000f2c:	04 c4 40 0c 	SW         R0,$12(R1)
 2000f30:	0c c4 00 08 	SW         R1,$8(R0)
 2000f34:	0b 43 00 00 	MOV        R12,R1
 2000f38:	87 fa fc f8 	JSR        0x02001774     // 2001774 <__malloc_unlock>
 2000f3c:	02 00 17 74 
 2000f40:	8f c8 8a 08 	MOV        R9,R1          | ADD        $8,R1
 2000f44:	78 80 03 f4 	BRA        @0x0200133c    // 200133c <_malloc_r+0x9a0>
 2000f48:	4c 86 40 0c 	LW         12(R9),R9
 2000f4c:	1c 06 40 00 	CMP        R9,R3
 2000f50:	78 ab ff 48 	BNZ        @0x02000e9c    // 2000e9c <_malloc_r+0x500>
 2000f54:	9a 08 92 01 	ADD        $8,R3          | ADD        $1,R2
 2000f58:	8f 90 89 03 	MOV        R2,R1          | AND        $3,R1
 2000f5c:	78 ab ff 20 	BNZ        @0x02000e80    // 2000e80 <_malloc_r+0x4e4>
 2000f60:	8f 80 89 03 	MOV        R0,R1          | AND        $3,R1
 2000f64:	78 a8 00 14 	BNZ        @0x02000f7c    // 2000f7c <_malloc_r+0x5e0>
 2000f68:	03 42 c0 00 	MOV        R11,R0
 2000f6c:	01 03 ff ff 	XOR        $-1,R0
 2000f70:	20 44 00 00 	AND        R0,R4
 2000f74:	24 c6 00 04 	SW         R4,$4(R8)
 2000f78:	78 80 00 0c 	BRA        @0x02000f88    // 2000f88 <_malloc_r+0x5ec>
 2000f7c:	82 7f 8c b8 	ADD        $-1,R0         | LW         (R7),R1
 2000f80:	ba 78 bb 88 	ADD        $-8,R7         | CMP        R1,R7
 2000f84:	78 8b ff d8 	BZ         @0x02000f60    // 2000f60 <_malloc_r+0x5c4>
 2000f88:	b7 d0 bf d8 	MOV        R10,R6         | MOV        R11,R7
 2000f8c:	38 86 c0 00 	ADD        R11,R7
 2000f90:	30 98 00 01 	ADD.C      $1,R6
 2000f94:	b2 d0 b5 00 	ADD        R10,R6         | SW         R6,(SP)
 2000f98:	bd 04 d7 b0 	SW         R7,$4(SP)      | MOV        R6,R10
 2000f9c:	df b8 a5 14 	MOV        R7,R11         | SW         R4,$20(SP)
 2000fa0:	be 00 bd 10 	CLR        R7             | SW         R7,$16(SP)
 2000fa4:	1b 42 80 00 	MOV        R10,R3
 2000fa8:	18 c6 c0 00 	OR         R11,R3
 2000fac:	9b b8 9e 00 	CMP        R7,R3          | CLR        R3
 2000fb0:	1a 68 00 01 	LDILO.NZ   $1,R3
 2000fb4:	be 01 84 10 	LDI        $1,R7          | LW         16(SP),R0
 2000fb8:	8c 14 83 d0 	LW         20(SP),R1      | CMP        R10,R0
 2000fbc:	78 98 00 08 	BC         @0x02000fc8    // 2000fc8 <_malloc_r+0x62c>
 2000fc0:	0c 0e c0 00 	CMP.Z      R11,R1
 2000fc4:	78 b8 00 04 	BNC        @0x02000fcc    // 2000fcc <_malloc_r+0x630>
 2000fc8:	3e 00 00 00 	CLR        R7
 2000fcc:	18 45 c0 00 	AND        R7,R3
 2000fd0:	18 40 00 ff 	AND        $255,R3
 2000fd4:	78 88 00 44 	BZ         @0x0200101c    // 200101c <_malloc_r+0x680>
 2000fd8:	b4 00 bc 04 	LW         (SP),R6        | LW         4(SP),R7
 2000fdc:	84 10 8c 14 	LW         16(SP),R0      | LW         20(SP),R1
 2000fe0:	b9 88 b1 80 	AND        R1,R7          | AND        R0,R6
 2000fe4:	87 90 b3 00 	MOV        R2,R0          | CMP        $0,R6
 2000fe8:	3c 08 00 00 	CMP.Z      $0,R7
 2000fec:	78 ab fe 80 	BNZ        @0x02000e70    // 2000e70 <_malloc_r+0x4d4>
 2000ff0:	87 90 8f c0 	MOV        R2,R0          | MOV        R8,R1
 2000ff4:	c4 10 cc 14 	LW         16(SP),R8      | LW         20(SP),R9
 2000ff8:	82 04 da d8 	ADD        $4,R0          | ADD        R11,R11
 2000ffc:	50 98 00 01 	ADD.C      $1,R10
 2001000:	d2 d0 97 c0 	ADD        R10,R10        | MOV        R8,R2
 2001004:	9f c8 99 d8 	MOV        R9,R3          | AND        R11,R3
 2001008:	91 d0 93 00 	AND        R10,R2         | CMP        $0,R2
 200100c:	1c 08 00 00 	CMP.Z      $0,R3
 2001010:	78 8b ff e4 	BZ         @0x02000ff8    // 2000ff8 <_malloc_r+0x65c>
 2001014:	43 40 40 00 	MOV        R1,R8
 2001018:	78 83 fe 54 	BRA        @0x02000e70    // 2000e70 <_malloc_r+0x4d4>
 200101c:	4c 86 00 08 	LW         8(R8),R9
 2001020:	54 86 40 04 	LW         4(R9),R10
 2001024:	d1 7c bf d0 	AND        $-4,R10        | MOV        R10,R7
 2001028:	b8 a8 b6 00 	SUB        R5,R7          | CLR        R6
 200102c:	d3 a8 86 00 	CMP        R5,R10         | CLR        R0
 2001030:	02 58 00 01 	LDILO.C    $1,R0
 2001034:	8e 01 b3 00 	LDI        $1,R1          | CMP        $0,R6
 2001038:	78 90 00 10 	BLT        @0x0200104c    // 200104c <_malloc_r+0x6b0>
 200103c:	78 a8 00 08 	BNZ        @0x02001048    // 2001048 <_malloc_r+0x6ac>
 2001040:	3c 00 00 0e 	CMP        $14,R7
 2001044:	78 98 00 04 	BC         @0x0200104c    // 200104c <_malloc_r+0x6b0>
 2001048:	0e 00 00 00 	CLR        R1
 200104c:	00 c4 40 00 	OR         R1,R0
 2001050:	00 40 00 ff 	AND        $255,R0
 2001054:	78 88 02 68 	BZ         @0x020012c0    // 20012c0 <_malloc_r+0x924>
 2001058:	02 03 20 40 	LDI        0x0204f1a4,R0  // 204f1a4 <__malloc_top_pad>
 200105c:	02 40 f1 a4 
 2001060:	04 84 00 04 	LW         4(R0),R0
 2001064:	8f a8 8a 80 	MOV        R5,R1          | ADD        R0,R1
 2001068:	03 40 40 00 	MOV        R1,R0
 200106c:	22 03 00 40 	LDI        0x0200ebc0,R4  // 200ebc0 <__malloc_sbrk_base>
 2001070:	22 40 eb c0 
 2001074:	8c a0 8b 7f 	LW         (R4),R1        | CMP        $-1,R1
 2001078:	78 a8 00 0c 	BNZ        @0x02001088    // 2001088 <_malloc_r+0x6ec>
 200107c:	82 10 85 10 	ADD        $16,R0         | SW         R0,$16(SP)
 2001080:	13 40 00 00 	MOV        R0,R2
 2001084:	78 80 00 0c 	BRA        @0x02001094    // 2001094 <_malloc_r+0x6f8>
 2001088:	00 80 10 0f 	ADD        $4111,R0
 200108c:	00 43 f0 00 	AND        $-4096,R0
 2001090:	85 10 97 80 	SW         R0,$16(SP)     | MOV        R0,R2
 2001094:	8f e0 a5 08 	MOV        R12,R1         | SW         R4,$8(SP)
 2001098:	87 fa fc f8 	JSR        0x0200c8f8     // 200c8f8 <_sbrk_r>
 200109c:	02 00 c8 f8 
 20010a0:	df 88 8b 7f 	MOV        R1,R11         | CMP        $-1,R1
 20010a4:	24 87 40 08 	LW         8(SP),R4
 20010a8:	78 a8 00 10 	BNZ        @0x020010bc    // 20010bc <_malloc_r+0x720>
 20010ac:	4c 86 00 08 	LW         8(R8),R9
 20010b0:	04 86 40 04 	LW         4(R9),R0
 20010b4:	00 43 ff fc 	AND        $-4,R0
 20010b8:	78 80 01 bc 	BRA        @0x02001278    // 2001278 <_malloc_r+0x8dc>
 20010bc:	8f c8 8a d0 	MOV        R9,R1          | ADD        R10,R1
 20010c0:	cb c0 86 00 	CMP        R8,R9          | CLR        R0
 20010c4:	02 68 00 01 	LDILO.NZ   $1,R0
 20010c8:	db 88 96 00 	CMP        R1,R11         | CLR        R2
 20010cc:	12 58 00 01 	LDILO.C    $1,R2
 20010d0:	00 44 80 00 	AND        R2,R0
 20010d4:	78 88 00 10 	BZ         @0x020010e8    // 20010e8 <_malloc_r+0x74c>
 20010d8:	4c 86 00 08 	LW         8(R8),R9
 20010dc:	04 86 40 04 	LW         4(R9),R0
 20010e0:	00 43 ff fc 	AND        $-4,R0
 20010e4:	78 80 01 90 	BRA        @0x02001278    // 2001278 <_malloc_r+0x8dc>
 20010e8:	1a 03 20 40 	LDI        0x0204f16c,R3  // 204f16c <__malloc_current_mallinfo>
 20010ec:	1a 40 f1 6c 
 20010f0:	84 98 94 10 	LW         (R3),R0        | LW         16(SP),R2
 20010f4:	92 80 95 98 	ADD        R0,R2          | SW         R2,(R3)
 20010f8:	0c 06 c0 00 	CMP        R11,R1
 20010fc:	78 a8 00 24 	BNZ        @0x02001124    // 2001124 <_malloc_r+0x788>
 2001100:	03 40 40 00 	MOV        R1,R0
 2001104:	00 40 0f ff 	AND        $4095,R0
 2001108:	78 a8 00 18 	BNZ        @0x02001124    // 2001124 <_malloc_r+0x788>
 200110c:	0c 86 00 08 	LW         8(R8),R1
 2001110:	87 d0 9c 10 	MOV        R10,R0         | LW         16(SP),R3
 2001114:	00 84 c0 00 	ADD        R3,R0
 2001118:	00 c0 00 01 	OR         $1,R0
 200111c:	04 c4 40 04 	SW         R0,$4(R1)
 2001120:	78 80 00 e4 	BRA        @0x02001208    // 2001208 <_malloc_r+0x86c>
 2001124:	84 a0 83 7f 	LW         (R4),R0        | CMP        $-1,R0
 2001128:	78 a8 00 08 	BNZ        @0x02001134    // 2001134 <_malloc_r+0x798>
 200112c:	5c c5 00 00 	SW         R11,(R4)
 2001130:	78 80 00 08 	BRA        @0x0200113c    // 200113c <_malloc_r+0x7a0>
 2001134:	87 d8 80 88 	MOV        R11,R0         | SUB        R1,R0
 2001138:	82 90 85 98 	ADD        R2,R0          | SW         R0,(R3)
 200113c:	87 d8 81 07 	MOV        R11,R0         | AND        $7,R0
 2001140:	78 88 00 14 	BZ         @0x02001158    // 2001158 <_malloc_r+0x7bc>
 2001144:	58 04 00 00 	SUB        R0,R11
 2001148:	5b 42 c0 08 	MOV        $8+R11,R11
 200114c:	16 00 10 08 	LDI        $4104,R2
 2001150:	10 04 00 00 	SUB        R0,R2
 2001154:	78 80 00 04 	BRA        @0x0200115c    // 200115c <_malloc_r+0x7c0>
 2001158:	16 00 10 00 	LDI        $4096,R2
 200115c:	87 d8 a4 10 	MOV        R11,R0         | LW         16(SP),R4
 2001160:	00 85 00 00 	ADD        R4,R0
 2001164:	00 40 0f ff 	AND        $4095,R0
 2001168:	a7 90 a0 80 	MOV        R2,R4          | SUB        R0,R4
 200116c:	97 a0 8f e0 	MOV        R4,R2          | MOV        R12,R1
 2001170:	9d 0c a5 08 	SW         R3,$12(SP)     | SW         R4,$8(SP)
 2001174:	87 fa fc f8 	JSR        0x0200c8f8     // 200c8f8 <_sbrk_r>
 2001178:	02 00 c8 f8 
 200117c:	8b 7f 9c 0c 	CMP        $-1,R1         | LW         12(SP),R3
 2001180:	24 87 40 08 	LW         8(SP),R4
 2001184:	78 88 00 10 	BZ         @0x02001198    // 2001198 <_malloc_r+0x7fc>
 2001188:	87 88 80 d8 	MOV        R1,R0          | SUB        R11,R0
 200118c:	00 85 00 00 	ADD        R4,R0
 2001190:	00 c0 00 01 	OR         $1,R0
 2001194:	78 80 00 04 	BRA        @0x0200119c    // 200119c <_malloc_r+0x800>
 2001198:	86 01 a6 00 	LDI        $1,R0          | CLR        R4
 200119c:	8c 98 97 a0 	LW         (R3),R1        | MOV        R4,R2
 20011a0:	92 88 95 98 	ADD        R1,R2          | SW         R2,(R3)
 20011a4:	5c c6 00 08 	SW         R11,$8(R8)
 20011a8:	04 c6 c0 04 	SW         R0,$4(R11)
 20011ac:	4c 06 00 00 	CMP        R8,R9
 20011b0:	78 88 00 54 	BZ         @0x02001208    // 2001208 <_malloc_r+0x86c>
 20011b4:	54 00 00 10 	CMP        $16,R10
 20011b8:	78 b8 00 0c 	BNC        @0x020011c8    // 20011c8 <_malloc_r+0x82c>
 20011bc:	36 00 00 01 	LDI        $1,R6
 20011c0:	34 c6 c0 04 	SW         R6,$4(R11)
 20011c4:	78 80 00 e4 	BRA        @0x020012ac    // 20012ac <_malloc_r+0x910>
 20011c8:	d2 74 d1 78 	ADD        $-12,R10       | AND        $-8,R10
 20011cc:	04 86 40 04 	LW         4(R9),R0
 20011d0:	00 40 00 01 	AND        $1,R0
 20011d4:	00 c6 80 00 	OR         R10,R0
 20011d8:	04 c6 40 04 	SW         R0,$4(R9)
 20011dc:	87 c8 82 d0 	MOV        R9,R0          | ADD        R10,R0
 20011e0:	0e 00 00 05 	LDI        $5,R1
 20011e4:	0c c4 00 04 	SW         R1,$4(R0)
 20011e8:	0c c4 00 08 	SW         R1,$8(R0)
 20011ec:	54 00 00 10 	CMP        $16,R10
 20011f0:	78 98 00 14 	BC         @0x02001208    // 2001208 <_malloc_r+0x86c>
 20011f4:	97 c8 92 08 	MOV        R9,R2          | ADD        $8,R2
 20011f8:	8f e0 9d 0c 	MOV        R12,R1         | SW         R3,$12(SP)
 20011fc:	87 fa fc f8 	JSR        0x0200658c     // 200658c <_free_r>
 2001200:	02 00 65 8c 
 2001204:	9c 0c 94 98 	LW         12(SP),R3      | LW         (R3),R2
 2001208:	8f 90 87 90 	MOV        R2,R1          | MOV        R2,R0
 200120c:	01 c0 00 1f 	ASR        $31,R0
 2001210:	22 03 20 40 	LDI        0x0204f19c,R4  // 204f19c <__malloc_max_sbrked_mem>
 2001214:	22 40 f1 9c 
 2001218:	14 85 00 00 	LW         (R4),R2
 200121c:	1c 85 00 04 	LW         4(R4),R3
 2001220:	14 04 00 00 	CMP        R0,R2
 2001224:	78 98 00 08 	BC         @0x02001230    // 2001230 <_malloc_r+0x894>
 2001228:	1c 0c 40 00 	CMP.Z      R1,R3
 200122c:	78 b8 00 08 	BNC        @0x02001238    // 2001238 <_malloc_r+0x89c>
 2001230:	04 c5 00 00 	SW         R0,(R4)
 2001234:	0c c5 00 04 	SW         R1,$4(R4)
 2001238:	22 03 20 40 	LDI        0x0204f194,R4  // 204f194 <__malloc_max_total_mem>
 200123c:	22 40 f1 94 
 2001240:	14 85 00 00 	LW         (R4),R2
 2001244:	1c 85 00 04 	LW         4(R4),R3
 2001248:	14 04 00 00 	CMP        R0,R2
 200124c:	1c 0c 40 00 	CMP.Z      R1,R3
 2001250:	78 98 00 10 	BC         @0x02001264    // 2001264 <_malloc_r+0x8c8>
 2001254:	4c 86 00 08 	LW         8(R8),R9
 2001258:	04 86 40 04 	LW         4(R9),R0
 200125c:	00 43 ff fc 	AND        $-4,R0
 2001260:	78 80 00 14 	BRA        @0x02001278    // 2001278 <_malloc_r+0x8dc>
 2001264:	04 c5 00 00 	SW         R0,(R4)
 2001268:	0c c5 00 04 	SW         R1,$4(R4)
 200126c:	4c 86 00 08 	LW         8(R8),R9
 2001270:	04 86 40 04 	LW         4(R9),R0
 2001274:	00 43 ff fc 	AND        $-4,R0
 2001278:	bf 80 b8 a8 	MOV        R0,R7          | SUB        R5,R7
 200127c:	b6 00 8e 01 	CLR        R6             | LDI        $1,R1
 2001280:	34 00 00 00 	CMP        $0,R6
 2001284:	78 90 00 10 	BLT        @0x02001298    // 2001298 <_malloc_r+0x8fc>
 2001288:	78 a8 00 08 	BNZ        @0x02001294    // 2001294 <_malloc_r+0x8f8>
 200128c:	3c 00 00 0e 	CMP        $14,R7
 2001290:	78 98 00 04 	BC         @0x02001298    // 2001298 <_malloc_r+0x8fc>
 2001294:	0e 00 00 00 	CLR        R1
 2001298:	83 a8 86 00 	CMP        R5,R0          | CLR        R0
 200129c:	02 58 00 01 	LDILO.C    $1,R0
 20012a0:	00 c4 40 00 	OR         R1,R0
 20012a4:	00 40 00 ff 	AND        $255,R0
 20012a8:	78 88 00 14 	BZ         @0x020012c0    // 20012c0 <_malloc_r+0x924>
 20012ac:	0b 43 00 00 	MOV        R12,R1
 20012b0:	87 fa fc f8 	JSR        0x02001774     // 2001774 <__malloc_unlock>
 20012b4:	02 00 17 74 
 20012b8:	0e 00 00 00 	CLR        R1
 20012bc:	78 80 00 7c 	BRA        @0x0200133c    // 200133c <_malloc_r+0x9a0>
 20012c0:	03 41 40 00 	MOV        R5,R0
 20012c4:	00 c0 00 01 	OR         $1,R0
 20012c8:	04 c6 40 04 	SW         R0,$4(R9)
 20012cc:	87 c8 82 a8 	MOV        R9,R0          | ADD        R5,R0
 20012d0:	04 c6 00 08 	SW         R0,$8(R8)
 20012d4:	0b 41 c0 00 	MOV        R7,R1
 20012d8:	08 c0 00 01 	OR         $1,R1
 20012dc:	0c c4 00 04 	SW         R1,$4(R0)
 20012e0:	0b 43 00 00 	MOV        R12,R1
 20012e4:	87 fa fc f8 	JSR        0x02001774     // 2001774 <__malloc_unlock>
 20012e8:	02 00 17 74 
 20012ec:	8f c8 8a 08 	MOV        R9,R1          | ADD        $8,R1
 20012f0:	78 80 00 48 	BRA        @0x0200133c    // 200133c <_malloc_r+0x9a0>
 20012f4:	87 fa fc f8 	JSR        0x02001770     // 2001770 <__malloc_lock>
 20012f8:	02 00 17 70 
 20012fc:	8e 18 86 02 	LDI        $24,R1         | LDI        $2,R0
 2001300:	2e 00 00 10 	LDI        $16,R5
 2001304:	78 83 f6 f4 	BRA        @0x020009fc    // 20009fc <_malloc_r+0x60>
 2001308:	14 00 00 11 	CMP        $17,R2
 200130c:	78 9b ff e4 	BC         @0x020012f4    // 20012f4 <_malloc_r+0x958>
 2001310:	78 83 f6 c0 	BRA        @0x020009d4    // 20009d4 <_malloc_r+0x38>
 2001314:	14 c6 00 14 	SW         R2,$20(R8)
 2001318:	14 c6 00 10 	SW         R2,$16(R8)
 200131c:	97 c8 92 88 	MOV        R9,R2          | ADD        R1,R2
 2001320:	04 84 80 04 	LW         4(R2),R0
 2001324:	00 c0 00 01 	OR         $1,R0
 2001328:	04 c4 80 04 	SW         R0,$4(R2)
 200132c:	0b 43 00 00 	MOV        R12,R1
 2001330:	87 fa fc f8 	JSR        0x02001774     // 2001774 <__malloc_unlock>
 2001334:	02 00 17 74 
 2001338:	8f c8 8a 08 	MOV        R9,R1          | ADD        $8,R1
 200133c:	84 18 ac 1c 	LW         24(SP),R0      | LW         28(SP),R5
 2001340:	b4 20 bc 24 	LW         32(SP),R6      | LW         36(SP),R7
 2001344:	c4 28 cc 2c 	LW         40(SP),R8      | LW         44(SP),R9
 2001348:	d4 30 dc 34 	LW         48(SP),R10     | LW         52(SP),R11
 200134c:	e4 38 ea 3c 	LW         56(SP),R12     | ADD        $60,SP
 2001350:	7b 40 00 00 	RTN

02001354 <memcpy>:
 2001354:	e8 18 ad 00 	SUB        $24,SP         | SW         R5,(SP)
 2001358:	b5 04 bd 08 	SW         R6,$4(SP)      | SW         R7,$8(SP)
 200135c:	c5 0c cd 10 	SW         R8,$12(SP)     | SW         R9,$16(SP)
 2001360:	d5 14 9b 20 	SW         R10,$20(SP)    | CMP        $32,R3
 2001364:	78 b8 00 10 	BNC        @0x02001378    // 2001378 <memcpy+0x24>
 2001368:	af 98 aa 7f 	MOV        R3,R5          | ADD        $-1,R5
 200136c:	1c 00 00 00 	CMP        $0,R3
 2001370:	78 a8 00 d4 	BNZ        @0x02001448    // 2001448 <memcpy+0xf4>
 2001374:	78 80 01 9c 	BRA        @0x02001514    // 2001514 <memcpy+0x1c0>
 2001378:	23 40 80 00 	MOV        R2,R4
 200137c:	20 c4 40 00 	OR         R1,R4
 2001380:	20 40 00 07 	AND        $7,R4
 2001384:	78 a8 01 7c 	BNZ        @0x02001504    // 2001504 <memcpy+0x1b0>
 2001388:	af 90 a7 88 	MOV        R2,R5          | MOV        R1,R4
 200138c:	33 40 c0 00 	MOV        R3,R6
 2001390:	3c 85 40 00 	LW         (R5),R7
 2001394:	44 85 40 04 	LW         4(R5),R8
 2001398:	3c c5 00 00 	SW         R7,(R4)
 200139c:	44 c5 00 04 	SW         R8,$4(R4)
 20013a0:	3c 85 40 08 	LW         8(R5),R7
 20013a4:	44 85 40 0c 	LW         12(R5),R8
 20013a8:	3c c5 00 08 	SW         R7,$8(R4)
 20013ac:	44 c5 00 0c 	SW         R8,$12(R4)
 20013b0:	3c 85 40 10 	LW         16(R5),R7
 20013b4:	44 85 40 14 	LW         20(R5),R8
 20013b8:	3c c5 00 10 	SW         R7,$16(R4)
 20013bc:	44 c5 00 14 	SW         R8,$20(R4)
 20013c0:	a2 20 aa 20 	ADD        $32,R4         | ADD        $32,R5
 20013c4:	3c 85 7f f8 	LW         -8(R5),R7
 20013c8:	44 85 7f fc 	LW         -4(R5),R8
 20013cc:	3c c5 3f f8 	SW         R7,$-8(R4)
 20013d0:	c5 a4 b2 60 	SW         R8,$-4(R4)     | ADD        $-32,R6
 20013d4:	34 00 00 20 	CMP        $32,R6
 20013d8:	78 bb ff b4 	BNC        @0x02001390    // 2001390 <memcpy+0x3c>
 20013dc:	af 98 aa 60 	MOV        R3,R5          | ADD        $-32,R5
 20013e0:	a9 60 aa 20 	AND        $-32,R5        | ADD        $32,R5
 20013e4:	a7 88 a2 a8 	MOV        R1,R4          | ADD        R5,R4
 20013e8:	92 a8 af 98 	ADD        R5,R2          | MOV        R3,R5
 20013ec:	a9 1f ab 08 	AND        $31,R5         | CMP        $8,R5
 20013f0:	78 98 01 18 	BC         @0x0200150c    // 200150c <memcpy+0x1b8>
 20013f4:	34 84 80 00 	LW         (R2),R6
 20013f8:	3c 84 80 04 	LW         4(R2),R7
 20013fc:	34 c5 00 00 	SW         R6,(R4)
 2001400:	3c c5 00 04 	SW         R7,$4(R4)
 2001404:	b7 a8 b2 78 	MOV        R5,R6          | ADD        $-8,R6
 2001408:	34 00 00 08 	CMP        $8,R6
 200140c:	78 98 00 28 	BC         @0x02001438    // 2001438 <memcpy+0xe4>
 2001410:	3c 84 80 08 	LW         8(R2),R7
 2001414:	44 84 80 0c 	LW         12(R2),R8
 2001418:	3c c5 00 08 	SW         R7,$8(R4)
 200141c:	44 c5 00 0c 	SW         R8,$12(R4)
 2001420:	aa 70 ab 08 	ADD        $-16,R5        | CMP        $8,R5
 2001424:	78 98 00 10 	BC         @0x02001438    // 2001438 <memcpy+0xe4>
 2001428:	3c 84 80 10 	LW         16(R2),R7
 200142c:	44 84 80 14 	LW         20(R2),R8
 2001430:	3c c5 00 10 	SW         R7,$16(R4)
 2001434:	44 c5 00 14 	SW         R8,$20(R4)
 2001438:	b1 78 b2 08 	AND        $-8,R6         | ADD        $8,R6
 200143c:	af 98 a9 07 	MOV        R3,R5          | AND        $7,R5
 2001440:	92 b0 a2 b0 	ADD        R6,R2          | ADD        R6,R4
 2001444:	78 80 00 c4 	BRA        @0x0200150c    // 200150c <memcpy+0x1b8>
 2001448:	23 40 40 00 	MOV        R1,R4
 200144c:	20 c4 80 00 	OR         R2,R4
 2001450:	a1 03 a6 00 	AND        $3,R4          | CLR        R4
 2001454:	22 48 00 01 	LDILO.Z    $1,R4
 2001458:	9b 09 b6 00 	CMP        $9,R3          | CLR        R6
 200145c:	32 78 00 01 	LDILO.NC   $1,R6
 2001460:	20 45 80 00 	AND        R6,R4
 2001464:	78 88 00 7c 	BZ         @0x020014e4    // 20014e4 <memcpy+0x190>
 2001468:	a7 98 a2 7c 	MOV        R3,R4          | ADD        $-4,R4
 200146c:	21 40 00 02 	LSR        $2,R4
 2001470:	a2 01 cf a0 	ADD        $1,R4          | MOV        R4,R9
 2001474:	49 80 00 02 	LSL        $2,R9
 2001478:	2c 00 00 03 	CMP        $3,R5
 200147c:	78 98 00 3c 	BC         @0x020014bc    // 20014bc <memcpy+0x168>
 2001480:	c7 90 bf 88 	MOV        R2,R8          | MOV        R1,R7
 2001484:	36 00 00 00 	CLR        R6
 2001488:	d4 c0 d5 b8 	LW         (R8),R10       | SW         R10,(R7)
 200148c:	b2 01 c2 04 	ADD        $1,R6          | ADD        $4,R8
 2001490:	ba 04 b3 a0 	ADD        $4,R7          | CMP        R4,R6
 2001494:	78 9b ff f0 	BC         @0x02001488    // 2001488 <memcpy+0x134>
 2001498:	78 80 00 0c 	BRA        @0x020014a8    // 20014a8 <memcpy+0x154>
 200149c:	15 84 80 02 	LB         2(R2),R2
 20014a0:	15 c5 00 02 	SB         R2,$2(R4)
 20014a4:	78 80 00 6c 	BRA        @0x02001514    // 2001514 <memcpy+0x1c0>
 20014a8:	a7 88 a2 c8 	MOV        R1,R4          | ADD        R9,R4
 20014ac:	92 c8 a8 c8 	ADD        R9,R2          | SUB        R9,R5
 20014b0:	1c 06 40 00 	CMP        R9,R3
 20014b4:	78 a8 00 08 	BNZ        @0x020014c0    // 20014c0 <memcpy+0x16c>
 20014b8:	78 80 00 58 	BRA        @0x02001514    // 2001514 <memcpy+0x1c0>
 20014bc:	23 40 40 00 	MOV        R1,R4
 20014c0:	1d 84 80 00 	LB         (R2),R3
 20014c4:	1d c5 00 00 	SB         R3,(R4)
 20014c8:	2c 00 00 00 	CMP        $0,R5
 20014cc:	78 88 00 44 	BZ         @0x02001514    // 2001514 <memcpy+0x1c0>
 20014d0:	35 84 80 01 	LB         1(R2),R6
 20014d4:	35 c5 00 01 	SB         R6,$1(R4)
 20014d8:	2c 00 00 01 	CMP        $1,R5
 20014dc:	78 ab ff bc 	BNZ        @0x0200149c    // 200149c <memcpy+0x148>
 20014e0:	78 80 00 30 	BRA        @0x02001514    // 2001514 <memcpy+0x1c0>
 20014e4:	a7 88 af 98 	MOV        R1,R4          | MOV        R3,R5
 20014e8:	9f a0 9a a8 	MOV        R4,R3          | ADD        R5,R3
 20014ec:	a2 01 92 01 	ADD        $1,R4          | ADD        $1,R2
 20014f0:	3d 84 bf ff 	LB         -1(R2),R7
 20014f4:	3d c5 3f ff 	SB         R7,$-1(R4)
 20014f8:	24 04 c0 00 	CMP        R3,R4
 20014fc:	78 ab ff ec 	BNZ        @0x020014ec    // 20014ec <memcpy+0x198>
 2001500:	78 80 00 10 	BRA        @0x02001514    // 2001514 <memcpy+0x1c0>
 2001504:	af 98 aa 7f 	MOV        R3,R5          | ADD        $-1,R5
 2001508:	78 83 ff 3c 	BRA        @0x02001448    // 2001448 <memcpy+0xf4>
 200150c:	2c 00 00 00 	CMP        $0,R5
 2001510:	78 ab ff d4 	BNZ        @0x020014e8    // 20014e8 <memcpy+0x194>
 2001514:	ac 00 b4 04 	LW         (SP),R5        | LW         4(SP),R6
 2001518:	bc 08 c4 0c 	LW         8(SP),R7       | LW         12(SP),R8
 200151c:	cc 10 d4 14 	LW         16(SP),R9      | LW         20(SP),R10
 2001520:	ea 18 ff 80 	ADD        $24,SP         | RTN

02001524 <memset>:
 2001524:	e8 20 ad 00 	SUB        $32,SP         | SW         R5,(SP)
 2001528:	b5 04 bd 08 	SW         R6,$4(SP)      | SW         R7,$8(SP)
 200152c:	c5 0c cd 10 	SW         R8,$12(SP)     | SW         R9,$16(SP)
 2001530:	d5 14 dd 18 	SW         R10,$20(SP)    | SW         R11,$24(SP)
 2001534:	e5 1c a7 88 	SW         R12,$28(SP)    | MOV        R1,R4
 2001538:	20 40 00 07 	AND        $7,R4
 200153c:	78 88 00 38 	BZ         @0x02001578    // 2001578 <memset+0x54>
 2001540:	af 98 aa 7f 	MOV        R3,R5          | ADD        $-1,R5
 2001544:	1c 00 00 00 	CMP        $0,R3
 2001548:	78 88 02 10 	BZ         @0x0200175c    // 200175c <memset+0x238>
 200154c:	33 40 80 00 	MOV        R2,R6
 2001550:	30 40 00 ff 	AND        $255,R6
 2001554:	23 40 40 00 	MOV        R1,R4
 2001558:	78 80 00 08 	BRA        @0x02001564    // 2001564 <memset+0x40>
 200155c:	aa 7f ab 7f 	ADD        $-1,R5         | CMP        $-1,R5
 2001560:	78 88 01 f8 	BZ         @0x0200175c    // 200175c <memset+0x238>
 2001564:	20 80 00 01 	ADD        $1,R4
 2001568:	35 c5 3f ff 	SB         R6,$-1(R4)
 200156c:	9f a0 99 07 	MOV        R4,R3          | AND        $7,R3
 2001570:	78 ab ff e8 	BNZ        @0x0200155c    // 200155c <memset+0x38>
 2001574:	78 80 00 04 	BRA        @0x0200157c    // 200157c <memset+0x58>
 2001578:	a7 88 af 98 	MOV        R1,R4          | MOV        R3,R5
 200157c:	2c 00 00 08 	CMP        $8,R5
 2001580:	78 98 00 b4 	BC         @0x02001638    // 2001638 <memset+0x114>
 2001584:	1b 40 80 00 	MOV        R2,R3
 2001588:	18 40 00 ff 	AND        $255,R3
 200158c:	33 40 c0 00 	MOV        R3,R6
 2001590:	31 80 00 08 	LSL        $8,R6
 2001594:	5b 41 80 00 	MOV        R6,R11
 2001598:	58 c4 c0 00 	OR         R3,R11
 200159c:	d6 00 c7 d8 	CLR        R10            | MOV        R11,R8
 20015a0:	41 40 00 10 	LSR        $16,R8
 20015a4:	4b 42 c0 00 	MOV        R11,R9
 20015a8:	49 80 00 10 	LSL        $16,R9
 20015ac:	48 c6 c0 00 	OR         R11,R9
 20015b0:	40 c6 80 00 	OR         R10,R8
 20015b4:	b7 c8 be 00 	MOV        R9,R6          | CLR        R7
 20015b8:	38 c6 40 00 	OR         R9,R7
 20015bc:	30 c6 00 00 	OR         R8,R6
 20015c0:	2c 00 00 20 	CMP        $32,R5
 20015c4:	78 98 00 48 	BC         @0x02001610    // 2001610 <memset+0xec>
 20015c8:	9f a0 c7 a8 	MOV        R4,R3          | MOV        R5,R8
 20015cc:	34 c4 c0 00 	SW         R6,(R3)
 20015d0:	3c c4 c0 04 	SW         R7,$4(R3)
 20015d4:	34 c4 c0 08 	SW         R6,$8(R3)
 20015d8:	3c c4 c0 0c 	SW         R7,$12(R3)
 20015dc:	34 c4 c0 10 	SW         R6,$16(R3)
 20015e0:	3c c4 c0 14 	SW         R7,$20(R3)
 20015e4:	18 80 00 20 	ADD        $32,R3
 20015e8:	34 c4 ff f8 	SW         R6,$-8(R3)
 20015ec:	bd 9c c2 60 	SW         R7,$-4(R3)     | ADD        $-32,R8
 20015f0:	44 00 00 20 	CMP        $32,R8
 20015f4:	78 bb ff d4 	BNC        @0x020015cc    // 20015cc <memset+0xa8>
 20015f8:	9f a8 9a 60 	MOV        R5,R3          | ADD        $-32,R3
 20015fc:	99 60 9a 20 	AND        $-32,R3        | ADD        $32,R3
 2001600:	a2 98 a9 1f 	ADD        R3,R4          | AND        $31,R5
 2001604:	2c 00 00 08 	CMP        $8,R5
 2001608:	78 b8 00 04 	BNC        @0x02001610    // 2001610 <memset+0xec>
 200160c:	78 80 00 28 	BRA        @0x02001638    // 2001638 <memset+0x114>
 2001610:	c7 a0 9f a8 	MOV        R4,R8          | MOV        R5,R3
 2001614:	40 80 00 08 	ADD        $8,R8
 2001618:	34 c6 3f f8 	SW         R6,$-8(R8)
 200161c:	bd c4 9a 78 	SW         R7,$-4(R8)     | ADD        $-8,R3
 2001620:	1c 00 00 08 	CMP        $8,R3
 2001624:	78 bb ff ec 	BNC        @0x02001614    // 2001614 <memset+0xf0>
 2001628:	9f a8 9a 78 	MOV        R5,R3          | ADD        $-8,R3
 200162c:	99 78 9a 08 	AND        $-8,R3         | ADD        $8,R3
 2001630:	a9 07 a2 98 	AND        $7,R5          | ADD        R3,R4
 2001634:	78 80 00 00 	BRA        @0x02001638    // 2001638 <memset+0x114>
 2001638:	cf a8 ca 7f 	MOV        R5,R9          | ADD        $-1,R9
 200163c:	2c 00 00 00 	CMP        $0,R5
 2001640:	78 88 01 18 	BZ         @0x0200175c    // 200175c <memset+0x238>
 2001644:	10 40 00 ff 	AND        $255,R2
 2001648:	1b 41 1f ff 	MOV        $-1+R4,R3
 200164c:	19 03 ff ff 	XOR        $-1,R3
 2001650:	99 03 ab 98 	AND        $3,R3          | CMP        R3,R5
 2001654:	1b 59 40 00 	MOV.C      R5,R3
 2001658:	2c 00 00 07 	CMP        $7,R5
 200165c:	78 a8 00 10 	BNZ        @0x02001670    // 2001670 <memset+0x14c>
 2001660:	bf c8 b7 a0 	MOV        R9,R7          | MOV        R4,R6
 2001664:	1c 00 00 00 	CMP        $0,R3
 2001668:	78 88 00 70 	BZ         @0x020016dc    // 20016dc <memset+0x1b8>
 200166c:	78 80 00 04 	BRA        @0x02001674    // 2001674 <memset+0x150>
 2001670:	1b 41 40 00 	MOV        R5,R3
 2001674:	b7 a0 b2 01 	MOV        R4,R6          | ADD        $1,R6
 2001678:	15 c5 00 00 	SB         R2,(R4)
 200167c:	bf a8 ba 7e 	MOV        R5,R7          | ADD        $-2,R7
 2001680:	1c 00 00 01 	CMP        $1,R3
 2001684:	78 88 00 48 	BZ         @0x020016d0    // 20016d0 <memset+0x1ac>
 2001688:	33 41 80 01 	MOV        $1+R6,R6
 200168c:	15 c5 00 01 	SB         R2,$1(R4)
 2001690:	bf bf 9b 02 	MOV        $-1+R7,R7      | CMP        $2,R3
 2001694:	78 88 00 38 	BZ         @0x020016d0    // 20016d0 <memset+0x1ac>
 2001698:	33 41 80 01 	MOV        $1+R6,R6
 200169c:	15 c5 00 02 	SB         R2,$2(R4)
 20016a0:	bf bf 9b 03 	MOV        $-1+R7,R7      | CMP        $3,R3
 20016a4:	78 88 00 28 	BZ         @0x020016d0    // 20016d0 <memset+0x1ac>
 20016a8:	33 41 80 01 	MOV        $1+R6,R6
 20016ac:	15 c5 00 03 	SB         R2,$3(R4)
 20016b0:	bf bf 9b 04 	MOV        $-1+R7,R7      | CMP        $4,R3
 20016b4:	78 88 00 18 	BZ         @0x020016d0    // 20016d0 <memset+0x1ac>
 20016b8:	33 41 80 01 	MOV        $1+R6,R6
 20016bc:	15 c5 00 04 	SB         R2,$4(R4)
 20016c0:	bf bf 9b 06 	MOV        $-1+R7,R7      | CMP        $6,R3
 20016c4:	30 88 00 01 	ADD.Z      $1,R6
 20016c8:	15 cd 00 05 	SB.Z       R2,$5(R4)
 20016cc:	38 8b ff ff 	ADD.Z      $-1,R7
 20016d0:	2c 04 c0 00 	CMP        R3,R5
 20016d4:	78 a8 00 04 	BNZ        @0x020016dc    // 20016dc <memset+0x1b8>
 20016d8:	78 80 00 80 	BRA        @0x0200175c    // 200175c <memset+0x238>
 20016dc:	a8 98 c7 a8 	SUB        R3,R5          | MOV        R5,R8
 20016e0:	40 83 ff fc 	ADD        $-4,R8
 20016e4:	41 40 00 02 	LSR        $2,R8
 20016e8:	c2 01 d7 c0 	ADD        $1,R8          | MOV        R8,R10
 20016ec:	51 80 00 02 	LSL        $2,R10
 20016f0:	c8 98 cb 03 	SUB        R3,R9          | CMP        $3,R9
 20016f4:	78 98 00 4c 	BC         @0x02001744    // 2001744 <memset+0x220>
 20016f8:	63 40 80 00 	MOV        R2,R12
 20016fc:	61 80 00 10 	LSL        $16,R12
 2001700:	4b 40 80 00 	MOV        R2,R9
 2001704:	49 80 00 18 	LSL        $24,R9
 2001708:	5b 40 80 00 	MOV        R2,R11
 200170c:	59 80 00 08 	LSL        $8,R11
 2001710:	48 c7 00 00 	OR         R12,R9
 2001714:	48 c6 c0 00 	OR         R11,R9
 2001718:	48 c4 80 00 	OR         R2,R9
 200171c:	a2 98 9e 00 	ADD        R3,R4          | CLR        R3
 2001720:	cd a0 9a 01 	SW         R9,(R4)        | ADD        $1,R3
 2001724:	a2 04 9b c0 	ADD        $4,R4          | CMP        R8,R3
 2001728:	78 9b ff f4 	BC         @0x02001720    // 2001720 <memset+0x1fc>
 200172c:	78 80 00 08 	BRA        @0x02001738    // 2001738 <memset+0x214>
 2001730:	15 c5 80 02 	SB         R2,$2(R6)
 2001734:	78 80 00 24 	BRA        @0x0200175c    // 200175c <memset+0x238>
 2001738:	b2 d0 b8 d0 	ADD        R10,R6         | SUB        R10,R7
 200173c:	2c 06 80 00 	CMP        R10,R5
 2001740:	78 88 00 18 	BZ         @0x0200175c    // 200175c <memset+0x238>
 2001744:	15 c5 80 00 	SB         R2,(R6)
 2001748:	3c 00 00 00 	CMP        $0,R7
 200174c:	78 88 00 0c 	BZ         @0x0200175c    // 200175c <memset+0x238>
 2001750:	15 c5 80 01 	SB         R2,$1(R6)
 2001754:	3c 00 00 01 	CMP        $1,R7
 2001758:	78 ab ff d4 	BNZ        @0x02001730    // 2001730 <memset+0x20c>
 200175c:	ac 00 b4 04 	LW         (SP),R5        | LW         4(SP),R6
 2001760:	bc 08 c4 0c 	LW         8(SP),R7       | LW         12(SP),R8
 2001764:	cc 10 d4 14 	LW         16(SP),R9      | LW         20(SP),R10
 2001768:	dc 18 e4 1c 	LW         24(SP),R11     | LW         28(SP),R12
 200176c:	ea 20 ff 80 	ADD        $32,SP         | RTN

02001770 <__malloc_lock>:
 2001770:	7b 40 00 00 	RTN

02001774 <__malloc_unlock>:
 2001774:	7b 40 00 00 	RTN

02001778 <_printf_r>:
 2001778:	e8 04 85 00 	SUB        $4,SP          | SW         R0,(SP)
 200177c:	23 43 40 08 	MOV        $8+SP,R4
 2001780:	1c 87 40 04 	LW         4(SP),R3
 2001784:	14 84 40 08 	LW         8(R1),R2
 2001788:	87 fa fc f8 	JSR        0x02001a30     // 2001a30 <_vfprintf_r>
 200178c:	02 00 1a 30 
 2001790:	84 00 ea 04 	LW         (SP),R0        | ADD        $4,SP
 2001794:	7b 40 00 00 	RTN

02001798 <printf>:
 2001798:	e8 04 85 00 	SUB        $4,SP          | SW         R0,(SP)
 200179c:	0a 03 00 40 	LDI        0x0200e78c,R1  // 200e78c <_impure_ptr>
 20017a0:	0a 40 e7 8c 
 20017a4:	0c 84 40 00 	LW         (R1),R1
 20017a8:	23 43 40 08 	MOV        $8+SP,R4
 20017ac:	1c 87 40 04 	LW         4(SP),R3
 20017b0:	14 84 40 08 	LW         8(R1),R2
 20017b4:	87 fa fc f8 	JSR        0x02001a30     // 2001a30 <_vfprintf_r>
 20017b8:	02 00 1a 30 
 20017bc:	84 00 ea 04 	LW         (SP),R0        | ADD        $4,SP
 20017c0:	7b 40 00 00 	RTN

020017c4 <_puts_r>:
 20017c4:	e8 28 85 1c 	SUB        $40,SP         | SW         R0,$28(SP)
 20017c8:	ad 20 b5 24 	SW         R5,$32(SP)     | SW         R6,$36(SP)
 20017cc:	b7 88 af 90 	MOV        R1,R6          | MOV        R2,R5
 20017d0:	0b 40 80 00 	MOV        R2,R1
 20017d4:	87 fa fc f8 	JSR        0x0200191c     // 200191c <strlen>
 20017d8:	02 00 19 1c 
 20017dc:	ad 0c 8d 10 	SW         R5,$12(SP)     | SW         R1,$16(SP)
 20017e0:	02 03 00 40 	LDI        0x0200e3a8,R0  // 200e3a8 <_global_impure_ptr+0x4>
 20017e4:	02 40 e3 a8 
 20017e8:	85 14 86 01 	SW         R0,$20(SP)     | LDI        $1,R0
 20017ec:	85 18 8a 80 	SW         R0,$24(SP)     | ADD        R0,R1
 20017f0:	8d 08 8f e8 	SW         R1,$8(SP)      | MOV        SP,R1
 20017f4:	8a 0c 8d 00 	ADD        $12,R1         | SW         R1,(SP)
 20017f8:	86 02 85 04 	LDI        $2,R0          | SW         R0,$4(SP)
 20017fc:	2c 85 80 08 	LW         8(R6),R5
 2001800:	0c 85 80 38 	LW         56(R6),R1
 2001804:	0c 00 00 00 	CMP        $0,R1
 2001808:	78 a8 00 0c 	BNZ        @0x02001818    // 2001818 <_puts_r+0x54>
 200180c:	0b 41 80 00 	MOV        R6,R1
 2001810:	87 fa fc f8 	JSR        0x0200622c     // 200622c <__sinit>
 2001814:	02 00 62 2c 
 2001818:	0d 05 40 0c 	LH         12(R5),R1
 200181c:	13 40 40 00 	MOV        R1,R2
 2001820:	10 40 20 00 	AND        $8192,R2
 2001824:	78 a8 00 18 	BNZ        @0x02001840    // 2001840 <_puts_r+0x7c>
 2001828:	14 85 40 68 	LW         104(R5),R2
 200182c:	08 c0 20 00 	OR         $8192,R1
 2001830:	0d 45 40 0c 	SH         R1,$12(R5)
 2001834:	0b 40 80 00 	MOV        R2,R1
 2001838:	08 43 df ff 	AND        $-8193,R1
 200183c:	0c c5 40 68 	SW         R1,$104(R5)
 2001840:	9f e8 97 a8 	MOV        SP,R3          | MOV        R5,R2
 2001844:	0b 41 80 00 	MOV        R6,R1
 2001848:	87 fa fc f8 	JSR        0x02006908     // 2006908 <__sfvwrite_r>
 200184c:	02 00 69 08 
 2001850:	0c 00 00 00 	CMP        $0,R1
 2001854:	0a 08 00 00 	LDI.Z      0x0000000a,R1  // a <_rom+0xa>
 2001858:	0a 48 00 0a 
 200185c:	0a 2b ff ff 	BREV.NZ    $-1,R1
 2001860:	84 1c ac 20 	LW         28(SP),R0      | LW         32(SP),R5
 2001864:	b4 24 ea 28 	LW         36(SP),R6      | ADD        $40,SP
 2001868:	7b 40 00 00 	RTN

0200186c <puts>:
 200186c:	e8 28 85 1c 	SUB        $40,SP         | SW         R0,$28(SP)
 2001870:	ad 20 b5 24 	SW         R5,$32(SP)     | SW         R6,$36(SP)
 2001874:	2b 40 40 00 	MOV        R1,R5
 2001878:	12 03 00 40 	LDI        0x0200e78c,R2  // 200e78c <_impure_ptr>
 200187c:	12 40 e7 8c 
 2001880:	34 84 80 00 	LW         (R2),R6
 2001884:	87 fa fc f8 	JSR        0x0200191c     // 200191c <strlen>
 2001888:	02 00 19 1c 
 200188c:	ad 0c 8d 10 	SW         R5,$12(SP)     | SW         R1,$16(SP)
 2001890:	02 03 00 40 	LDI        0x0200e3a8,R0  // 200e3a8 <_global_impure_ptr+0x4>
 2001894:	02 40 e3 a8 
 2001898:	85 14 86 01 	SW         R0,$20(SP)     | LDI        $1,R0
 200189c:	85 18 8a 80 	SW         R0,$24(SP)     | ADD        R0,R1
 20018a0:	8d 08 8f e8 	SW         R1,$8(SP)      | MOV        SP,R1
 20018a4:	8a 0c 8d 00 	ADD        $12,R1         | SW         R1,(SP)
 20018a8:	86 02 85 04 	LDI        $2,R0          | SW         R0,$4(SP)
 20018ac:	2c 85 80 08 	LW         8(R6),R5
 20018b0:	0c 85 80 38 	LW         56(R6),R1
 20018b4:	0c 00 00 00 	CMP        $0,R1
 20018b8:	78 a8 00 0c 	BNZ        @0x020018c8    // 20018c8 <puts+0x5c>
 20018bc:	0b 41 80 00 	MOV        R6,R1
 20018c0:	87 fa fc f8 	JSR        0x0200622c     // 200622c <__sinit>
 20018c4:	02 00 62 2c 
 20018c8:	0d 05 40 0c 	LH         12(R5),R1
 20018cc:	13 40 40 00 	MOV        R1,R2
 20018d0:	10 40 20 00 	AND        $8192,R2
 20018d4:	78 a8 00 18 	BNZ        @0x020018f0    // 20018f0 <puts+0x84>
 20018d8:	14 85 40 68 	LW         104(R5),R2
 20018dc:	08 c0 20 00 	OR         $8192,R1
 20018e0:	0d 45 40 0c 	SH         R1,$12(R5)
 20018e4:	0b 40 80 00 	MOV        R2,R1
 20018e8:	08 43 df ff 	AND        $-8193,R1
 20018ec:	0c c5 40 68 	SW         R1,$104(R5)
 20018f0:	9f e8 97 a8 	MOV        SP,R3          | MOV        R5,R2
 20018f4:	0b 41 80 00 	MOV        R6,R1
 20018f8:	87 fa fc f8 	JSR        0x02006908     // 2006908 <__sfvwrite_r>
 20018fc:	02 00 69 08 
 2001900:	0c 00 00 00 	CMP        $0,R1
 2001904:	0a 08 00 00 	LDI.Z      0x0000000a,R1  // a <_rom+0xa>
 2001908:	0a 48 00 0a 
 200190c:	0a 2b ff ff 	BREV.NZ    $-1,R1
 2001910:	84 1c ac 20 	LW         28(SP),R0      | LW         32(SP),R5
 2001914:	b4 24 ea 28 	LW         36(SP),R6      | ADD        $40,SP
 2001918:	7b 40 00 00 	RTN

0200191c <strlen>:
 200191c:	e8 18 ad 00 	SUB        $24,SP         | SW         R5,(SP)
 2001920:	b5 04 bd 08 	SW         R6,$4(SP)      | SW         R7,$8(SP)
 2001924:	c5 0c cd 10 	SW         R8,$12(SP)     | SW         R9,$16(SP)
 2001928:	d5 14 97 88 	SW         R10,$20(SP)    | MOV        R1,R2
 200192c:	10 40 00 07 	AND        $7,R2
 2001930:	78 88 00 44 	BZ         @0x02001978    // 2001978 <strlen+0x5c>
 2001934:	15 84 40 00 	LB         (R1),R2
 2001938:	14 00 00 00 	CMP        $0,R2
 200193c:	78 88 00 1c 	BZ         @0x0200195c    // 200195c <strlen+0x40>
 2001940:	13 40 40 00 	MOV        R1,R2
 2001944:	78 80 00 1c 	BRA        @0x02001964    // 2001964 <strlen+0x48>
 2001948:	1d 84 80 00 	LB         (R2),R3
 200194c:	1c 00 00 00 	CMP        $0,R3
 2001950:	78 a8 00 10 	BNZ        @0x02001964    // 2001964 <strlen+0x48>
 2001954:	90 88 8f 90 	SUB        R1,R2          | MOV        R2,R1
 2001958:	78 80 00 c4 	BRA        @0x02001a20    // 2001a20 <strlen+0x104>
 200195c:	0b 40 80 00 	MOV        R2,R1
 2001960:	78 80 00 bc 	BRA        @0x02001a20    // 2001a20 <strlen+0x104>
 2001964:	92 01 9f 90 	ADD        $1,R2          | MOV        R2,R3
 2001968:	18 40 00 07 	AND        $7,R3
 200196c:	78 ab ff d8 	BNZ        @0x02001948    // 2001948 <strlen+0x2c>
 2001970:	53 40 80 00 	MOV        R2,R10
 2001974:	78 80 00 04 	BRA        @0x0200197c    // 200197c <strlen+0x60>
 2001978:	53 40 40 00 	MOV        R1,R10
 200197c:	24 86 80 00 	LW         (R10),R4
 2001980:	2c 86 80 04 	LW         4(R10),R5
 2001984:	42 01 7f 7f 	LDI        0xfefefefe,R8  // fefefefe <_top_of_stack+0xfbfefefe>
 2001988:	42 40 fe fe 
 200198c:	cf c1 97 a0 	MOV        $1+R8,R9       | MOV        R4,R2
 2001990:	9f a8 9a c8 	MOV        R5,R3          | ADD        R9,R3
 2001994:	10 98 00 01 	ADD.C      $1,R2
 2001998:	10 86 00 00 	ADD        R8,R2
 200199c:	29 03 ff ff 	XOR        $-1,R5
 20019a0:	21 03 ff ff 	XOR        $-1,R4
 20019a4:	99 a8 91 a0 	AND        R5,R3          | AND        R4,R2
 20019a8:	32 01 01 01 	LDI        0x80808080,R6  // 80808080 <_top_of_stack+0x7d808080>
 20019ac:	32 40 80 80 
 20019b0:	bf b0 99 b8 	MOV        R6,R7          | AND        R7,R3
 20019b4:	91 b0 93 00 	AND        R6,R2          | CMP        $0,R2
 20019b8:	1c 08 00 00 	CMP.Z      $0,R3
 20019bc:	78 a8 00 3c 	BNZ        @0x020019fc    // 20019fc <strlen+0xe0>
 20019c0:	d2 08 94 d0 	ADD        $8,R10         | LW         (R10),R2
 20019c4:	1c 86 80 04 	LW         4(R10),R3
 20019c8:	a7 90 af 98 	MOV        R2,R4          | MOV        R3,R5
 20019cc:	28 86 40 00 	ADD        R9,R5
 20019d0:	20 98 00 01 	ADD.C      $1,R4
 20019d4:	20 86 00 00 	ADD        R8,R4
 20019d8:	19 03 ff ff 	XOR        $-1,R3
 20019dc:	11 03 ff ff 	XOR        $-1,R2
 20019e0:	99 a8 91 a0 	AND        R5,R3          | AND        R4,R2
 20019e4:	99 b8 91 b0 	AND        R7,R3          | AND        R6,R2
 20019e8:	14 00 00 00 	CMP        $0,R2
 20019ec:	1c 08 00 00 	CMP.Z      $0,R3
 20019f0:	78 8b ff cc 	BZ         @0x020019c0    // 20019c0 <strlen+0xa4>
 20019f4:	13 42 80 00 	MOV        R10,R2
 20019f8:	78 80 00 04 	BRA        @0x02001a00    // 2001a00 <strlen+0xe4>
 20019fc:	13 42 80 00 	MOV        R10,R2
 2001a00:	1d 86 80 00 	LB         (R10),R3
 2001a04:	1c 00 00 00 	CMP        $0,R3
 2001a08:	78 88 00 10 	BZ         @0x02001a1c    // 2001a1c <strlen+0x100>
 2001a0c:	10 80 00 01 	ADD        $1,R2
 2001a10:	1d 84 80 00 	LB         (R2),R3
 2001a14:	1c 00 00 00 	CMP        $0,R3
 2001a18:	78 ab ff f0 	BNZ        @0x02001a0c    // 2001a0c <strlen+0xf0>
 2001a1c:	90 88 8f 90 	SUB        R1,R2          | MOV        R2,R1
 2001a20:	ac 00 b4 04 	LW         (SP),R5        | LW         4(SP),R6
 2001a24:	bc 08 c4 0c 	LW         8(SP),R7       | LW         12(SP),R8
 2001a28:	cc 10 d4 14 	LW         16(SP),R9      | LW         20(SP),R10
 2001a2c:	ea 18 ff 80 	ADD        $24,SP         | RTN

02001a30 <_vfprintf_r>:
 2001a30:	68 00 01 24 	SUB        $292,SP
 2001a34:	04 c7 41 00 	SW         R0,$256(SP)
 2001a38:	2c c7 41 04 	SW         R5,$260(SP)
 2001a3c:	34 c7 41 08 	SW         R6,$264(SP)
 2001a40:	3c c7 41 0c 	SW         R7,$268(SP)
 2001a44:	44 c7 41 10 	SW         R8,$272(SP)
 2001a48:	4c c7 41 14 	SW         R9,$276(SP)
 2001a4c:	54 c7 41 18 	SW         R10,$280(SP)
 2001a50:	5c c7 41 1c 	SW         R11,$284(SP)
 2001a54:	64 c7 41 20 	SW         R12,$288(SP)
 2001a58:	cf 88 e7 90 	MOV        R1,R9          | MOV        R2,R12
 2001a5c:	d7 98 a5 28 	MOV        R3,R10         | SW         R4,$40(SP)
 2001a60:	87 fa fc f8 	JSR        0x02006eb4     // 2006eb4 <_localeconv_r>
 2001a64:	02 00 6e b4 
 2001a68:	0c 84 40 00 	LW         (R1),R1
 2001a6c:	0c c7 40 50 	SW         R1,$80(SP)
 2001a70:	87 fa fc f8 	JSR        0x0200191c     // 200191c <strlen>
 2001a74:	02 00 19 1c 
 2001a78:	0c c7 40 5c 	SW         R1,$92(SP)
 2001a7c:	4c 00 00 00 	CMP        $0,R9
 2001a80:	78 88 00 18 	BZ         @0x02001a9c    // 2001a9c <_vfprintf_r+0x6c>
 2001a84:	0c 86 40 38 	LW         56(R9),R1
 2001a88:	0c 00 00 00 	CMP        $0,R1
 2001a8c:	78 a8 00 0c 	BNZ        @0x02001a9c    // 2001a9c <_vfprintf_r+0x6c>
 2001a90:	0b 42 40 00 	MOV        R9,R1
 2001a94:	87 fa fc f8 	JSR        0x0200622c     // 200622c <__sinit>
 2001a98:	02 00 62 2c 
 2001a9c:	15 07 00 0c 	LH         12(R12),R2
 2001aa0:	0b 40 80 00 	MOV        R2,R1
 2001aa4:	08 40 ff ff 	AND        $65535,R1
 2001aa8:	1b 40 40 00 	MOV        R1,R3
 2001aac:	18 40 20 00 	AND        $8192,R3
 2001ab0:	78 a8 00 20 	BNZ        @0x02001ad4    // 2001ad4 <_vfprintf_r+0xa4>
 2001ab4:	1c 87 00 68 	LW         104(R12),R3
 2001ab8:	0b 40 80 00 	MOV        R2,R1
 2001abc:	08 c0 20 00 	OR         $8192,R1
 2001ac0:	0d 47 00 0c 	SH         R1,$12(R12)
 2001ac4:	13 40 c0 00 	MOV        R3,R2
 2001ac8:	10 43 df ff 	AND        $-8193,R2
 2001acc:	14 c7 00 68 	SW         R2,$104(R12)
 2001ad0:	08 40 ff ff 	AND        $65535,R1
 2001ad4:	97 88 91 08 	MOV        R1,R2          | AND        $8,R2
 2001ad8:	78 88 00 0c 	BZ         @0x02001ae8    // 2001ae8 <_vfprintf_r+0xb8>
 2001adc:	14 87 00 10 	LW         16(R12),R2
 2001ae0:	14 00 00 00 	CMP        $0,R2
 2001ae4:	78 a8 00 18 	BNZ        @0x02001b00    // 2001b00 <_vfprintf_r+0xd0>
 2001ae8:	97 e0 8f c8 	MOV        R12,R2         | MOV        R9,R1
 2001aec:	87 fa fc f8 	JSR        0x02003b98     // 2003b98 <__swsetup_r>
 2001af0:	02 00 3b 98 
 2001af4:	0c 00 00 00 	CMP        $0,R1
 2001af8:	78 a8 1e 44 	BNZ        @0x02003940    // 2003940 <_vfprintf_r+0x1f10>
 2001afc:	0d 07 00 0c 	LH         12(R12),R1
 2001b00:	89 1a 8b 0a 	AND        $26,R1         | CMP        $10,R1
 2001b04:	78 a8 00 2c 	BNZ        @0x02001b34    // 2001b34 <_vfprintf_r+0x104>
 2001b08:	0d 07 00 0e 	LH         14(R12),R1
 2001b0c:	09 80 00 10 	LSL        $16,R1
 2001b10:	09 c0 00 10 	ASR        $16,R1
 2001b14:	0c 00 00 00 	CMP        $0,R1
 2001b18:	78 90 00 18 	BLT        @0x02001b34    // 2001b34 <_vfprintf_r+0x104>
 2001b1c:	a4 28 9f d0 	LW         40(SP),R4      | MOV        R10,R3
 2001b20:	97 e0 8f c8 	MOV        R12,R2         | MOV        R9,R1
 2001b24:	87 fa fc f8 	JSR        0x02003ae4     // 2003ae4 <__sbprintf>
 2001b28:	02 00 3a e4 
 2001b2c:	0c c7 40 30 	SW         R1,$48(SP)
 2001b30:	78 80 1f 60 	BRA        @0x02003a94    // 2003a94 <_vfprintf_r+0x2064>
 2001b34:	3b 43 40 00 	MOV        SP,R7
 2001b38:	38 80 00 c0 	ADD        $192,R7
 2001b3c:	3c c7 40 18 	SW         R7,$24(SP)
 2001b40:	3c c7 40 8c 	SW         R7,$140(SP)
 2001b44:	0e 00 00 00 	CLR        R1
 2001b48:	0c c7 40 94 	SW         R1,$148(SP)
 2001b4c:	0c c7 40 90 	SW         R1,$144(SP)
 2001b50:	0c c7 40 34 	SW         R1,$52(SP)
 2001b54:	0c c7 40 58 	SW         R1,$88(SP)
 2001b58:	0c c7 40 54 	SW         R1,$84(SP)
 2001b5c:	5b 41 c0 00 	MOV        R7,R11
 2001b60:	0c c7 40 64 	SW         R1,$100(SP)
 2001b64:	0c c7 40 60 	SW         R1,$96(SP)
 2001b68:	0c c7 40 30 	SW         R1,$48(SP)
 2001b6c:	3b 41 df cc 	MOV        $-52+R7,R7
 2001b70:	3c c7 40 14 	SW         R7,$20(SP)
 2001b74:	3b 41 df f1 	MOV        $-15+R7,R7
 2001b78:	3c c7 40 10 	SW         R7,$16(SP)
 2001b7c:	3b 41 c0 0e 	MOV        $14+R7,R7
 2001b80:	bd 0c c7 e0 	SW         R7,$12(SP)     | MOV        R12,R8
 2001b84:	63 42 40 00 	MOV        R9,R12
 2001b88:	15 86 80 00 	LB         (R10),R2
 2001b8c:	93 00 8e 00 	CMP        $0,R2          | CLR        R1
 2001b90:	0a 68 00 01 	LDILO.NZ   $1,R1
 2001b94:	93 25 9e 00 	CMP        $37,R2         | CLR        R3
 2001b98:	1a 68 00 01 	LDILO.NZ   $1,R3
 2001b9c:	08 44 c0 00 	AND        R3,R1
 2001ba0:	78 88 00 80 	BZ         @0x02001c24    // 2001c24 <_vfprintf_r+0x1f4>
 2001ba4:	2b 42 80 00 	MOV        R10,R5
 2001ba8:	28 80 00 01 	ADD        $1,R5
 2001bac:	15 85 40 00 	LB         (R5),R2
 2001bb0:	93 00 8e 00 	CMP        $0,R2          | CLR        R1
 2001bb4:	0a 68 00 01 	LDILO.NZ   $1,R1
 2001bb8:	93 25 9e 00 	CMP        $37,R2         | CLR        R3
 2001bbc:	1a 68 00 01 	LDILO.NZ   $1,R3
 2001bc0:	08 44 c0 00 	AND        R3,R1
 2001bc4:	78 ab ff e0 	BNZ        @0x02001ba8    // 2001ba8 <_vfprintf_r+0x178>
 2001bc8:	b7 a8 b0 d0 	MOV        R5,R6          | SUB        R10,R6
 2001bcc:	78 88 00 58 	BZ         @0x02001c28    // 2001c28 <_vfprintf_r+0x1f8>
 2001bd0:	54 c6 c0 00 	SW         R10,(R11)
 2001bd4:	34 c6 c0 04 	SW         R6,$4(R11)
 2001bd8:	0c 87 40 94 	LW         148(SP),R1
 2001bdc:	08 85 80 00 	ADD        R6,R1
 2001be0:	0c c7 40 94 	SW         R1,$148(SP)
 2001be4:	0c 87 40 90 	LW         144(SP),R1
 2001be8:	08 80 00 01 	ADD        $1,R1
 2001bec:	0c c7 40 90 	SW         R1,$144(SP)
 2001bf0:	da 08 8b 08 	ADD        $8,R11         | CMP        $8,R1
 2001bf4:	78 90 00 1c 	BLT        @0x02001c14    // 2001c14 <_vfprintf_r+0x1e4>
 2001bf8:	1b 43 40 8c 	MOV        $140+SP,R3
 2001bfc:	97 c0 8f e0 	MOV        R8,R2          | MOV        R12,R1
 2001c00:	87 fa fc f8 	JSR        0x02009b94     // 2009b94 <__sprint_r>
 2001c04:	02 00 9b 94 
 2001c08:	0c 00 00 00 	CMP        $0,R1
 2001c0c:	78 a8 1c 10 	BNZ        @0x02003820    // 2003820 <_vfprintf_r+0x1df0>
 2001c10:	5b 43 40 c0 	MOV        $192+SP,R11
 2001c14:	bc 30 ba b0 	LW         48(SP),R7      | ADD        R6,R7
 2001c18:	3c c7 40 30 	SW         R7,$48(SP)
 2001c1c:	15 85 40 00 	LB         (R5),R2
 2001c20:	78 80 00 04 	BRA        @0x02001c28    // 2001c28 <_vfprintf_r+0x1f8>
 2001c24:	2b 42 80 00 	MOV        R10,R5
 2001c28:	14 00 00 00 	CMP        $0,R2
 2001c2c:	78 88 1b c8 	BZ         @0x020037f8    // 20037f8 <_vfprintf_r+0x1dc8>
 2001c30:	97 a8 92 01 	MOV        R5,R2          | ADD        $1,R2
 2001c34:	0e 00 00 00 	CLR        R1
 2001c38:	0d c7 40 71 	SB         R1,$113(SP)
 2001c3c:	8e 00 a6 00 	CLR        R1             | CLR        R4
 2001c40:	b6 ff 8d 38 	LDI        $-1,R6         | SW         R1,$56(SP)
 2001c44:	ce 00 ae 00 	CLR        R9             | CLR        R5
 2001c48:	1e 00 00 01 	LDI        $1,R3
 2001c4c:	78 80 00 18 	BRA        @0x02001c68    // 2001c68 <_vfprintf_r+0x238>
 2001c50:	8f 98 a6 2b 	MOV        R3,R1          | LDI        $43,R4
 2001c54:	78 80 00 0c 	BRA        @0x02001c64    // 2001c64 <_vfprintf_r+0x234>
 2001c58:	8f 98 a6 20 	MOV        R3,R1          | LDI        $32,R4
 2001c5c:	78 80 00 04 	BRA        @0x02001c64    // 2001c64 <_vfprintf_r+0x234>
 2001c60:	14 c7 40 28 	SW         R2,$40(SP)
 2001c64:	13 42 80 00 	MOV        R10,R2
 2001c68:	d7 90 d2 01 	MOV        R2,R10         | ADD        $1,R10
 2001c6c:	3d 84 80 00 	LB         (R2),R7
 2001c70:	3c 00 00 55 	CMP        $85,R7
 2001c74:	78 88 0a 80 	BZ         @0x020026f8    // 20026f8 <_vfprintf_r+0xcc8>
 2001c78:	3c 00 00 56 	CMP        $86,R7
 2001c7c:	78 b0 00 90 	BGE        @0x02001d10    // 2001d10 <_vfprintf_r+0x2e0>
 2001c80:	3c 00 00 30 	CMP        $48,R7
 2001c84:	78 88 01 fc 	BZ         @0x02001e84    // 2001e84 <_vfprintf_r+0x454>
 2001c88:	3c 00 00 31 	CMP        $49,R7
 2001c8c:	78 b0 00 40 	BGE        @0x02001cd0    // 2001cd0 <_vfprintf_r+0x2a0>
 2001c90:	3c 00 00 2a 	CMP        $42,R7
 2001c94:	78 88 01 4c 	BZ         @0x02001de4    // 2001de4 <_vfprintf_r+0x3b4>
 2001c98:	3c 00 00 2b 	CMP        $43,R7
 2001c9c:	78 b0 00 14 	BGE        @0x02001cb4    // 2001cb4 <_vfprintf_r+0x284>
 2001ca0:	3c 00 00 20 	CMP        $32,R7
 2001ca4:	78 88 01 28 	BZ         @0x02001dd0    // 2001dd0 <_vfprintf_r+0x3a0>
 2001ca8:	3c 00 00 23 	CMP        $35,R7
 2001cac:	78 88 01 2c 	BZ         @0x02001ddc    // 2001ddc <_vfprintf_r+0x3ac>
 2001cb0:	78 80 0d fc 	BRA        @0x02002ab0    // 2002ab0 <_vfprintf_r+0x1080>
 2001cb4:	3c 00 00 2d 	CMP        $45,R7
 2001cb8:	78 88 01 48 	BZ         @0x02001e04    // 2001e04 <_vfprintf_r+0x3d4>
 2001cbc:	3c 00 00 2e 	CMP        $46,R7
 2001cc0:	78 88 01 48 	BZ         @0x02001e0c    // 2001e0c <_vfprintf_r+0x3dc>
 2001cc4:	3c 00 00 2b 	CMP        $43,R7
 2001cc8:	78 a8 0d e4 	BNZ        @0x02002ab0    // 2002ab0 <_vfprintf_r+0x1080>
 2001ccc:	78 83 ff 80 	BRA        @0x02001c50    // 2001c50 <_vfprintf_r+0x220>
 2001cd0:	3c 00 00 45 	CMP        $69,R7
 2001cd4:	78 88 03 38 	BZ         @0x02002010    // 2002010 <_vfprintf_r+0x5e0>
 2001cd8:	3c 00 00 46 	CMP        $70,R7
 2001cdc:	78 b0 00 14 	BGE        @0x02001cf4    // 2001cf4 <_vfprintf_r+0x2c4>
 2001ce0:	3c 00 00 3a 	CMP        $58,R7
 2001ce4:	78 90 01 a4 	BLT        @0x02001e8c    // 2001e8c <_vfprintf_r+0x45c>
 2001ce8:	3c 00 00 44 	CMP        $68,R7
 2001cec:	78 88 02 2c 	BZ         @0x02001f1c    // 2001f1c <_vfprintf_r+0x4ec>
 2001cf0:	78 80 0d bc 	BRA        @0x02002ab0    // 2002ab0 <_vfprintf_r+0x1080>
 2001cf4:	3c 00 00 4c 	CMP        $76,R7
 2001cf8:	78 88 01 c8 	BZ         @0x02001ec4    // 2001ec4 <_vfprintf_r+0x494>
 2001cfc:	3c 00 00 4f 	CMP        $79,R7
 2001d00:	78 88 08 68 	BZ         @0x0200256c    // 200256c <_vfprintf_r+0xb3c>
 2001d04:	3c 00 00 47 	CMP        $71,R7
 2001d08:	78 a8 0d a4 	BNZ        @0x02002ab0    // 2002ab0 <_vfprintf_r+0x1080>
 2001d0c:	78 80 03 00 	BRA        @0x02002010    // 2002010 <_vfprintf_r+0x5e0>
 2001d10:	3c 00 00 6c 	CMP        $108,R7
 2001d14:	78 88 01 bc 	BZ         @0x02001ed4    // 2001ed4 <_vfprintf_r+0x4a4>
 2001d18:	3c 00 00 6d 	CMP        $109,R7
 2001d1c:	78 b0 00 3c 	BGE        @0x02001d5c    // 2001d5c <_vfprintf_r+0x32c>
 2001d20:	3c 00 00 68 	CMP        $104,R7
 2001d24:	78 b0 00 24 	BGE        @0x02001d4c    // 2001d4c <_vfprintf_r+0x31c>
 2001d28:	3c 00 00 65 	CMP        $101,R7
 2001d2c:	78 b0 02 e0 	BGE        @0x02002010    // 2002010 <_vfprintf_r+0x5e0>
 2001d30:	3c 00 00 63 	CMP        $99,R7
 2001d34:	78 88 01 ac 	BZ         @0x02001ee4    // 2001ee4 <_vfprintf_r+0x4b4>
 2001d38:	3c 00 00 64 	CMP        $100,R7
 2001d3c:	78 b0 00 64 	BGE        @0x02001da4    // 2001da4 <_vfprintf_r+0x374>
 2001d40:	3c 00 00 58 	CMP        $88,R7
 2001d44:	78 88 00 6c 	BZ         @0x02001db4    // 2001db4 <_vfprintf_r+0x384>
 2001d48:	78 80 0d 64 	BRA        @0x02002ab0    // 2002ab0 <_vfprintf_r+0x1080>
 2001d4c:	78 88 01 7c 	BZ         @0x02001ecc    // 2001ecc <_vfprintf_r+0x49c>
 2001d50:	3c 00 00 69 	CMP        $105,R7
 2001d54:	78 88 00 4c 	BZ         @0x02001da4    // 2001da4 <_vfprintf_r+0x374>
 2001d58:	78 80 0d 54 	BRA        @0x02002ab0    // 2002ab0 <_vfprintf_r+0x1080>
 2001d5c:	3c 00 00 71 	CMP        $113,R7
 2001d60:	78 88 01 78 	BZ         @0x02001edc    // 2001edc <_vfprintf_r+0x4ac>
 2001d64:	3c 00 00 72 	CMP        $114,R7
 2001d68:	78 b0 00 1c 	BGE        @0x02001d88    // 2001d88 <_vfprintf_r+0x358>
 2001d6c:	3c 00 00 6f 	CMP        $111,R7
 2001d70:	78 88 07 fc 	BZ         @0x02002570    // 2002570 <_vfprintf_r+0xb40>
 2001d74:	3c 00 00 70 	CMP        $112,R7
 2001d78:	78 b0 08 60 	BGE        @0x020025dc    // 20025dc <_vfprintf_r+0xbac>
 2001d7c:	3c 00 00 6e 	CMP        $110,R7
 2001d80:	78 88 07 8c 	BZ         @0x02002510    // 2002510 <_vfprintf_r+0xae0>
 2001d84:	78 80 0d 28 	BRA        @0x02002ab0    // 2002ab0 <_vfprintf_r+0x1080>
 2001d88:	3c 00 00 75 	CMP        $117,R7
 2001d8c:	78 88 09 6c 	BZ         @0x020026fc    // 20026fc <_vfprintf_r+0xccc>
 2001d90:	3c 00 00 78 	CMP        $120,R7
 2001d94:	78 88 09 d0 	BZ         @0x02002768    // 2002768 <_vfprintf_r+0xd38>
 2001d98:	3c 00 00 73 	CMP        $115,R7
 2001d9c:	78 a8 0d 10 	BNZ        @0x02002ab0    // 2002ab0 <_vfprintf_r+0x1080>
 2001da0:	78 80 08 7c 	BRA        @0x02002620    // 2002620 <_vfprintf_r+0xbf0>
 2001da4:	0c 00 00 00 	CMP        $0,R1
 2001da8:	78 88 01 7c 	BZ         @0x02001f28    // 2001f28 <_vfprintf_r+0x4f8>
 2001dac:	25 c7 40 71 	SB         R4,$113(SP)
 2001db0:	78 80 01 74 	BRA        @0x02001f28    // 2001f28 <_vfprintf_r+0x4f8>
 2001db4:	0c 00 00 00 	CMP        $0,R1
 2001db8:	25 ef 40 71 	SB.NZ      R4,$113(SP)
 2001dbc:	1e 00 00 58 	LDI        $88,R3
 2001dc0:	12 03 00 40 	LDI        0x0200e3bc,R2  // 200e3bc <_global_impure_ptr+0x18>
 2001dc4:	12 40 e3 bc 
 2001dc8:	14 c7 40 64 	SW         R2,$100(SP)
 2001dcc:	78 80 09 b0 	BRA        @0x02002780    // 2002780 <_vfprintf_r+0xd50>
 2001dd0:	24 00 00 00 	CMP        $0,R4
 2001dd4:	78 8b fe 80 	BZ         @0x02001c58    // 2001c58 <_vfprintf_r+0x228>
 2001dd8:	78 83 fe 88 	BRA        @0x02001c64    // 2001c64 <_vfprintf_r+0x234>
 2001ddc:	48 c0 00 01 	OR         $1,R9
 2001de0:	78 83 fe 80 	BRA        @0x02001c64    // 2001c64 <_vfprintf_r+0x234>
 2001de4:	94 28 92 04 	LW         40(SP),R2      | ADD        $4,R2
 2001de8:	bc 28 bc b8 	LW         40(SP),R7      | LW         (R7),R7
 2001dec:	bd 38 bb 00 	SW         R7,$56(SP)     | CMP        $0,R7
 2001df0:	78 b3 fe 6c 	BGE        @0x02001c60    // 2001c60 <_vfprintf_r+0x230>
 2001df4:	3b 41 df ff 	MOV        $-1+R7,R7
 2001df8:	39 03 ff ff 	XOR        $-1,R7
 2001dfc:	bd 38 95 28 	SW         R7,$56(SP)     | SW         R2,$40(SP)
 2001e00:	78 80 00 00 	BRA        @0x02001e04    // 2001e04 <_vfprintf_r+0x3d4>
 2001e04:	48 c0 00 04 	OR         $4,R9
 2001e08:	78 83 fe 58 	BRA        @0x02001c64    // 2001c64 <_vfprintf_r+0x234>
 2001e0c:	b7 d0 b2 01 	MOV        R10,R6         | ADD        $1,R6
 2001e10:	3d 86 80 00 	LB         (R10),R7
 2001e14:	3c 00 00 2a 	CMP        $42,R7
 2001e18:	78 88 00 14 	BZ         @0x02001e30    // 2001e30 <_vfprintf_r+0x400>
 2001e1c:	97 b8 92 50 	MOV        R7,R2          | ADD        $-48,R2
 2001e20:	14 00 00 0a 	CMP        $10,R2
 2001e24:	78 98 00 28 	BC         @0x02001e50    // 2001e50 <_vfprintf_r+0x420>
 2001e28:	d7 b0 b7 a8 	MOV        R6,R10         | MOV        R5,R6
 2001e2c:	78 83 fe 40 	BRA        @0x02001c70    // 2001c70 <_vfprintf_r+0x240>
 2001e30:	97 b0 bc 28 	MOV        R6,R2          | LW         40(SP),R7
 2001e34:	b4 b8 be ff 	LW         (R7),R6        | LDI        $-1,R7
 2001e38:	34 05 c0 00 	CMP        R7,R6
 2001e3c:	33 51 c0 00 	MOV.LT     R7,R6
 2001e40:	3c 87 40 28 	LW         40(SP),R7
 2001e44:	3b 41 c0 04 	MOV        $4+R7,R7
 2001e48:	bd 28 d7 90 	SW         R7,$40(SP)     | MOV        R2,R10
 2001e4c:	78 83 fe 14 	BRA        @0x02001c64    // 2001c64 <_vfprintf_r+0x234>
 2001e50:	d7 b0 bf a8 	MOV        R6,R10         | MOV        R5,R7
 2001e54:	33 41 c0 00 	MOV        R7,R6
 2001e58:	31 80 00 02 	LSL        $2,R6
 2001e5c:	b2 b8 b2 b0 	ADD        R7,R6          | ADD        R6,R6
 2001e60:	bf b0 ba 90 	MOV        R6,R7          | ADD        R2,R7
 2001e64:	50 80 00 01 	ADD        $1,R10
 2001e68:	35 86 bf ff 	LB         -1(R10),R6
 2001e6c:	97 b0 92 50 	MOV        R6,R2          | ADD        $-48,R2
 2001e70:	14 00 00 0a 	CMP        $10,R2
 2001e74:	78 9b ff dc 	BC         @0x02001e54    // 2001e54 <_vfprintf_r+0x424>
 2001e78:	97 b8 bf b0 	MOV        R7,R2          | MOV        R6,R7
 2001e7c:	33 40 80 00 	MOV        R2,R6
 2001e80:	78 83 fd ec 	BRA        @0x02001c70    // 2001c70 <_vfprintf_r+0x240>
 2001e84:	48 c0 00 80 	OR         $128,R9
 2001e88:	78 83 fd d8 	BRA        @0x02001c64    // 2001c64 <_vfprintf_r+0x234>
 2001e8c:	96 00 95 38 	CLR        R2             | SW         R2,$56(SP)
 2001e90:	13 41 df d0 	MOV        $-48+R7,R2
 2001e94:	cd 1c ce 00 	SW         R9,$28(SP)     | CLR        R9
 2001e98:	3b 42 40 00 	MOV        R9,R7
 2001e9c:	39 80 00 02 	LSL        $2,R7
 2001ea0:	ba c8 ba b8 	ADD        R9,R7          | ADD        R7,R7
 2001ea4:	cf 90 ca b8 	MOV        R2,R9          | ADD        R7,R9
 2001ea8:	50 80 00 01 	ADD        $1,R10
 2001eac:	3d 86 bf ff 	LB         -1(R10),R7
 2001eb0:	97 b8 92 50 	MOV        R7,R2          | ADD        $-48,R2
 2001eb4:	14 00 00 0a 	CMP        $10,R2
 2001eb8:	78 9b ff dc 	BC         @0x02001e98    // 2001e98 <_vfprintf_r+0x468>
 2001ebc:	cd 38 cc 1c 	SW         R9,$56(SP)     | LW         28(SP),R9
 2001ec0:	78 83 fd ac 	BRA        @0x02001c70    // 2001c70 <_vfprintf_r+0x240>
 2001ec4:	48 c0 00 08 	OR         $8,R9
 2001ec8:	78 83 fd 98 	BRA        @0x02001c64    // 2001c64 <_vfprintf_r+0x234>
 2001ecc:	48 c0 00 40 	OR         $64,R9
 2001ed0:	78 83 fd 90 	BRA        @0x02001c64    // 2001c64 <_vfprintf_r+0x234>
 2001ed4:	48 c0 00 10 	OR         $16,R9
 2001ed8:	78 83 fd 88 	BRA        @0x02001c64    // 2001c64 <_vfprintf_r+0x234>
 2001edc:	48 c0 00 10 	OR         $16,R9
 2001ee0:	78 83 fd 80 	BRA        @0x02001c64    // 2001c64 <_vfprintf_r+0x234>
 2001ee4:	9c 28 8c 98 	LW         40(SP),R3      | LW         (R3),R1
 2001ee8:	0d c7 40 98 	SB         R1,$152(SP)
 2001eec:	26 00 00 00 	CLR        R4
 2001ef0:	25 c7 40 71 	SB         R4,$113(SP)
 2001ef4:	1b 40 c0 04 	MOV        $4+R3,R3
 2001ef8:	9d 28 cd 20 	SW         R3,$40(SP)     | SW         R9,$32(SP)
 2001efc:	ae 00 ad 2c 	CLR        R5             | SW         R5,$44(SP)
 2001f00:	ae 01 ad 1c 	LDI        $1,R5          | SW         R5,$28(SP)
 2001f04:	ad 24 b6 00 	SW         R5,$36(SP)     | CLR        R6
 2001f08:	34 c7 40 4c 	SW         R6,$76(SP)
 2001f0c:	2b 43 40 00 	MOV        SP,R5
 2001f10:	28 80 00 98 	ADD        $152,R5
 2001f14:	2c c7 40 48 	SW         R5,$72(SP)
 2001f18:	78 80 0b e4 	BRA        @0x02002b00    // 2002b00 <_vfprintf_r+0x10d0>
 2001f1c:	0c 00 00 00 	CMP        $0,R1
 2001f20:	25 ef 40 71 	SB.NZ      R4,$113(SP)
 2001f24:	48 c0 00 10 	OR         $16,R9
 2001f28:	8f c8 89 10 	MOV        R9,R1          | AND        $16,R1
 2001f2c:	78 88 00 28 	BZ         @0x02001f58    // 2001f58 <_vfprintf_r+0x528>
 2001f30:	94 28 8c 90 	LW         40(SP),R2      | LW         (R2),R1
 2001f34:	14 84 80 04 	LW         4(R2),R2
 2001f38:	0c c7 40 68 	SW         R1,$104(SP)
 2001f3c:	14 c7 40 6c 	SW         R2,$108(SP)
 2001f40:	0c c7 40 40 	SW         R1,$64(SP)
 2001f44:	14 c7 40 44 	SW         R2,$68(SP)
 2001f48:	1c 87 40 28 	LW         40(SP),R3
 2001f4c:	1b 40 c0 08 	MOV        $8+R3,R3
 2001f50:	1c c7 40 28 	SW         R3,$40(SP)
 2001f54:	78 80 00 70 	BRA        @0x02001fc8    // 2001fc8 <_vfprintf_r+0x598>
 2001f58:	0b 42 40 00 	MOV        R9,R1
 2001f5c:	08 40 00 40 	AND        $64,R1
 2001f60:	78 88 00 38 	BZ         @0x02001f9c    // 2001f9c <_vfprintf_r+0x56c>
 2001f64:	a4 28 8c a0 	LW         40(SP),R4      | LW         (R4),R1
 2001f68:	09 80 00 10 	LSL        $16,R1
 2001f6c:	09 c0 00 10 	ASR        $16,R1
 2001f70:	0c c7 40 44 	SW         R1,$68(SP)
 2001f74:	13 40 40 00 	MOV        R1,R2
 2001f78:	11 c0 00 1f 	ASR        $31,R2
 2001f7c:	14 c7 40 40 	SW         R2,$64(SP)
 2001f80:	0c c7 40 6c 	SW         R1,$108(SP)
 2001f84:	14 c7 40 68 	SW         R2,$104(SP)
 2001f88:	23 41 00 04 	MOV        $4+R4,R4
 2001f8c:	24 c7 40 28 	SW         R4,$40(SP)
 2001f90:	0c 87 40 68 	LW         104(SP),R1
 2001f94:	14 87 40 6c 	LW         108(SP),R2
 2001f98:	78 80 00 2c 	BRA        @0x02001fc8    // 2001fc8 <_vfprintf_r+0x598>
 2001f9c:	ac 28 8c a8 	LW         40(SP),R5      | LW         (R5),R1
 2001fa0:	0c c7 40 44 	SW         R1,$68(SP)
 2001fa4:	13 40 40 00 	MOV        R1,R2
 2001fa8:	11 c0 00 1f 	ASR        $31,R2
 2001fac:	14 c7 40 40 	SW         R2,$64(SP)
 2001fb0:	0c c7 40 6c 	SW         R1,$108(SP)
 2001fb4:	14 c7 40 68 	SW         R2,$104(SP)
 2001fb8:	2b 41 40 04 	MOV        $4+R5,R5
 2001fbc:	2c c7 40 28 	SW         R5,$40(SP)
 2001fc0:	0c 87 40 68 	LW         104(SP),R1
 2001fc4:	14 87 40 6c 	LW         108(SP),R2
 2001fc8:	0c 00 00 00 	CMP        $0,R1
 2001fcc:	78 90 00 0c 	BLT        @0x02001fdc    // 2001fdc <_vfprintf_r+0x5ac>
 2001fd0:	2d 87 40 71 	LB         113(SP),R5
 2001fd4:	ad 2c 96 01 	SW         R5,$44(SP)     | LDI        $1,R2
 2001fd8:	78 80 08 54 	BRA        @0x02002830    // 2002830 <_vfprintf_r+0xe00>
 2001fdc:	0c 87 40 40 	LW         64(SP),R1
 2001fe0:	14 87 40 44 	LW         68(SP),R2
 2001fe4:	11 03 ff ff 	XOR        $-1,R2
 2001fe8:	09 03 ff ff 	XOR        $-1,R1
 2001fec:	10 80 00 01 	ADD        $1,R2
 2001ff0:	08 98 00 01 	ADD.C      $1,R1
 2001ff4:	0c c7 40 40 	SW         R1,$64(SP)
 2001ff8:	14 c7 40 44 	SW         R2,$68(SP)
 2001ffc:	16 00 00 2d 	LDI        $45,R2
 2002000:	15 c7 40 71 	SB         R2,$113(SP)
 2002004:	ae 2d ad 2c 	LDI        $45,R5         | SW         R5,$44(SP)
 2002008:	16 00 00 01 	LDI        $1,R2
 200200c:	78 80 08 20 	BRA        @0x02002830    // 2002830 <_vfprintf_r+0xe00>
 2002010:	0c 00 00 00 	CMP        $0,R1
 2002014:	25 ef 40 71 	SB.NZ      R4,$113(SP)
 2002018:	8f c8 89 08 	MOV        R9,R1          | AND        $8,R1
 200201c:	78 88 00 24 	BZ         @0x02002044    // 2002044 <_vfprintf_r+0x614>
 2002020:	84 28 94 80 	LW         40(SP),R0      | LW         (R0),R2
 2002024:	0c 84 00 04 	LW         4(R0),R1
 2002028:	03 40 00 08 	MOV        $8+R0,R0
 200202c:	04 c7 40 28 	SW         R0,$40(SP)
 2002030:	14 c7 40 58 	SW         R2,$88(SP)
 2002034:	0c c7 40 54 	SW         R1,$84(SP)
 2002038:	2b 40 80 00 	MOV        R2,R5
 200203c:	14 87 40 54 	LW         84(SP),R2
 2002040:	78 80 00 20 	BRA        @0x02002064    // 2002064 <_vfprintf_r+0x634>
 2002044:	8c 28 8c 88 	LW         40(SP),R1      | LW         (R1),R1
 2002048:	0c c7 40 58 	SW         R1,$88(SP)
 200204c:	14 87 40 28 	LW         40(SP),R2
 2002050:	14 84 80 04 	LW         4(R2),R2
 2002054:	14 c7 40 54 	SW         R2,$84(SP)
 2002058:	1c 87 40 28 	LW         40(SP),R3
 200205c:	1b 40 c0 08 	MOV        $8+R3,R3
 2002060:	9d 28 af 88 	SW         R3,$40(SP)     | MOV        R1,R5
 2002064:	0a 03 ff fe 	BREV       $-2,R1
 2002068:	28 44 40 00 	AND        R1,R5
 200206c:	1a 03 f7 fe 	BREV       $-2050,R3
 2002070:	a6 ff 8f a8 	LDI        $-1,R4         | MOV        R5,R1
 2002074:	87 fa fc f8 	JSR        0x0200d8f0     // 200d8f0 <__unorddf2>
 2002078:	02 00 d8 f0 
 200207c:	8d 1c 8b 00 	SW         R1,$28(SP)     | CMP        $0,R1
 2002080:	78 a8 18 c4 	BNZ        @0x02003948    // 2003948 <_vfprintf_r+0x1f18>
 2002084:	1a 03 f7 fe 	BREV       $-2050,R3
 2002088:	a6 ff 8f a8 	LDI        $-1,R4         | MOV        R5,R1
 200208c:	14 87 40 54 	LW         84(SP),R2
 2002090:	87 fa fc f8 	JSR        0x0200d88c     // 200d88c <__ledf2>
 2002094:	02 00 d8 8c 
 2002098:	0c 00 00 01 	CMP        $1,R1
 200209c:	78 90 18 a8 	BLT        @0x02003948    // 2003948 <_vfprintf_r+0x1f18>
 20020a0:	78 80 18 c4 	BRA        @0x02003968    // 2003968 <_vfprintf_r+0x1f38>
 20020a4:	26 00 00 2d 	LDI        $45,R4
 20020a8:	25 c7 40 71 	SB         R4,$113(SP)
 20020ac:	ae 2d ad 2c 	LDI        $45,R5         | SW         R5,$44(SP)
 20020b0:	3c 00 00 48 	CMP        $72,R7
 20020b4:	2a 13 00 40 	LDI.LT     0x0200e3ac,R5  // 200e3ac <_global_impure_ptr+0x8>
 20020b8:	2a 50 e3 ac 
 20020bc:	2a 33 00 40 	LDI.GE     0x0200e3b0,R5  // 200e3b0 <_global_impure_ptr+0xc>
 20020c0:	2a 70 e3 b0 
 20020c4:	2c c7 40 48 	SW         R5,$72(SP)
 20020c8:	48 43 ff 7f 	AND        $-129,R9
 20020cc:	cd 20 ae 03 	SW         R9,$32(SP)     | LDI        $3,R5
 20020d0:	ad 1c ad 24 	SW         R5,$28(SP)     | SW         R5,$36(SP)
 20020d4:	36 00 00 00 	CLR        R6
 20020d8:	34 c7 40 4c 	SW         R6,$76(SP)
 20020dc:	2c 87 40 2c 	LW         44(SP),R5
 20020e0:	78 80 0a 0c 	BRA        @0x02002af0    // 2002af0 <_vfprintf_r+0x10c0>
 20020e4:	3c 00 00 48 	CMP        $72,R7
 20020e8:	2a 13 00 40 	LDI.LT     0x0200e3b4,R5  // 200e3b4 <_global_impure_ptr+0x10>
 20020ec:	2a 50 e3 b4 
 20020f0:	2a 33 00 40 	LDI.GE     0x0200e3b8,R5  // 200e3b8 <_global_impure_ptr+0x14>
 20020f4:	2a 70 e3 b8 
 20020f8:	2c c7 40 48 	SW         R5,$72(SP)
 20020fc:	48 43 ff 7f 	AND        $-129,R9
 2002100:	4c c7 40 20 	SW         R9,$32(SP)
 2002104:	2d 87 40 71 	LB         113(SP),R5
 2002108:	ad 2c ae 03 	SW         R5,$44(SP)     | LDI        $3,R5
 200210c:	ad 1c ad 24 	SW         R5,$28(SP)     | SW         R5,$36(SP)
 2002110:	36 00 00 00 	CLR        R6
 2002114:	34 c7 40 4c 	SW         R6,$76(SP)
 2002118:	2c 87 40 2c 	LW         44(SP),R5
 200211c:	78 80 09 d0 	BRA        @0x02002af0    // 2002af0 <_vfprintf_r+0x10c0>
 2002120:	34 03 ff ff 	CMP        $-1,R6
 2002124:	78 a8 00 0c 	BNZ        @0x02002134    // 2002134 <_vfprintf_r+0x704>
 2002128:	87 b8 81 5f 	MOV        R7,R0          | AND        $-33,R0
 200212c:	85 1c b6 06 	SW         R0,$28(SP)     | LDI        $6,R6
 2002130:	78 80 00 30 	BRA        @0x02002164    // 2002164 <_vfprintf_r+0x734>
 2002134:	97 b8 91 5f 	MOV        R7,R2          | AND        $-33,R2
 2002138:	14 c7 40 1c 	SW         R2,$28(SP)
 200213c:	14 00 00 47 	CMP        $71,R2
 2002140:	13 40 40 00 	MOV        R1,R2
 2002144:	12 08 00 00 	LDI.Z      0x00000001,R2  // 1 <_rom+0x1>
 2002148:	12 48 00 01 
 200214c:	b3 00 9f 88 	CMP        $0,R6          | MOV        R1,R3
 2002150:	1a 08 00 00 	LDI.Z      0x00000001,R3  // 1 <_rom+0x1>
 2002154:	1a 48 00 01 
 2002158:	10 44 c0 00 	AND        R3,R2
 200215c:	10 40 00 ff 	AND        $255,R2
 2002160:	78 a8 19 08 	BNZ        @0x02003a6c    // 2003a6c <_vfprintf_r+0x203c>
 2002164:	1b 42 40 00 	MOV        R9,R3
 2002168:	18 c0 01 00 	OR         $256,R3
 200216c:	1c c7 40 20 	SW         R3,$32(SP)
 2002170:	24 87 40 58 	LW         88(SP),R4
 2002174:	87 a0 a3 00 	MOV        R4,R0          | CMP        $0,R4
 2002178:	78 90 00 0c 	BLT        @0x02002188    // 2002188 <_vfprintf_r+0x758>
 200217c:	78 80 00 1c 	BRA        @0x0200219c    // 200219c <_vfprintf_r+0x76c>
 2002180:	ae 47 ad 1c 	LDI        $71,R5         | SW         R5,$28(SP)
 2002184:	b6 01 87 98 	LDI        $1,R6          | MOV        R3,R0
 2002188:	0a 00 00 01 	BREV       $1,R1
 200218c:	01 04 40 00 	XOR        R1,R0
 2002190:	85 24 8e 2d 	SW         R0,$36(SP)     | LDI        $45,R1
 2002194:	0c c7 40 3c 	SW         R1,$60(SP)
 2002198:	78 80 00 08 	BRA        @0x020021a4    // 20021a4 <_vfprintf_r+0x774>
 200219c:	a5 24 9e 00 	SW         R4,$36(SP)     | CLR        R3
 20021a0:	1c c7 40 3c 	SW         R3,$60(SP)
 20021a4:	24 87 40 1c 	LW         28(SP),R4
 20021a8:	24 00 00 46 	CMP        $70,R4
 20021ac:	78 88 18 34 	BZ         @0x020039e4    // 20039e4 <_vfprintf_r+0x1fb4>
 20021b0:	24 00 00 45 	CMP        $69,R4
 20021b4:	78 a8 17 ec 	BNZ        @0x020039a4    // 20039a4 <_vfprintf_r+0x1f74>
 20021b8:	af b0 aa 01 	MOV        R6,R5          | ADD        $1,R5
 20021bc:	ad 2c 8f e8 	SW         R5,$44(SP)     | MOV        SP,R1
 20021c0:	08 80 00 84 	ADD        $132,R1
 20021c4:	0c c7 40 08 	SW         R1,$8(SP)
 20021c8:	0b 40 5f f4 	MOV        $-12+R1,R1
 20021cc:	8d 04 8f 8c 	SW         R1,$4(SP)      | MOV        $-4+R1,R1
 20021d0:	8d 00 a6 02 	SW         R1,(SP)        | LDI        $2,R4
 20021d4:	14 87 40 24 	LW         36(SP),R2
 20021d8:	1c 87 40 54 	LW         84(SP),R3
 20021dc:	0b 43 00 00 	MOV        R12,R1
 20021e0:	87 fa fc f8 	JSR        0x020040f8     // 20040f8 <_dtoa_r>
 20021e4:	02 00 40 f8 
 20021e8:	0c c7 40 48 	SW         R1,$72(SP)
 20021ec:	af 88 84 2c 	MOV        R1,R5          | LW         44(SP),R0
 20021f0:	78 80 17 a8 	BRA        @0x0200399c    // 200399c <_vfprintf_r+0x1f6c>
 20021f4:	0c 87 40 84 	LW         132(SP),R1
 20021f8:	78 80 00 68 	BRA        @0x02002264    // 2002264 <_vfprintf_r+0x834>
 20021fc:	0c 87 40 74 	LW         116(SP),R1
 2002200:	78 80 00 08 	BRA        @0x0200220c    // 200220c <_vfprintf_r+0x7dc>
 2002204:	8e 01 88 b0 	LDI        $1,R1          | SUB        R6,R1
 2002208:	0c c7 40 74 	SW         R1,$116(SP)
 200220c:	08 85 80 00 	ADD        R6,R1
 2002210:	2c 87 40 48 	LW         72(SP),R5
 2002214:	28 84 40 00 	ADD        R1,R5
 2002218:	9e 00 a6 00 	CLR        R3             | CLR        R4
 200221c:	0c 87 40 24 	LW         36(SP),R1
 2002220:	14 87 40 54 	LW         84(SP),R2
 2002224:	87 fa fc f8 	JSR        0x0200d6fc     // 200d6fc <__eqdf2>
 2002228:	02 00 d6 fc 
 200222c:	0c 00 00 00 	CMP        $0,R1
 2002230:	78 88 00 2c 	BZ         @0x02002260    // 2002260 <_vfprintf_r+0x830>
 2002234:	0c 87 40 84 	LW         132(SP),R1
 2002238:	0c 05 40 00 	CMP        R5,R1
 200223c:	78 b8 00 24 	BNC        @0x02002264    // 2002264 <_vfprintf_r+0x834>
 2002240:	97 88 92 01 	MOV        R1,R2          | ADD        $1,R2
 2002244:	14 c7 40 84 	SW         R2,$132(SP)
 2002248:	16 00 00 30 	LDI        $48,R2
 200224c:	15 c4 40 00 	SB         R2,(R1)
 2002250:	0c 87 40 84 	LW         132(SP),R1
 2002254:	0c 05 40 00 	CMP        R5,R1
 2002258:	78 9b ff e4 	BC         @0x02002240    // 2002240 <_vfprintf_r+0x810>
 200225c:	78 80 00 04 	BRA        @0x02002264    // 2002264 <_vfprintf_r+0x834>
 2002260:	0b 41 40 00 	MOV        R5,R1
 2002264:	2c 87 40 48 	LW         72(SP),R5
 2002268:	88 a8 8d 34 	SUB        R5,R1          | SW         R1,$52(SP)
 200226c:	0c 87 40 1c 	LW         28(SP),R1
 2002270:	0c 00 00 47 	CMP        $71,R1
 2002274:	78 a8 00 28 	BNZ        @0x020022a0    // 20022a0 <_vfprintf_r+0x870>
 2002278:	2c 87 40 74 	LW         116(SP),R5
 200227c:	2c c7 40 4c 	SW         R5,$76(SP)
 2002280:	ab 7d 8e 00 	CMP        $-3,R5         | CLR        R1
 2002284:	0a 50 00 01 	LDILO.LT   $1,R1
 2002288:	34 05 40 00 	CMP        R5,R6
 200228c:	08 d0 00 01 	OR.LT      $1,R1
 2002290:	0c 00 00 00 	CMP        $0,R1
 2002294:	78 88 01 bc 	BZ         @0x02002454    // 2002454 <_vfprintf_r+0xa24>
 2002298:	ba 7e 8f a8 	ADD        $-2,R7         | MOV        R5,R1
 200229c:	78 80 00 14 	BRA        @0x020022b4    // 20022b4 <_vfprintf_r+0x884>
 20022a0:	3c 00 00 66 	CMP        $102,R7
 20022a4:	78 b0 01 28 	BGE        @0x020023d0    // 20023d0 <_vfprintf_r+0x9a0>
 20022a8:	2c 87 40 74 	LW         116(SP),R5
 20022ac:	2c c7 40 4c 	SW         R5,$76(SP)
 20022b0:	0b 41 40 00 	MOV        R5,R1
 20022b4:	08 83 ff ff 	ADD        $-1,R1
 20022b8:	0c c7 40 74 	SW         R1,$116(SP)
 20022bc:	3d c7 40 7d 	SB         R7,$125(SP)
 20022c0:	0c 00 00 00 	CMP        $0,R1
 20022c4:	78 b0 00 14 	BGE        @0x020022dc    // 20022dc <_vfprintf_r+0x8ac>
 20022c8:	0e 00 00 01 	LDI        $1,R1
 20022cc:	2c 87 40 4c 	LW         76(SP),R5
 20022d0:	88 a8 96 2d 	SUB        R5,R1          | LDI        $45,R2
 20022d4:	15 c7 40 7e 	SB         R2,$126(SP)
 20022d8:	78 80 00 08 	BRA        @0x020022e4    // 20022e4 <_vfprintf_r+0x8b4>
 20022dc:	1e 00 00 2b 	LDI        $43,R3
 20022e0:	1d c7 40 7e 	SB         R3,$126(SP)
 20022e4:	13 43 40 8b 	MOV        $139+SP,R2
 20022e8:	0c 00 00 0a 	CMP        $10,R1
 20022ec:	78 b0 00 08 	BGE        @0x020022f8    // 20022f8 <_vfprintf_r+0x8c8>
 20022f0:	78 80 00 64 	BRA        @0x02002358    // 2002358 <_vfprintf_r+0x928>
 20022f4:	13 41 40 00 	MOV        R5,R2
 20022f8:	af 90 aa 7f 	MOV        R2,R5          | ADD        $-1,R5
 20022fc:	23 40 40 00 	MOV        R1,R4
 2002300:	23 c0 00 0a 	DIVS       $10,R4
 2002304:	1b 41 00 00 	MOV        R4,R3
 2002308:	19 80 00 02 	LSL        $2,R3
 200230c:	9a a0 9a 98 	ADD        R4,R3          | ADD        R3,R3
 2002310:	88 98 8a 30 	SUB        R3,R1          | ADD        $48,R1
 2002314:	0d c4 bf ff 	SB         R1,$-1(R2)
 2002318:	8f a0 a3 0a 	MOV        R4,R1          | CMP        $10,R4
 200231c:	78 b3 ff d4 	BGE        @0x020022f4    // 20022f4 <_vfprintf_r+0x8c4>
 2002320:	92 7e 8a 30 	ADD        $-2,R2         | ADD        $48,R1
 2002324:	0d c5 7f ff 	SB         R1,$-1(R5)
 2002328:	a4 0c 93 a0 	LW         12(SP),R4      | CMP        R4,R2
 200232c:	78 b8 00 44 	BNC        @0x02002374    // 2002374 <_vfprintf_r+0x944>
 2002330:	0b 43 40 7f 	MOV        $127+SP,R1
 2002334:	8a 01 92 01 	ADD        $1,R1          | ADD        $1,R2
 2002338:	1d 84 bf ff 	LB         -1(R2),R3
 200233c:	1d c4 7f ff 	SB         R3,$-1(R1)
 2002340:	14 05 00 00 	CMP        R4,R2
 2002344:	78 ab ff ec 	BNZ        @0x02002334    // 2002334 <_vfprintf_r+0x904>
 2002348:	8c 14 88 a8 	LW         20(SP),R1      | SUB        R5,R1
 200234c:	2b 43 40 7f 	MOV        $127+SP,R5
 2002350:	aa 88 8f a8 	ADD        R1,R5          | MOV        R5,R1
 2002354:	78 80 00 24 	BRA        @0x0200237c    // 200237c <_vfprintf_r+0x94c>
 2002358:	16 00 00 30 	LDI        $48,R2
 200235c:	15 c7 40 7f 	SB         R2,$127(SP)
 2002360:	08 80 00 30 	ADD        $48,R1
 2002364:	0d c7 40 80 	SB         R1,$128(SP)
 2002368:	0b 43 40 00 	MOV        SP,R1
 200236c:	08 80 00 81 	ADD        $129,R1
 2002370:	78 80 00 08 	BRA        @0x0200237c    // 200237c <_vfprintf_r+0x94c>
 2002374:	0b 43 40 00 	MOV        SP,R1
 2002378:	08 80 00 7f 	ADD        $127,R1
 200237c:	9c 10 88 98 	LW         16(SP),R3      | SUB        R3,R1
 2002380:	0c c7 40 60 	SW         R1,$96(SP)
 2002384:	ac 34 aa 88 	LW         52(SP),R5      | ADD        R1,R5
 2002388:	ad 24 ac 34 	SW         R5,$36(SP)     | LW         52(SP),R5
 200238c:	2c 00 00 02 	CMP        $2,R5
 2002390:	78 b0 00 1c 	BGE        @0x020023b0    // 20023b0 <_vfprintf_r+0x980>
 2002394:	48 40 00 01 	AND        $1,R9
 2002398:	4c c7 40 4c 	SW         R9,$76(SP)
 200239c:	78 a8 00 10 	BNZ        @0x020023b0    // 20023b0 <_vfprintf_r+0x980>
 20023a0:	ac 24 ab c8 	LW         36(SP),R5      | CMP        R9,R5
 20023a4:	2b 52 40 00 	MOV.LT     R9,R5
 20023a8:	2c c7 40 1c 	SW         R5,$28(SP)
 20023ac:	78 80 01 38 	BRA        @0x020024e8    // 20024e8 <_vfprintf_r+0xab8>
 20023b0:	24 87 40 24 	LW         36(SP),R4
 20023b4:	2c 87 40 5c 	LW         92(SP),R5
 20023b8:	a2 a8 a5 24 	ADD        R5,R4          | SW         R4,$36(SP)
 20023bc:	8e 00 a3 88 	CLR        R1             | CMP        R1,R4
 20023c0:	23 50 40 00 	MOV.LT     R1,R4
 20023c4:	24 c7 40 1c 	SW         R4,$28(SP)
 20023c8:	0c c7 40 4c 	SW         R1,$76(SP)
 20023cc:	78 80 01 18 	BRA        @0x020024e8    // 20024e8 <_vfprintf_r+0xab8>
 20023d0:	78 88 00 0c 	BZ         @0x020023e0    // 20023e0 <_vfprintf_r+0x9b0>
 20023d4:	3c 87 40 74 	LW         116(SP),R7
 20023d8:	3c c7 40 4c 	SW         R7,$76(SP)
 20023dc:	78 80 00 74 	BRA        @0x02002454    // 2002454 <_vfprintf_r+0xa24>
 20023e0:	2c 87 40 74 	LW         116(SP),R5
 20023e4:	2c c7 40 4c 	SW         R5,$76(SP)
 20023e8:	2c 00 00 01 	CMP        $1,R5
 20023ec:	78 90 00 38 	BLT        @0x02002428    // 2002428 <_vfprintf_r+0x9f8>
 20023f0:	34 00 00 00 	CMP        $0,R6
 20023f4:	78 a8 00 10 	BNZ        @0x02002408    // 2002408 <_vfprintf_r+0x9d8>
 20023f8:	8f c8 89 01 	MOV        R9,R1          | AND        $1,R1
 20023fc:	78 a8 00 08 	BNZ        @0x02002408    // 2002408 <_vfprintf_r+0x9d8>
 2002400:	ad 1c ad 24 	SW         R5,$28(SP)     | SW         R5,$36(SP)
 2002404:	78 80 00 e0 	BRA        @0x020024e8    // 20024e8 <_vfprintf_r+0xab8>
 2002408:	0c 87 40 4c 	LW         76(SP),R1
 200240c:	14 87 40 5c 	LW         92(SP),R2
 2002410:	8a 90 8a b0 	ADD        R2,R1          | ADD        R6,R1
 2002414:	8d 24 8e 00 	SW         R1,$36(SP)     | CLR        R1
 2002418:	ac 24 ab 88 	LW         36(SP),R5      | CMP        R1,R5
 200241c:	2b 50 40 00 	MOV.LT     R1,R5
 2002420:	2c c7 40 1c 	SW         R5,$28(SP)
 2002424:	78 80 00 c0 	BRA        @0x020024e8    // 20024e8 <_vfprintf_r+0xab8>
 2002428:	34 00 00 00 	CMP        $0,R6
 200242c:	78 a8 00 08 	BNZ        @0x02002438    // 2002438 <_vfprintf_r+0xa08>
 2002430:	8f c8 89 01 	MOV        R9,R1          | AND        $1,R1
 2002434:	78 88 00 a8 	BZ         @0x020024e0    // 20024e0 <_vfprintf_r+0xab0>
 2002438:	0c 87 40 5c 	LW         92(SP),R1
 200243c:	8a 01 8a b0 	ADD        $1,R1          | ADD        R6,R1
 2002440:	8d 24 8e 00 	SW         R1,$36(SP)     | CLR        R1
 2002444:	ac 24 ab 88 	LW         36(SP),R5      | CMP        R1,R5
 2002448:	2b 50 40 00 	MOV.LT     R1,R5
 200244c:	2c c7 40 1c 	SW         R5,$28(SP)
 2002450:	78 80 00 94 	BRA        @0x020024e8    // 20024e8 <_vfprintf_r+0xab8>
 2002454:	3c 87 40 4c 	LW         76(SP),R7
 2002458:	ac 34 bb a8 	LW         52(SP),R5      | CMP        R5,R7
 200245c:	78 90 00 3c 	BLT        @0x0200249c    // 200249c <_vfprintf_r+0xa6c>
 2002460:	8f c8 89 01 	MOV        R9,R1          | AND        $1,R1
 2002464:	78 a8 00 18 	BNZ        @0x02002480    // 2002480 <_vfprintf_r+0xa50>
 2002468:	3c 04 40 00 	CMP        R1,R7
 200246c:	3b 50 40 00 	MOV.LT     R1,R7
 2002470:	3c c7 40 1c 	SW         R7,$28(SP)
 2002474:	3c 87 40 4c 	LW         76(SP),R7
 2002478:	bd 24 be 67 	SW         R7,$36(SP)     | LDI        $103,R7
 200247c:	78 80 00 68 	BRA        @0x020024e8    // 20024e8 <_vfprintf_r+0xab8>
 2002480:	2b 41 c0 00 	MOV        R7,R5
 2002484:	3c 87 40 5c 	LW         92(SP),R7
 2002488:	aa b8 ad 24 	ADD        R7,R5          | SW         R5,$36(SP)
 200248c:	8e 00 ab 88 	CLR        R1             | CMP        R1,R5
 2002490:	2b 50 40 00 	MOV.LT     R1,R5
 2002494:	ad 1c be 67 	SW         R5,$28(SP)     | LDI        $103,R7
 2002498:	78 80 00 4c 	BRA        @0x020024e8    // 20024e8 <_vfprintf_r+0xab8>
 200249c:	3c 87 40 5c 	LW         92(SP),R7
 20024a0:	aa b8 ad 24 	ADD        R7,R5          | SW         R5,$36(SP)
 20024a4:	2c 87 40 4c 	LW         76(SP),R5
 20024a8:	2c 00 00 01 	CMP        $1,R5
 20024ac:	78 90 00 14 	BLT        @0x020024c4    // 20024c4 <_vfprintf_r+0xa94>
 20024b0:	8e 00 bc 24 	CLR        R1             | LW         36(SP),R7
 20024b4:	3c 04 40 00 	CMP        R1,R7
 20024b8:	3b 50 40 00 	MOV.LT     R1,R7
 20024bc:	bd 1c be 67 	SW         R7,$28(SP)     | LDI        $103,R7
 20024c0:	78 80 00 24 	BRA        @0x020024e8    // 20024e8 <_vfprintf_r+0xab8>
 20024c4:	8c 24 88 a8 	LW         36(SP),R1      | SUB        R5,R1
 20024c8:	8f 89 8d 24 	MOV        $1+R1,R1       | SW         R1,$36(SP)
 20024cc:	8e 00 bc 24 	CLR        R1             | LW         36(SP),R7
 20024d0:	3c 04 40 00 	CMP        R1,R7
 20024d4:	3b 50 40 00 	MOV.LT     R1,R7
 20024d8:	bd 1c be 67 	SW         R7,$28(SP)     | LDI        $103,R7
 20024dc:	78 80 00 08 	BRA        @0x020024e8    // 20024e8 <_vfprintf_r+0xab8>
 20024e0:	ae 01 ad 1c 	LDI        $1,R5          | SW         R5,$28(SP)
 20024e4:	2c c7 40 24 	SW         R5,$36(SP)
 20024e8:	8c 3c 8b 00 	LW         60(SP),R1      | CMP        $0,R1
 20024ec:	78 a8 00 0c 	BNZ        @0x020024fc    // 20024fc <_vfprintf_r+0xacc>
 20024f0:	2d 87 40 71 	LB         113(SP),R5
 20024f4:	ad 2c b7 88 	SW         R5,$44(SP)     | MOV        R1,R6
 20024f8:	78 80 05 f4 	BRA        @0x02002af0    // 2002af0 <_vfprintf_r+0x10c0>
 20024fc:	0e 00 00 2d 	LDI        $45,R1
 2002500:	0d c7 40 71 	SB         R1,$113(SP)
 2002504:	ae 2d ad 2c 	LDI        $45,R5         | SW         R5,$44(SP)
 2002508:	36 00 00 00 	CLR        R6
 200250c:	78 80 05 e8 	BRA        @0x02002af8    // 2002af8 <_vfprintf_r+0x10c8>
 2002510:	0c 00 00 00 	CMP        $0,R1
 2002514:	25 ef 40 71 	SB.NZ      R4,$113(SP)
 2002518:	8f c8 89 10 	MOV        R9,R1          | AND        $16,R1
 200251c:	78 88 00 24 	BZ         @0x02002544    // 2002544 <_vfprintf_r+0xb14>
 2002520:	bc 28 8c b8 	LW         40(SP),R7      | LW         (R7),R1
 2002524:	3c 87 40 30 	LW         48(SP),R7
 2002528:	3c c4 40 04 	SW         R7,$4(R1)
 200252c:	13 41 c0 00 	MOV        R7,R2
 2002530:	11 c0 00 1f 	ASR        $31,R2
 2002534:	95 88 bc 28 	SW         R2,(R1)        | LW         40(SP),R7
 2002538:	3b 41 c0 04 	MOV        $4+R7,R7
 200253c:	3c c7 40 28 	SW         R7,$40(SP)
 2002540:	78 83 f6 44 	BRA        @0x02001b88    // 2001b88 <_vfprintf_r+0x158>
 2002544:	0b 42 40 00 	MOV        R9,R1
 2002548:	08 40 00 40 	AND        $64,R1
 200254c:	bc 28 8c b8 	LW         40(SP),R7      | LW         (R7),R1
 2002550:	3c 87 40 30 	LW         48(SP),R7
 2002554:	3d 6c 40 00 	SH.NZ      R7,(R1)
 2002558:	3c cc 40 00 	SW.Z       R7,(R1)
 200255c:	3c 87 40 28 	LW         40(SP),R7
 2002560:	3b 41 c0 04 	MOV        $4+R7,R7
 2002564:	3c c7 40 28 	SW         R7,$40(SP)
 2002568:	78 83 f6 1c 	BRA        @0x02001b88    // 2001b88 <_vfprintf_r+0x158>
 200256c:	48 c0 00 10 	OR         $16,R9
 2002570:	8f c8 89 10 	MOV        R9,R1          | AND        $16,R1
 2002574:	78 88 00 20 	BZ         @0x02002598    // 2002598 <_vfprintf_r+0xb68>
 2002578:	94 28 8c 90 	LW         40(SP),R2      | LW         (R2),R1
 200257c:	14 84 80 04 	LW         4(R2),R2
 2002580:	0c c7 40 40 	SW         R1,$64(SP)
 2002584:	14 c7 40 44 	SW         R2,$68(SP)
 2002588:	1c 87 40 28 	LW         40(SP),R3
 200258c:	1b 40 c0 08 	MOV        $8+R3,R3
 2002590:	9d 28 96 00 	SW         R3,$40(SP)     | CLR        R2
 2002594:	78 80 02 8c 	BRA        @0x02002824    // 2002824 <_vfprintf_r+0xdf4>
 2002598:	13 42 40 00 	MOV        R9,R2
 200259c:	10 40 00 40 	AND        $64,R2
 20025a0:	78 88 00 1c 	BZ         @0x020025c0    // 20025c0 <_vfprintf_r+0xb90>
 20025a4:	a4 28 94 a0 	LW         40(SP),R4      | LW         (R4),R2
 20025a8:	10 40 ff ff 	AND        $65535,R2
 20025ac:	14 c7 40 44 	SW         R2,$68(SP)
 20025b0:	0c c7 40 40 	SW         R1,$64(SP)
 20025b4:	23 41 00 04 	MOV        $4+R4,R4
 20025b8:	a5 28 97 88 	SW         R4,$40(SP)     | MOV        R1,R2
 20025bc:	78 80 02 64 	BRA        @0x02002824    // 2002824 <_vfprintf_r+0xdf4>
 20025c0:	ac 28 ac a8 	LW         40(SP),R5      | LW         (R5),R5
 20025c4:	2c c7 40 44 	SW         R5,$68(SP)
 20025c8:	14 c7 40 40 	SW         R2,$64(SP)
 20025cc:	0c 87 40 28 	LW         40(SP),R1
 20025d0:	0b 40 40 04 	MOV        $4+R1,R1
 20025d4:	0c c7 40 28 	SW         R1,$40(SP)
 20025d8:	78 80 02 48 	BRA        @0x02002824    // 2002824 <_vfprintf_r+0xdf4>
 20025dc:	bc 28 bc b8 	LW         40(SP),R7      | LW         (R7),R7
 20025e0:	3c c7 40 44 	SW         R7,$68(SP)
 20025e4:	0e 00 00 00 	CLR        R1
 20025e8:	0c c7 40 40 	SW         R1,$64(SP)
 20025ec:	48 c0 00 02 	OR         $2,R9
 20025f0:	16 00 00 30 	LDI        $48,R2
 20025f4:	15 c7 40 72 	SB         R2,$114(SP)
 20025f8:	1e 00 00 78 	LDI        $120,R3
 20025fc:	1d c7 40 73 	SB         R3,$115(SP)
 2002600:	3c 87 40 28 	LW         40(SP),R7
 2002604:	3b 41 c0 04 	MOV        $4+R7,R7
 2002608:	3c c7 40 28 	SW         R7,$40(SP)
 200260c:	3a 03 00 40 	LDI        0x0200e3d0,R7  // 200e3d0 <_global_impure_ptr+0x2c>
 2002610:	3a 40 e3 d0 
 2002614:	3c c7 40 64 	SW         R7,$100(SP)
 2002618:	96 02 be 78 	LDI        $2,R2          | LDI        $120,R7
 200261c:	78 80 02 04 	BRA        @0x02002824    // 2002824 <_vfprintf_r+0xdf4>
 2002620:	ac 28 aa 04 	LW         40(SP),R5      | ADD        $4,R5
 2002624:	8c 28 8c 88 	LW         40(SP),R1      | LW         (R1),R1
 2002628:	0c c7 40 48 	SW         R1,$72(SP)
 200262c:	16 00 00 00 	CLR        R2
 2002630:	15 c7 40 71 	SB         R2,$113(SP)
 2002634:	0c 00 00 00 	CMP        $0,R1
 2002638:	78 a8 00 28 	BNZ        @0x02002664    // 2002664 <_vfprintf_r+0xc34>
 200263c:	8e 06 8b b0 	LDI        $6,R1          | CMP        R6,R1
 2002640:	33 58 40 00 	MOV.C      R1,R6
 2002644:	b5 1c ad 28 	SW         R6,$28(SP)     | SW         R5,$40(SP)
 2002648:	b5 24 cd 20 	SW         R6,$36(SP)     | SW         R9,$32(SP)
 200264c:	b6 00 b5 2c 	CLR        R6             | SW         R6,$44(SP)
 2002650:	34 c7 40 4c 	SW         R6,$76(SP)
 2002654:	2a 03 00 40 	LDI        0x0200e3e4,R5  // 200e3e4 <_global_impure_ptr+0x40>
 2002658:	2a 40 e3 e4 
 200265c:	2c c7 40 48 	SW         R5,$72(SP)
 2002660:	78 80 04 9c 	BRA        @0x02002b00    // 2002b00 <_vfprintf_r+0x10d0>
 2002664:	34 03 ff ff 	CMP        $-1,R6
 2002668:	78 88 00 5c 	BZ         @0x020026c8    // 20026c8 <_vfprintf_r+0xc98>
 200266c:	9f b0 96 00 	MOV        R6,R3          | CLR        R2
 2002670:	87 fa fc f8 	JSR        0x02007354     // 2007354 <memchr>
 2002674:	02 00 73 54 
 2002678:	0c 00 00 00 	CMP        $0,R1
 200267c:	78 a8 00 1c 	BNZ        @0x0200269c    // 200269c <_vfprintf_r+0xc6c>
 2002680:	15 87 40 71 	LB         113(SP),R2
 2002684:	95 2c b5 1c 	SW         R2,$44(SP)     | SW         R6,$28(SP)
 2002688:	ad 28 b5 24 	SW         R5,$40(SP)     | SW         R6,$36(SP)
 200268c:	cd 20 b7 88 	SW         R9,$32(SP)     | MOV        R1,R6
 2002690:	0c c7 40 4c 	SW         R1,$76(SP)
 2002694:	2b 40 80 00 	MOV        R2,R5
 2002698:	78 80 04 54 	BRA        @0x02002af0    // 2002af0 <_vfprintf_r+0x10c0>
 200269c:	1c 87 40 48 	LW         72(SP),R3
 20026a0:	88 98 8d 24 	SUB        R3,R1          | SW         R1,$36(SP)
 20026a4:	b6 00 8b b0 	CLR        R6             | CMP        R6,R1
 20026a8:	0b 51 80 00 	MOV.LT     R6,R1
 20026ac:	0c c7 40 1c 	SW         R1,$28(SP)
 20026b0:	25 87 40 71 	LB         113(SP),R4
 20026b4:	a5 2c ad 28 	SW         R4,$44(SP)     | SW         R5,$40(SP)
 20026b8:	4c c7 40 20 	SW         R9,$32(SP)
 20026bc:	34 c7 40 4c 	SW         R6,$76(SP)
 20026c0:	2b 41 00 00 	MOV        R4,R5
 20026c4:	78 80 04 28 	BRA        @0x02002af0    // 2002af0 <_vfprintf_r+0x10c0>
 20026c8:	87 fa fc f8 	JSR        0x0200191c     // 200191c <strlen>
 20026cc:	02 00 19 1c 
 20026d0:	8d 24 b6 00 	SW         R1,$36(SP)     | CLR        R6
 20026d4:	0c 05 80 00 	CMP        R6,R1
 20026d8:	0b 51 80 00 	MOV.LT     R6,R1
 20026dc:	0c c7 40 1c 	SW         R1,$28(SP)
 20026e0:	0d 87 40 71 	LB         113(SP),R1
 20026e4:	8d 2c ad 28 	SW         R1,$44(SP)     | SW         R5,$40(SP)
 20026e8:	4c c7 40 20 	SW         R9,$32(SP)
 20026ec:	34 c7 40 4c 	SW         R6,$76(SP)
 20026f0:	2b 40 40 00 	MOV        R1,R5
 20026f4:	78 80 03 f8 	BRA        @0x02002af0    // 2002af0 <_vfprintf_r+0x10c0>
 20026f8:	48 c0 00 10 	OR         $16,R9
 20026fc:	8f c8 89 10 	MOV        R9,R1          | AND        $16,R1
 2002700:	78 88 00 20 	BZ         @0x02002724    // 2002724 <_vfprintf_r+0xcf4>
 2002704:	9c 28 94 98 	LW         40(SP),R3      | LW         (R3),R2
 2002708:	1c 84 c0 04 	LW         4(R3),R3
 200270c:	14 c7 40 40 	SW         R2,$64(SP)
 2002710:	1c c7 40 44 	SW         R3,$68(SP)
 2002714:	24 87 40 28 	LW         40(SP),R4
 2002718:	23 41 00 08 	MOV        $8+R4,R4
 200271c:	a5 28 96 01 	SW         R4,$40(SP)     | LDI        $1,R2
 2002720:	78 80 01 00 	BRA        @0x02002824    // 2002824 <_vfprintf_r+0xdf4>
 2002724:	13 42 40 00 	MOV        R9,R2
 2002728:	10 40 00 40 	AND        $64,R2
 200272c:	78 88 00 1c 	BZ         @0x0200274c    // 200274c <_vfprintf_r+0xd1c>
 2002730:	ac 28 94 a8 	LW         40(SP),R5      | LW         (R5),R2
 2002734:	10 40 ff ff 	AND        $65535,R2
 2002738:	14 c7 40 44 	SW         R2,$68(SP)
 200273c:	0c c7 40 40 	SW         R1,$64(SP)
 2002740:	2b 41 40 04 	MOV        $4+R5,R5
 2002744:	ad 28 96 01 	SW         R5,$40(SP)     | LDI        $1,R2
 2002748:	78 80 00 d8 	BRA        @0x02002824    // 2002824 <_vfprintf_r+0xdf4>
 200274c:	8c 28 8c 88 	LW         40(SP),R1      | LW         (R1),R1
 2002750:	0c c7 40 44 	SW         R1,$68(SP)
 2002754:	14 c7 40 40 	SW         R2,$64(SP)
 2002758:	14 87 40 28 	LW         40(SP),R2
 200275c:	13 40 80 04 	MOV        $4+R2,R2
 2002760:	95 28 96 01 	SW         R2,$40(SP)     | LDI        $1,R2
 2002764:	78 80 00 bc 	BRA        @0x02002824    // 2002824 <_vfprintf_r+0xdf4>
 2002768:	0c 00 00 00 	CMP        $0,R1
 200276c:	25 ef 40 71 	SB.NZ      R4,$113(SP)
 2002770:	1e 00 00 78 	LDI        $120,R3
 2002774:	22 03 00 40 	LDI        0x0200e3d0,R4  // 200e3d0 <_global_impure_ptr+0x2c>
 2002778:	22 40 e3 d0 
 200277c:	24 c7 40 64 	SW         R4,$100(SP)
 2002780:	8f c8 89 10 	MOV        R9,R1          | AND        $16,R1
 2002784:	78 88 00 20 	BZ         @0x020027a8    // 20027a8 <_vfprintf_r+0xd78>
 2002788:	94 28 8c 90 	LW         40(SP),R2      | LW         (R2),R1
 200278c:	14 84 80 04 	LW         4(R2),R2
 2002790:	0c c7 40 40 	SW         R1,$64(SP)
 2002794:	14 c7 40 44 	SW         R2,$68(SP)
 2002798:	24 87 40 28 	LW         40(SP),R4
 200279c:	23 41 00 08 	MOV        $8+R4,R4
 20027a0:	24 c7 40 28 	SW         R4,$40(SP)
 20027a4:	78 80 00 40 	BRA        @0x020027e8    // 20027e8 <_vfprintf_r+0xdb8>
 20027a8:	13 42 40 00 	MOV        R9,R2
 20027ac:	10 40 00 40 	AND        $64,R2
 20027b0:	78 88 00 1c 	BZ         @0x020027d0    // 20027d0 <_vfprintf_r+0xda0>
 20027b4:	ac 28 94 a8 	LW         40(SP),R5      | LW         (R5),R2
 20027b8:	10 40 ff ff 	AND        $65535,R2
 20027bc:	14 c7 40 44 	SW         R2,$68(SP)
 20027c0:	0c c7 40 40 	SW         R1,$64(SP)
 20027c4:	2b 41 40 04 	MOV        $4+R5,R5
 20027c8:	2c c7 40 28 	SW         R5,$40(SP)
 20027cc:	78 80 00 18 	BRA        @0x020027e8    // 20027e8 <_vfprintf_r+0xdb8>
 20027d0:	8c 28 8c 88 	LW         40(SP),R1      | LW         (R1),R1
 20027d4:	0c c7 40 44 	SW         R1,$68(SP)
 20027d8:	14 c7 40 40 	SW         R2,$64(SP)
 20027dc:	14 87 40 28 	LW         40(SP),R2
 20027e0:	13 40 80 04 	MOV        $4+R2,R2
 20027e4:	14 c7 40 28 	SW         R2,$40(SP)
 20027e8:	8f c8 89 01 	MOV        R9,R1          | AND        $1,R1
 20027ec:	78 88 00 2c 	BZ         @0x0200281c    // 200281c <_vfprintf_r+0xdec>
 20027f0:	24 87 40 40 	LW         64(SP),R4
 20027f4:	2c 87 40 44 	LW         68(SP),R5
 20027f8:	96 02 a3 00 	LDI        $2,R2          | CMP        $0,R4
 20027fc:	2c 08 00 00 	CMP.Z      $0,R5
 2002800:	78 88 00 20 	BZ         @0x02002824    // 2002824 <_vfprintf_r+0xdf4>
 2002804:	2e 00 00 30 	LDI        $48,R5
 2002808:	2d c7 40 72 	SB         R5,$114(SP)
 200280c:	1d c7 40 73 	SB         R3,$115(SP)
 2002810:	48 c0 00 02 	OR         $2,R9
 2002814:	16 00 00 02 	LDI        $2,R2
 2002818:	78 80 00 08 	BRA        @0x02002824    // 2002824 <_vfprintf_r+0xdf4>
 200281c:	16 00 00 02 	LDI        $2,R2
 2002820:	78 80 00 00 	BRA        @0x02002824    // 2002824 <_vfprintf_r+0xdf4>
 2002824:	0e 00 00 00 	CLR        R1
 2002828:	0d c7 40 71 	SB         R1,$113(SP)
 200282c:	ae 00 ad 2c 	CLR        R5             | SW         R5,$44(SP)
 2002830:	34 03 ff ff 	CMP        $-1,R6
 2002834:	78 88 00 34 	BZ         @0x0200286c    // 200286c <_vfprintf_r+0xe3c>
 2002838:	0b 42 40 00 	MOV        R9,R1
 200283c:	08 43 ff 7f 	AND        $-129,R1
 2002840:	0c c7 40 20 	SW         R1,$32(SP)
 2002844:	0c 87 40 40 	LW         64(SP),R1
 2002848:	1c 87 40 44 	LW         68(SP),R3
 200284c:	08 c4 c0 00 	OR         R3,R1
 2002850:	1e 00 00 00 	CLR        R3
 2002854:	1a 68 00 01 	LDILO.NZ   $1,R3
 2002858:	34 00 00 00 	CMP        $0,R6
 200285c:	18 e8 00 01 	OR.NZ      $1,R3
 2002860:	1c 00 00 00 	CMP        $0,R3
 2002864:	78 88 01 e4 	BZ         @0x02002a4c    // 2002a4c <_vfprintf_r+0x101c>
 2002868:	4c 87 40 20 	LW         32(SP),R9
 200286c:	14 00 00 01 	CMP        $1,R2
 2002870:	78 88 00 b0 	BZ         @0x02002924    // 2002924 <_vfprintf_r+0xef4>
 2002874:	14 00 00 02 	CMP        $2,R2
 2002878:	78 88 01 54 	BZ         @0x020029d0    // 20029d0 <_vfprintf_r+0xfa0>
 200287c:	13 43 40 c0 	MOV        $192+SP,R2
 2002880:	d5 1c bd 20 	SW         R10,$28(SP)    | SW         R7,$32(SP)
 2002884:	4c c7 40 24 	SW         R9,$36(SP)
 2002888:	24 87 40 40 	LW         64(SP),R4
 200288c:	2c 87 40 44 	LW         68(SP),R5
 2002890:	78 80 00 04 	BRA        @0x02002898    // 2002898 <_vfprintf_r+0xe68>
 2002894:	13 42 80 00 	MOV        R10,R2
 2002898:	d7 90 d2 7f 	MOV        R2,R10         | ADD        $-1,R10
 200289c:	8f a8 89 07 	MOV        R5,R1          | AND        $7,R1
 20028a0:	08 80 00 30 	ADD        $48,R1
 20028a4:	0d c4 bf ff 	SB         R1,$-1(R2)
 20028a8:	3b 41 00 00 	MOV        R4,R7
 20028ac:	39 80 00 1d 	LSL        $29,R7
 20028b0:	1b 41 40 00 	MOV        R5,R3
 20028b4:	19 40 00 03 	LSR        $3,R3
 20028b8:	4b 41 00 00 	MOV        R4,R9
 20028bc:	49 40 00 03 	LSR        $3,R9
 20028c0:	a7 c8 af b8 	MOV        R9,R4          | MOV        R7,R5
 20028c4:	28 c4 c0 00 	OR         R3,R5
 20028c8:	24 00 00 00 	CMP        $0,R4
 20028cc:	2c 08 00 00 	CMP.Z      $0,R5
 20028d0:	78 ab ff c0 	BNZ        @0x02002894    // 2002894 <_vfprintf_r+0xe64>
 20028d4:	bc 20 cc 24 	LW         32(SP),R7      | LW         36(SP),R9
 20028d8:	24 c7 40 40 	SW         R4,$64(SP)
 20028dc:	2c c7 40 44 	SW         R5,$68(SP)
 20028e0:	9f d0 d4 1c 	MOV        R10,R3         | LW         28(SP),R10
 20028e4:	8b 30 8e 00 	CMP        $48,R1         | CLR        R1
 20028e8:	0a 68 00 01 	LDILO.NZ   $1,R1
 20028ec:	a7 c8 a1 88 	MOV        R9,R4          | AND        R1,R4
 20028f0:	78 a8 00 10 	BNZ        @0x02002904    // 2002904 <_vfprintf_r+0xed4>
 20028f4:	ac 18 a8 98 	LW         24(SP),R5      | SUB        R3,R5
 20028f8:	ad 24 cd 20 	SW         R5,$36(SP)     | SW         R9,$32(SP)
 20028fc:	1c c7 40 48 	SW         R3,$72(SP)
 2002900:	78 80 01 94 	BRA        @0x02002a98    // 2002a98 <_vfprintf_r+0x1068>
 2002904:	10 83 ff fe 	ADD        $-2,R2
 2002908:	14 c7 40 48 	SW         R2,$72(SP)
 200290c:	0e 00 00 30 	LDI        $48,R1
 2002910:	0d c4 ff ff 	SB         R1,$-1(R3)
 2002914:	9c 18 98 90 	LW         24(SP),R3      | SUB        R2,R3
 2002918:	9d 24 cd 20 	SW         R3,$36(SP)     | SW         R9,$32(SP)
 200291c:	2b 40 c0 00 	MOV        R3,R5
 2002920:	78 80 01 74 	BRA        @0x02002a98    // 2002a98 <_vfprintf_r+0x1068>
 2002924:	24 87 40 40 	LW         64(SP),R4
 2002928:	2c 87 40 44 	LW         68(SP),R5
 200292c:	24 00 00 00 	CMP        $0,R4
 2002930:	78 a8 00 28 	BNZ        @0x0200295c    // 200295c <_vfprintf_r+0xf2c>
 2002934:	2c 00 00 0a 	CMP        $10,R5
 2002938:	78 b8 00 20 	BNC        @0x0200295c    // 200295c <_vfprintf_r+0xf2c>
 200293c:	8f a8 8a 30 	MOV        R5,R1          | ADD        $48,R1
 2002940:	0d c7 40 bf 	SB         R1,$191(SP)
 2002944:	cd 20 95 24 	SW         R9,$32(SP)     | SW         R2,$36(SP)
 2002948:	2b 43 40 00 	MOV        SP,R5
 200294c:	28 80 00 bf 	ADD        $191,R5
 2002950:	2c c7 40 48 	SW         R5,$72(SP)
 2002954:	2b 40 80 00 	MOV        R2,R5
 2002958:	78 80 01 3c 	BRA        @0x02002a98    // 2002a98 <_vfprintf_r+0x1068>
 200295c:	2b 43 40 c0 	MOV        $192+SP,R5
 2002960:	2c c7 40 48 	SW         R5,$72(SP)
 2002964:	d5 1c bd 20 	SW         R10,$28(SP)    | SW         R7,$32(SP)
 2002968:	3b 42 c0 00 	MOV        R11,R7
 200296c:	54 87 40 40 	LW         64(SP),R10
 2002970:	5c 87 40 44 	LW         68(SP),R11
 2002974:	aa 7f 9e 00 	ADD        $-1,R5         | CLR        R3
 2002978:	a6 0a 8f d0 	LDI        $10,R4         | MOV        R10,R1
 200297c:	13 42 c0 00 	MOV        R11,R2
 2002980:	87 fa fc f8 	JSR        0x0200c478     // 200c478 <__umoddi3>
 2002984:	02 00 c4 78 
 2002988:	10 80 00 30 	ADD        $48,R2
 200298c:	15 c5 40 00 	SB         R2,(R5)
 2002990:	9e 00 a6 0a 	CLR        R3             | LDI        $10,R4
 2002994:	8f d0 97 d8 	MOV        R10,R1         | MOV        R11,R2
 2002998:	87 fa fc f8 	JSR        0x0200bf20     // 200bf20 <__udivdi3>
 200299c:	02 00 bf 20 
 20029a0:	d7 88 df 90 	MOV        R1,R10         | MOV        R2,R11
 20029a4:	0c 00 00 00 	CMP        $0,R1
 20029a8:	14 08 00 00 	CMP.Z      $0,R2
 20029ac:	78 ab ff c4 	BNZ        @0x02002974    // 2002974 <_vfprintf_r+0xf44>
 20029b0:	2c c7 40 48 	SW         R5,$72(SP)
 20029b4:	0c c7 40 40 	SW         R1,$64(SP)
 20029b8:	14 c7 40 44 	SW         R2,$68(SP)
 20029bc:	d4 1c df b8 	LW         28(SP),R10     | MOV        R7,R11
 20029c0:	bc 20 8c 18 	LW         32(SP),R7      | LW         24(SP),R1
 20029c4:	88 a8 8d 24 	SUB        R5,R1          | SW         R1,$36(SP)
 20029c8:	cd 20 af 88 	SW         R9,$32(SP)     | MOV        R1,R5
 20029cc:	78 80 00 c8 	BRA        @0x02002a98    // 2002a98 <_vfprintf_r+0x1068>
 20029d0:	2b 43 40 c0 	MOV        $192+SP,R5
 20029d4:	2c c7 40 48 	SW         R5,$72(SP)
 20029d8:	d5 1c bd 20 	SW         R10,$28(SP)    | SW         R7,$32(SP)
 20029dc:	0b 41 40 00 	MOV        R5,R1
 20029e0:	54 87 40 64 	LW         100(SP),R10
 20029e4:	14 87 40 40 	LW         64(SP),R2
 20029e8:	1c 87 40 44 	LW         68(SP),R3
 20029ec:	8a 7f a7 98 	ADD        $-1,R1         | MOV        R3,R4
 20029f0:	a1 0f bf d0 	AND        $15,R4         | MOV        R10,R7
 20029f4:	38 85 00 00 	ADD        R4,R7
 20029f8:	25 85 c0 00 	LB         (R7),R4
 20029fc:	25 c4 40 00 	SB         R4,(R1)
 2002a00:	2b 40 80 00 	MOV        R2,R5
 2002a04:	29 80 00 1c 	LSL        $28,R5
 2002a08:	23 40 c0 00 	MOV        R3,R4
 2002a0c:	21 40 00 04 	LSR        $4,R4
 2002a10:	3b 40 80 00 	MOV        R2,R7
 2002a14:	39 40 00 04 	LSR        $4,R7
 2002a18:	97 b8 9f a8 	MOV        R7,R2          | MOV        R5,R3
 2002a1c:	18 c5 00 00 	OR         R4,R3
 2002a20:	14 00 00 00 	CMP        $0,R2
 2002a24:	1c 08 00 00 	CMP.Z      $0,R3
 2002a28:	78 ab ff c0 	BNZ        @0x020029ec    // 20029ec <_vfprintf_r+0xfbc>
 2002a2c:	d4 1c bc 20 	LW         28(SP),R10     | LW         32(SP),R7
 2002a30:	0c c7 40 48 	SW         R1,$72(SP)
 2002a34:	14 c7 40 40 	SW         R2,$64(SP)
 2002a38:	1c c7 40 44 	SW         R3,$68(SP)
 2002a3c:	94 18 90 88 	LW         24(SP),R2      | SUB        R1,R2
 2002a40:	95 24 cd 20 	SW         R2,$36(SP)     | SW         R9,$32(SP)
 2002a44:	2b 40 80 00 	MOV        R2,R5
 2002a48:	78 80 00 4c 	BRA        @0x02002a98    // 2002a98 <_vfprintf_r+0x1068>
 2002a4c:	14 00 00 00 	CMP        $0,R2
 2002a50:	78 a8 00 24 	BNZ        @0x02002a78    // 2002a78 <_vfprintf_r+0x1048>
 2002a54:	c9 01 cd 24 	AND        $1,R9          | SW         R9,$36(SP)
 2002a58:	78 88 00 30 	BZ         @0x02002a8c    // 2002a8c <_vfprintf_r+0x105c>
 2002a5c:	1e 00 00 30 	LDI        $48,R3
 2002a60:	1d c7 40 bf 	SB         R3,$191(SP)
 2002a64:	2b 43 40 00 	MOV        SP,R5
 2002a68:	28 80 00 bf 	ADD        $191,R5
 2002a6c:	2c c7 40 48 	SW         R5,$72(SP)
 2002a70:	2b 42 40 00 	MOV        R9,R5
 2002a74:	78 80 00 20 	BRA        @0x02002a98    // 2002a98 <_vfprintf_r+0x1068>
 2002a78:	1c c7 40 24 	SW         R3,$36(SP)
 2002a7c:	2b 43 40 c0 	MOV        $192+SP,R5
 2002a80:	2c c7 40 48 	SW         R5,$72(SP)
 2002a84:	2b 40 c0 00 	MOV        R3,R5
 2002a88:	78 80 00 0c 	BRA        @0x02002a98    // 2002a98 <_vfprintf_r+0x1068>
 2002a8c:	2b 43 40 c0 	MOV        $192+SP,R5
 2002a90:	2c c7 40 48 	SW         R5,$72(SP)
 2002a94:	2b 42 40 00 	MOV        R9,R5
 2002a98:	2c 05 80 00 	CMP        R6,R5
 2002a9c:	2b 51 80 00 	MOV.LT     R6,R5
 2002aa0:	ad 1c ae 00 	SW         R5,$28(SP)     | CLR        R5
 2002aa4:	2c c7 40 4c 	SW         R5,$76(SP)
 2002aa8:	2c 87 40 2c 	LW         44(SP),R5
 2002aac:	78 80 00 40 	BRA        @0x02002af0    // 2002af0 <_vfprintf_r+0x10c0>
 2002ab0:	0c 00 00 00 	CMP        $0,R1
 2002ab4:	25 ef 40 71 	SB.NZ      R4,$113(SP)
 2002ab8:	3c 00 00 00 	CMP        $0,R7
 2002abc:	78 88 0d 38 	BZ         @0x020037f8    // 20037f8 <_vfprintf_r+0x1dc8>
 2002ac0:	3d c7 40 98 	SB         R7,$152(SP)
 2002ac4:	0e 00 00 00 	CLR        R1
 2002ac8:	0d c7 40 71 	SB         R1,$113(SP)
 2002acc:	cd 20 ae 00 	SW         R9,$32(SP)     | CLR        R5
 2002ad0:	ad 2c ae 01 	SW         R5,$44(SP)     | LDI        $1,R5
 2002ad4:	ad 1c ad 24 	SW         R5,$28(SP)     | SW         R5,$36(SP)
 2002ad8:	36 00 00 00 	CLR        R6
 2002adc:	34 c7 40 4c 	SW         R6,$76(SP)
 2002ae0:	2b 43 40 00 	MOV        SP,R5
 2002ae4:	28 80 00 98 	ADD        $152,R5
 2002ae8:	2c c7 40 48 	SW         R5,$72(SP)
 2002aec:	78 80 00 10 	BRA        @0x02002b00    // 2002b00 <_vfprintf_r+0x10d0>
 2002af0:	2c 00 00 00 	CMP        $0,R5
 2002af4:	78 88 00 08 	BZ         @0x02002b00    // 2002b00 <_vfprintf_r+0x10d0>
 2002af8:	ac 1c aa 01 	LW         28(SP),R5      | ADD        $1,R5
 2002afc:	2c c7 40 1c 	SW         R5,$28(SP)
 2002b00:	8c 20 89 02 	LW         32(SP),R1      | AND        $2,R1
 2002b04:	0c c7 40 3c 	SW         R1,$60(SP)
 2002b08:	78 88 00 08 	BZ         @0x02002b14    // 2002b14 <_vfprintf_r+0x10e4>
 2002b0c:	ac 1c aa 02 	LW         28(SP),R5      | ADD        $2,R5
 2002b10:	2c c7 40 1c 	SW         R5,$28(SP)
 2002b14:	4c 87 40 20 	LW         32(SP),R9
 2002b18:	48 40 00 84 	AND        $132,R9
 2002b1c:	78 88 00 0c 	BZ         @0x02002b2c    // 2002b2c <_vfprintf_r+0x10fc>
 2002b20:	2c 87 40 94 	LW         148(SP),R5
 2002b24:	0c 87 40 2c 	LW         44(SP),R1
 2002b28:	78 80 00 ec 	BRA        @0x02002c18    // 2002c18 <_vfprintf_r+0x11e8>
 2002b2c:	ac 38 8c 1c 	LW         56(SP),R5      | LW         28(SP),R1
 2002b30:	a8 88 ab 01 	SUB        R1,R5          | CMP        $1,R5
 2002b34:	78 b0 00 0c 	BGE        @0x02002b44    // 2002b44 <_vfprintf_r+0x1114>
 2002b38:	2c 87 40 94 	LW         148(SP),R5
 2002b3c:	0c 87 40 2c 	LW         44(SP),R1
 2002b40:	78 80 00 d4 	BRA        @0x02002c18    // 2002c18 <_vfprintf_r+0x11e8>
 2002b44:	2c 00 00 11 	CMP        $17,R5
 2002b48:	78 b0 00 0c 	BGE        @0x02002b58    // 2002b58 <_vfprintf_r+0x1128>
 2002b4c:	14 87 40 94 	LW         148(SP),R2
 2002b50:	0c 87 40 90 	LW         144(SP),R1
 2002b54:	78 80 00 5c 	BRA        @0x02002bb4    // 2002bb4 <_vfprintf_r+0x1184>
 2002b58:	14 87 40 94 	LW         148(SP),R2
 2002b5c:	0c 87 40 90 	LW         144(SP),R1
 2002b60:	1a 03 00 40 	LDI        0x0200e400,R3  // 200e400 <blanks.4493>
 2002b64:	1a 40 e4 00 
 2002b68:	9d d8 a6 10 	SW         R3,(R11)       | LDI        $16,R4
 2002b6c:	24 c6 c0 04 	SW         R4,$4(R11)
 2002b70:	10 85 00 00 	ADD        R4,R2
 2002b74:	14 c7 40 94 	SW         R2,$148(SP)
 2002b78:	08 80 00 01 	ADD        $1,R1
 2002b7c:	0c c7 40 90 	SW         R1,$144(SP)
 2002b80:	da 08 8b 08 	ADD        $8,R11         | CMP        $8,R1
 2002b84:	78 90 00 24 	BLT        @0x02002bac    // 2002bac <_vfprintf_r+0x117c>
 2002b88:	1b 43 40 8c 	MOV        $140+SP,R3
 2002b8c:	97 c0 8f e0 	MOV        R8,R2          | MOV        R12,R1
 2002b90:	87 fa fc f8 	JSR        0x02009b94     // 2009b94 <__sprint_r>
 2002b94:	02 00 9b 94 
 2002b98:	0c 00 00 00 	CMP        $0,R1
 2002b9c:	78 a8 0c 88 	BNZ        @0x02003828    // 2003828 <_vfprintf_r+0x1df8>
 2002ba0:	14 87 40 94 	LW         148(SP),R2
 2002ba4:	0c 87 40 90 	LW         144(SP),R1
 2002ba8:	5b 43 40 c0 	MOV        $192+SP,R11
 2002bac:	aa 70 ab 11 	ADD        $-16,R5        | CMP        $17,R5
 2002bb0:	78 b3 ff ac 	BGE        @0x02002b60    // 2002b60 <_vfprintf_r+0x1130>
 2002bb4:	1a 03 00 40 	LDI        0x0200e400,R3  // 200e400 <blanks.4493>
 2002bb8:	1a 40 e4 00 
 2002bbc:	1c c6 c0 00 	SW         R3,(R11)
 2002bc0:	2c c6 c0 04 	SW         R5,$4(R11)
 2002bc4:	28 84 80 00 	ADD        R2,R5
 2002bc8:	2c c7 40 94 	SW         R5,$148(SP)
 2002bcc:	08 80 00 01 	ADD        $1,R1
 2002bd0:	0c c7 40 90 	SW         R1,$144(SP)
 2002bd4:	0c 00 00 08 	CMP        $8,R1
 2002bd8:	78 b0 00 10 	BGE        @0x02002bec    // 2002bec <_vfprintf_r+0x11bc>
 2002bdc:	58 80 00 08 	ADD        $8,R11
 2002be0:	25 87 40 71 	LB         113(SP),R4
 2002be4:	a5 2c 8f a0 	SW         R4,$44(SP)     | MOV        R4,R1
 2002be8:	78 80 00 2c 	BRA        @0x02002c18    // 2002c18 <_vfprintf_r+0x11e8>
 2002bec:	1b 43 40 8c 	MOV        $140+SP,R3
 2002bf0:	97 c0 8f e0 	MOV        R8,R2          | MOV        R12,R1
 2002bf4:	87 fa fc f8 	JSR        0x02009b94     // 2009b94 <__sprint_r>
 2002bf8:	02 00 9b 94 
 2002bfc:	0c 00 00 00 	CMP        $0,R1
 2002c00:	78 a8 0c 2c 	BNZ        @0x02003830    // 2003830 <_vfprintf_r+0x1e00>
 2002c04:	2d 87 40 71 	LB         113(SP),R5
 2002c08:	2c c7 40 2c 	SW         R5,$44(SP)
 2002c0c:	2c 87 40 94 	LW         148(SP),R5
 2002c10:	5b 43 40 c0 	MOV        $192+SP,R11
 2002c14:	0c 87 40 2c 	LW         44(SP),R1
 2002c18:	0c 00 00 00 	CMP        $0,R1
 2002c1c:	78 88 00 48 	BZ         @0x02002c68    // 2002c68 <_vfprintf_r+0x1238>
 2002c20:	13 43 40 71 	MOV        $113+SP,R2
 2002c24:	95 d8 9e 01 	SW         R2,(R11)       | LDI        $1,R3
 2002c28:	1c c6 c0 04 	SW         R3,$4(R11)
 2002c2c:	28 84 c0 00 	ADD        R3,R5
 2002c30:	2c c7 40 94 	SW         R5,$148(SP)
 2002c34:	0c 87 40 90 	LW         144(SP),R1
 2002c38:	08 84 c0 00 	ADD        R3,R1
 2002c3c:	0c c7 40 90 	SW         R1,$144(SP)
 2002c40:	da 08 8b 08 	ADD        $8,R11         | CMP        $8,R1
 2002c44:	78 90 00 20 	BLT        @0x02002c68    // 2002c68 <_vfprintf_r+0x1238>
 2002c48:	1b 43 40 8c 	MOV        $140+SP,R3
 2002c4c:	97 c0 8f e0 	MOV        R8,R2          | MOV        R12,R1
 2002c50:	87 fa fc f8 	JSR        0x02009b94     // 2009b94 <__sprint_r>
 2002c54:	02 00 9b 94 
 2002c58:	0c 00 00 00 	CMP        $0,R1
 2002c5c:	78 a8 0b d8 	BNZ        @0x02003838    // 2003838 <_vfprintf_r+0x1e08>
 2002c60:	2c 87 40 94 	LW         148(SP),R5
 2002c64:	5b 43 40 c0 	MOV        $192+SP,R11
 2002c68:	a4 3c a3 00 	LW         60(SP),R4      | CMP        $0,R4
 2002c6c:	78 88 00 48 	BZ         @0x02002cb8    // 2002cb8 <_vfprintf_r+0x1288>
 2002c70:	0b 43 40 72 	MOV        $114+SP,R1
 2002c74:	8d d8 96 02 	SW         R1,(R11)       | LDI        $2,R2
 2002c78:	14 c6 c0 04 	SW         R2,$4(R11)
 2002c7c:	28 84 80 00 	ADD        R2,R5
 2002c80:	2c c7 40 94 	SW         R5,$148(SP)
 2002c84:	0c 87 40 90 	LW         144(SP),R1
 2002c88:	08 80 00 01 	ADD        $1,R1
 2002c8c:	0c c7 40 90 	SW         R1,$144(SP)
 2002c90:	da 08 8b 08 	ADD        $8,R11         | CMP        $8,R1
 2002c94:	78 90 00 20 	BLT        @0x02002cb8    // 2002cb8 <_vfprintf_r+0x1288>
 2002c98:	1b 43 40 8c 	MOV        $140+SP,R3
 2002c9c:	97 c0 8f e0 	MOV        R8,R2          | MOV        R12,R1
 2002ca0:	87 fa fc f8 	JSR        0x02009b94     // 2009b94 <__sprint_r>
 2002ca4:	02 00 9b 94 
 2002ca8:	0c 00 00 00 	CMP        $0,R1
 2002cac:	78 a8 0b 90 	BNZ        @0x02003840    // 2003840 <_vfprintf_r+0x1e10>
 2002cb0:	2c 87 40 94 	LW         148(SP),R5
 2002cb4:	5b 43 40 c0 	MOV        $192+SP,R11
 2002cb8:	4c 00 00 80 	CMP        $128,R9
 2002cbc:	78 a8 00 b8 	BNZ        @0x02002d78    // 2002d78 <_vfprintf_r+0x1348>
 2002cc0:	cc 38 9c 1c 	LW         56(SP),R9      | LW         28(SP),R3
 2002cc4:	c8 98 cb 01 	SUB        R3,R9          | CMP        $1,R9
 2002cc8:	78 90 00 ac 	BLT        @0x02002d78    // 2002d78 <_vfprintf_r+0x1348>
 2002ccc:	0c 87 40 90 	LW         144(SP),R1
 2002cd0:	4c 00 00 11 	CMP        $17,R9
 2002cd4:	78 90 00 58 	BLT        @0x02002d30    // 2002d30 <_vfprintf_r+0x1300>
 2002cd8:	0c 87 40 90 	LW         144(SP),R1
 2002cdc:	22 03 00 40 	LDI        0x0200e3f0,R4  // 200e3f0 <zeroes.4494>
 2002ce0:	22 40 e3 f0 
 2002ce4:	a5 d8 96 10 	SW         R4,(R11)       | LDI        $16,R2
 2002ce8:	14 c6 c0 04 	SW         R2,$4(R11)
 2002cec:	28 84 80 00 	ADD        R2,R5
 2002cf0:	2c c7 40 94 	SW         R5,$148(SP)
 2002cf4:	08 80 00 01 	ADD        $1,R1
 2002cf8:	0c c7 40 90 	SW         R1,$144(SP)
 2002cfc:	da 08 8b 08 	ADD        $8,R11         | CMP        $8,R1
 2002d00:	78 90 00 24 	BLT        @0x02002d28    // 2002d28 <_vfprintf_r+0x12f8>
 2002d04:	1b 43 40 8c 	MOV        $140+SP,R3
 2002d08:	97 c0 8f e0 	MOV        R8,R2          | MOV        R12,R1
 2002d0c:	87 fa fc f8 	JSR        0x02009b94     // 2009b94 <__sprint_r>
 2002d10:	02 00 9b 94 
 2002d14:	0c 00 00 00 	CMP        $0,R1
 2002d18:	78 a8 0b 2c 	BNZ        @0x02003848    // 2003848 <_vfprintf_r+0x1e18>
 2002d1c:	2c 87 40 94 	LW         148(SP),R5
 2002d20:	0c 87 40 90 	LW         144(SP),R1
 2002d24:	5b 43 40 c0 	MOV        $192+SP,R11
 2002d28:	ca 70 cb 11 	ADD        $-16,R9        | CMP        $17,R9
 2002d2c:	78 b3 ff ac 	BGE        @0x02002cdc    // 2002cdc <_vfprintf_r+0x12ac>
 2002d30:	1a 03 00 40 	LDI        0x0200e3f0,R3  // 200e3f0 <zeroes.4494>
 2002d34:	1a 40 e3 f0 
 2002d38:	1c c6 c0 00 	SW         R3,(R11)
 2002d3c:	4c c6 c0 04 	SW         R9,$4(R11)
 2002d40:	28 86 40 00 	ADD        R9,R5
 2002d44:	2c c7 40 94 	SW         R5,$148(SP)
 2002d48:	08 80 00 01 	ADD        $1,R1
 2002d4c:	0c c7 40 90 	SW         R1,$144(SP)
 2002d50:	da 08 8b 08 	ADD        $8,R11         | CMP        $8,R1
 2002d54:	78 90 00 20 	BLT        @0x02002d78    // 2002d78 <_vfprintf_r+0x1348>
 2002d58:	1b 43 40 8c 	MOV        $140+SP,R3
 2002d5c:	97 c0 8f e0 	MOV        R8,R2          | MOV        R12,R1
 2002d60:	87 fa fc f8 	JSR        0x02009b94     // 2009b94 <__sprint_r>
 2002d64:	02 00 9b 94 
 2002d68:	0c 00 00 00 	CMP        $0,R1
 2002d6c:	78 a8 0a e0 	BNZ        @0x02003850    // 2003850 <_vfprintf_r+0x1e20>
 2002d70:	2c 87 40 94 	LW         148(SP),R5
 2002d74:	5b 43 40 c0 	MOV        $192+SP,R11
 2002d78:	a4 24 b0 a0 	LW         36(SP),R4      | SUB        R4,R6
 2002d7c:	34 00 00 01 	CMP        $1,R6
 2002d80:	78 90 00 ac 	BLT        @0x02002e30    // 2002e30 <_vfprintf_r+0x1400>
 2002d84:	0c 87 40 90 	LW         144(SP),R1
 2002d88:	34 00 00 11 	CMP        $17,R6
 2002d8c:	78 90 00 58 	BLT        @0x02002de8    // 2002de8 <_vfprintf_r+0x13b8>
 2002d90:	0c 87 40 90 	LW         144(SP),R1
 2002d94:	12 03 00 40 	LDI        0x0200e3f0,R2  // 200e3f0 <zeroes.4494>
 2002d98:	12 40 e3 f0 
 2002d9c:	95 d8 9e 10 	SW         R2,(R11)       | LDI        $16,R3
 2002da0:	1c c6 c0 04 	SW         R3,$4(R11)
 2002da4:	28 84 c0 00 	ADD        R3,R5
 2002da8:	2c c7 40 94 	SW         R5,$148(SP)
 2002dac:	08 80 00 01 	ADD        $1,R1
 2002db0:	0c c7 40 90 	SW         R1,$144(SP)
 2002db4:	da 08 8b 08 	ADD        $8,R11         | CMP        $8,R1
 2002db8:	78 90 00 24 	BLT        @0x02002de0    // 2002de0 <_vfprintf_r+0x13b0>
 2002dbc:	1b 43 40 8c 	MOV        $140+SP,R3
 2002dc0:	97 c0 8f e0 	MOV        R8,R2          | MOV        R12,R1
 2002dc4:	87 fa fc f8 	JSR        0x02009b94     // 2009b94 <__sprint_r>
 2002dc8:	02 00 9b 94 
 2002dcc:	0c 00 00 00 	CMP        $0,R1
 2002dd0:	78 a8 0a 84 	BNZ        @0x02003858    // 2003858 <_vfprintf_r+0x1e28>
 2002dd4:	2c 87 40 94 	LW         148(SP),R5
 2002dd8:	0c 87 40 90 	LW         144(SP),R1
 2002ddc:	5b 43 40 c0 	MOV        $192+SP,R11
 2002de0:	b2 70 b3 11 	ADD        $-16,R6        | CMP        $17,R6
 2002de4:	78 b3 ff ac 	BGE        @0x02002d94    // 2002d94 <_vfprintf_r+0x1364>
 2002de8:	22 03 00 40 	LDI        0x0200e3f0,R4  // 200e3f0 <zeroes.4494>
 2002dec:	22 40 e3 f0 
 2002df0:	24 c6 c0 00 	SW         R4,(R11)
 2002df4:	34 c6 c0 04 	SW         R6,$4(R11)
 2002df8:	28 85 80 00 	ADD        R6,R5
 2002dfc:	2c c7 40 94 	SW         R5,$148(SP)
 2002e00:	08 80 00 01 	ADD        $1,R1
 2002e04:	0c c7 40 90 	SW         R1,$144(SP)
 2002e08:	da 08 8b 08 	ADD        $8,R11         | CMP        $8,R1
 2002e0c:	78 90 00 20 	BLT        @0x02002e30    // 2002e30 <_vfprintf_r+0x1400>
 2002e10:	1b 43 40 8c 	MOV        $140+SP,R3
 2002e14:	97 c0 8f e0 	MOV        R8,R2          | MOV        R12,R1
 2002e18:	87 fa fc f8 	JSR        0x02009b94     // 2009b94 <__sprint_r>
 2002e1c:	02 00 9b 94 
 2002e20:	0c 00 00 00 	CMP        $0,R1
 2002e24:	78 a8 0a 38 	BNZ        @0x02003860    // 2003860 <_vfprintf_r+0x1e30>
 2002e28:	2c 87 40 94 	LW         148(SP),R5
 2002e2c:	5b 43 40 c0 	MOV        $192+SP,R11
 2002e30:	0c 87 40 20 	LW         32(SP),R1
 2002e34:	08 40 01 00 	AND        $256,R1
 2002e38:	78 a8 00 4c 	BNZ        @0x02002e88    // 2002e88 <_vfprintf_r+0x1458>
 2002e3c:	3c 87 40 48 	LW         72(SP),R7
 2002e40:	bd d8 a4 24 	SW         R7,(R11)       | LW         36(SP),R4
 2002e44:	24 c6 c0 04 	SW         R4,$4(R11)
 2002e48:	28 85 00 00 	ADD        R4,R5
 2002e4c:	2c c7 40 94 	SW         R5,$148(SP)
 2002e50:	0c 87 40 90 	LW         144(SP),R1
 2002e54:	08 80 00 01 	ADD        $1,R1
 2002e58:	0c c7 40 90 	SW         R1,$144(SP)
 2002e5c:	da 08 8b 08 	ADD        $8,R11         | CMP        $8,R1
 2002e60:	78 90 08 90 	BLT        @0x020036f4    // 20036f4 <_vfprintf_r+0x1cc4>
 2002e64:	1b 43 40 8c 	MOV        $140+SP,R3
 2002e68:	97 c0 8f e0 	MOV        R8,R2          | MOV        R12,R1
 2002e6c:	87 fa fc f8 	JSR        0x02009b94     // 2009b94 <__sprint_r>
 2002e70:	02 00 9b 94 
 2002e74:	0c 00 00 00 	CMP        $0,R1
 2002e78:	78 a8 09 ec 	BNZ        @0x02003868    // 2003868 <_vfprintf_r+0x1e38>
 2002e7c:	2c 87 40 94 	LW         148(SP),R5
 2002e80:	5b 43 40 c0 	MOV        $192+SP,R11
 2002e84:	78 80 08 6c 	BRA        @0x020036f4    // 20036f4 <_vfprintf_r+0x1cc4>
 2002e88:	3c 00 00 66 	CMP        $102,R7
 2002e8c:	78 90 06 04 	BLT        @0x02003494    // 2003494 <_vfprintf_r+0x1a64>
 2002e90:	9e 00 a6 00 	CLR        R3             | CLR        R4
 2002e94:	0c 87 40 58 	LW         88(SP),R1
 2002e98:	14 87 40 54 	LW         84(SP),R2
 2002e9c:	87 fa fc f8 	JSR        0x0200d6fc     // 200d6fc <__eqdf2>
 2002ea0:	02 00 d6 fc 
 2002ea4:	0c 00 00 00 	CMP        $0,R1
 2002ea8:	78 a8 01 70 	BNZ        @0x0200301c    // 200301c <_vfprintf_r+0x15ec>
 2002eac:	3a 03 00 40 	LDI        0x0200e3ec,R7  // 200e3ec <_global_impure_ptr+0x48>
 2002eb0:	3a 40 e3 ec 
 2002eb4:	bd d8 8e 01 	SW         R7,(R11)       | LDI        $1,R1
 2002eb8:	0c c6 c0 04 	SW         R1,$4(R11)
 2002ebc:	28 84 40 00 	ADD        R1,R5
 2002ec0:	2c c7 40 94 	SW         R5,$148(SP)
 2002ec4:	0c 87 40 90 	LW         144(SP),R1
 2002ec8:	08 80 00 01 	ADD        $1,R1
 2002ecc:	0c c7 40 90 	SW         R1,$144(SP)
 2002ed0:	da 08 8b 08 	ADD        $8,R11         | CMP        $8,R1
 2002ed4:	78 90 00 1c 	BLT        @0x02002ef4    // 2002ef4 <_vfprintf_r+0x14c4>
 2002ed8:	1b 43 40 8c 	MOV        $140+SP,R3
 2002edc:	97 c0 8f e0 	MOV        R8,R2          | MOV        R12,R1
 2002ee0:	87 fa fc f8 	JSR        0x02009b94     // 2009b94 <__sprint_r>
 2002ee4:	02 00 9b 94 
 2002ee8:	0c 00 00 00 	CMP        $0,R1
 2002eec:	78 a8 09 80 	BNZ        @0x02003870    // 2003870 <_vfprintf_r+0x1e40>
 2002ef0:	5b 43 40 c0 	MOV        $192+SP,R11
 2002ef4:	0c 87 40 74 	LW         116(SP),R1
 2002ef8:	ac 34 8b a8 	LW         52(SP),R5      | CMP        R5,R1
 2002efc:	78 90 00 10 	BLT        @0x02002f10    // 2002f10 <_vfprintf_r+0x14e0>
 2002f00:	8c 20 89 01 	LW         32(SP),R1      | AND        $1,R1
 2002f04:	78 a8 00 08 	BNZ        @0x02002f10    // 2002f10 <_vfprintf_r+0x14e0>
 2002f08:	2c 87 40 94 	LW         148(SP),R5
 2002f0c:	78 80 07 e4 	BRA        @0x020036f4    // 20036f4 <_vfprintf_r+0x1cc4>
 2002f10:	3c 87 40 50 	LW         80(SP),R7
 2002f14:	3c c6 c0 00 	SW         R7,(R11)
 2002f18:	3c 87 40 5c 	LW         92(SP),R7
 2002f1c:	3c c6 c0 04 	SW         R7,$4(R11)
 2002f20:	0c 87 40 94 	LW         148(SP),R1
 2002f24:	af b8 aa 88 	MOV        R7,R5          | ADD        R1,R5
 2002f28:	2c c7 40 94 	SW         R5,$148(SP)
 2002f2c:	0c 87 40 90 	LW         144(SP),R1
 2002f30:	08 80 00 01 	ADD        $1,R1
 2002f34:	0c c7 40 90 	SW         R1,$144(SP)
 2002f38:	da 08 8b 08 	ADD        $8,R11         | CMP        $8,R1
 2002f3c:	78 90 00 20 	BLT        @0x02002f60    // 2002f60 <_vfprintf_r+0x1530>
 2002f40:	1b 43 40 8c 	MOV        $140+SP,R3
 2002f44:	97 c0 8f e0 	MOV        R8,R2          | MOV        R12,R1
 2002f48:	87 fa fc f8 	JSR        0x02009b94     // 2009b94 <__sprint_r>
 2002f4c:	02 00 9b 94 
 2002f50:	0c 00 00 00 	CMP        $0,R1
 2002f54:	78 a8 09 20 	BNZ        @0x02003878    // 2003878 <_vfprintf_r+0x1e48>
 2002f58:	2c 87 40 94 	LW         148(SP),R5
 2002f5c:	5b 43 40 c0 	MOV        $192+SP,R11
 2002f60:	b4 34 b2 7f 	LW         52(SP),R6      | ADD        $-1,R6
 2002f64:	34 00 00 01 	CMP        $1,R6
 2002f68:	78 90 07 88 	BLT        @0x020036f4    // 20036f4 <_vfprintf_r+0x1cc4>
 2002f6c:	0c 87 40 90 	LW         144(SP),R1
 2002f70:	34 00 00 11 	CMP        $17,R6
 2002f74:	78 90 00 58 	BLT        @0x02002fd0    // 2002fd0 <_vfprintf_r+0x15a0>
 2002f78:	0c 87 40 90 	LW         144(SP),R1
 2002f7c:	12 03 00 40 	LDI        0x0200e3f0,R2  // 200e3f0 <zeroes.4494>
 2002f80:	12 40 e3 f0 
 2002f84:	95 d8 9e 10 	SW         R2,(R11)       | LDI        $16,R3
 2002f88:	1c c6 c0 04 	SW         R3,$4(R11)
 2002f8c:	28 84 c0 00 	ADD        R3,R5
 2002f90:	2c c7 40 94 	SW         R5,$148(SP)
 2002f94:	08 80 00 01 	ADD        $1,R1
 2002f98:	0c c7 40 90 	SW         R1,$144(SP)
 2002f9c:	da 08 8b 08 	ADD        $8,R11         | CMP        $8,R1
 2002fa0:	78 90 00 24 	BLT        @0x02002fc8    // 2002fc8 <_vfprintf_r+0x1598>
 2002fa4:	1b 43 40 8c 	MOV        $140+SP,R3
 2002fa8:	97 c0 8f e0 	MOV        R8,R2          | MOV        R12,R1
 2002fac:	87 fa fc f8 	JSR        0x02009b94     // 2009b94 <__sprint_r>
 2002fb0:	02 00 9b 94 
 2002fb4:	0c 00 00 00 	CMP        $0,R1
 2002fb8:	78 a8 08 c4 	BNZ        @0x02003880    // 2003880 <_vfprintf_r+0x1e50>
 2002fbc:	2c 87 40 94 	LW         148(SP),R5
 2002fc0:	0c 87 40 90 	LW         144(SP),R1
 2002fc4:	5b 43 40 c0 	MOV        $192+SP,R11
 2002fc8:	b2 70 b3 11 	ADD        $-16,R6        | CMP        $17,R6
 2002fcc:	78 b3 ff ac 	BGE        @0x02002f7c    // 2002f7c <_vfprintf_r+0x154c>
 2002fd0:	22 03 00 40 	LDI        0x0200e3f0,R4  // 200e3f0 <zeroes.4494>
 2002fd4:	22 40 e3 f0 
 2002fd8:	24 c6 c0 00 	SW         R4,(R11)
 2002fdc:	34 c6 c0 04 	SW         R6,$4(R11)
 2002fe0:	28 85 80 00 	ADD        R6,R5
 2002fe4:	2c c7 40 94 	SW         R5,$148(SP)
 2002fe8:	08 80 00 01 	ADD        $1,R1
 2002fec:	0c c7 40 90 	SW         R1,$144(SP)
 2002ff0:	da 08 8b 08 	ADD        $8,R11         | CMP        $8,R1
 2002ff4:	78 90 06 fc 	BLT        @0x020036f4    // 20036f4 <_vfprintf_r+0x1cc4>
 2002ff8:	1b 43 40 8c 	MOV        $140+SP,R3
 2002ffc:	97 c0 8f e0 	MOV        R8,R2          | MOV        R12,R1
 2003000:	87 fa fc f8 	JSR        0x02009b94     // 2009b94 <__sprint_r>
 2003004:	02 00 9b 94 
 2003008:	0c 00 00 00 	CMP        $0,R1
 200300c:	78 a8 08 78 	BNZ        @0x02003888    // 2003888 <_vfprintf_r+0x1e58>
 2003010:	2c 87 40 94 	LW         148(SP),R5
 2003014:	5b 43 40 c0 	MOV        $192+SP,R11
 2003018:	78 80 06 d8 	BRA        @0x020036f4    // 20036f4 <_vfprintf_r+0x1cc4>
 200301c:	14 87 40 74 	LW         116(SP),R2
 2003020:	14 00 00 01 	CMP        $1,R2
 2003024:	78 b0 01 b8 	BGE        @0x020031e0    // 20031e0 <_vfprintf_r+0x17b0>
 2003028:	3a 03 00 40 	LDI        0x0200e3ec,R7  // 200e3ec <_global_impure_ptr+0x48>
 200302c:	3a 40 e3 ec 
 2003030:	bd d8 8e 01 	SW         R7,(R11)       | LDI        $1,R1
 2003034:	0c c6 c0 04 	SW         R1,$4(R11)
 2003038:	28 84 40 00 	ADD        R1,R5
 200303c:	2c c7 40 94 	SW         R5,$148(SP)
 2003040:	0c 87 40 90 	LW         144(SP),R1
 2003044:	08 80 00 01 	ADD        $1,R1
 2003048:	0c c7 40 90 	SW         R1,$144(SP)
 200304c:	da 08 8b 08 	ADD        $8,R11         | CMP        $8,R1
 2003050:	78 90 00 24 	BLT        @0x02003078    // 2003078 <_vfprintf_r+0x1648>
 2003054:	1b 43 40 8c 	MOV        $140+SP,R3
 2003058:	97 c0 8f e0 	MOV        R8,R2          | MOV        R12,R1
 200305c:	87 fa fc f8 	JSR        0x02009b94     // 2009b94 <__sprint_r>
 2003060:	02 00 9b 94 
 2003064:	0c 00 00 00 	CMP        $0,R1
 2003068:	78 a8 08 24 	BNZ        @0x02003890    // 2003890 <_vfprintf_r+0x1e60>
 200306c:	14 87 40 74 	LW         116(SP),R2
 2003070:	2c 87 40 94 	LW         148(SP),R5
 2003074:	5b 43 40 c0 	MOV        $192+SP,R11
 2003078:	0c 87 40 34 	LW         52(SP),R1
 200307c:	08 c4 80 00 	OR         R2,R1
 2003080:	78 a8 00 08 	BNZ        @0x0200308c    // 200308c <_vfprintf_r+0x165c>
 2003084:	8c 20 89 01 	LW         32(SP),R1      | AND        $1,R1
 2003088:	78 88 06 68 	BZ         @0x020036f4    // 20036f4 <_vfprintf_r+0x1cc4>
 200308c:	3c 87 40 50 	LW         80(SP),R7
 2003090:	3c c6 c0 00 	SW         R7,(R11)
 2003094:	3c 87 40 5c 	LW         92(SP),R7
 2003098:	3c c6 c0 04 	SW         R7,$4(R11)
 200309c:	9f b8 9a a8 	MOV        R7,R3          | ADD        R5,R3
 20030a0:	1c c7 40 94 	SW         R3,$148(SP)
 20030a4:	0c 87 40 90 	LW         144(SP),R1
 20030a8:	08 80 00 01 	ADD        $1,R1
 20030ac:	0c c7 40 90 	SW         R1,$144(SP)
 20030b0:	da 08 8b 08 	ADD        $8,R11         | CMP        $8,R1
 20030b4:	78 90 00 28 	BLT        @0x020030e0    // 20030e0 <_vfprintf_r+0x16b0>
 20030b8:	1b 43 40 8c 	MOV        $140+SP,R3
 20030bc:	97 c0 8f e0 	MOV        R8,R2          | MOV        R12,R1
 20030c0:	87 fa fc f8 	JSR        0x02009b94     // 2009b94 <__sprint_r>
 20030c4:	02 00 9b 94 
 20030c8:	0c 00 00 00 	CMP        $0,R1
 20030cc:	78 a8 07 c8 	BNZ        @0x02003898    // 2003898 <_vfprintf_r+0x1e68>
 20030d0:	14 87 40 74 	LW         116(SP),R2
 20030d4:	1c 87 40 94 	LW         148(SP),R3
 20030d8:	0c 87 40 90 	LW         144(SP),R1
 20030dc:	5b 43 40 c0 	MOV        $192+SP,R11
 20030e0:	14 00 00 00 	CMP        $0,R2
 20030e4:	78 b0 00 b0 	BGE        @0x02003198    // 2003198 <_vfprintf_r+0x1768>
 20030e8:	2b 40 9f ff 	MOV        $-1+R2,R5
 20030ec:	29 03 ff ff 	XOR        $-1,R5
 20030f0:	14 03 ff f0 	CMP        $-16,R2
 20030f4:	78 b0 00 54 	BGE        @0x0200314c    // 200314c <_vfprintf_r+0x171c>
 20030f8:	12 03 00 40 	LDI        0x0200e3f0,R2  // 200e3f0 <zeroes.4494>
 20030fc:	12 40 e3 f0 
 2003100:	95 d8 a6 10 	SW         R2,(R11)       | LDI        $16,R4
 2003104:	24 c6 c0 04 	SW         R4,$4(R11)
 2003108:	18 85 00 00 	ADD        R4,R3
 200310c:	1c c7 40 94 	SW         R3,$148(SP)
 2003110:	08 80 00 01 	ADD        $1,R1
 2003114:	0c c7 40 90 	SW         R1,$144(SP)
 2003118:	da 08 8b 08 	ADD        $8,R11         | CMP        $8,R1
 200311c:	78 90 00 24 	BLT        @0x02003144    // 2003144 <_vfprintf_r+0x1714>
 2003120:	1b 43 40 8c 	MOV        $140+SP,R3
 2003124:	97 c0 8f e0 	MOV        R8,R2          | MOV        R12,R1
 2003128:	87 fa fc f8 	JSR        0x02009b94     // 2009b94 <__sprint_r>
 200312c:	02 00 9b 94 
 2003130:	0c 00 00 00 	CMP        $0,R1
 2003134:	78 a8 07 68 	BNZ        @0x020038a0    // 20038a0 <_vfprintf_r+0x1e70>
 2003138:	1c 87 40 94 	LW         148(SP),R3
 200313c:	0c 87 40 90 	LW         144(SP),R1
 2003140:	5b 43 40 c0 	MOV        $192+SP,R11
 2003144:	aa 70 ab 11 	ADD        $-16,R5        | CMP        $17,R5
 2003148:	78 b3 ff ac 	BGE        @0x020030f8    // 20030f8 <_vfprintf_r+0x16c8>
 200314c:	3a 03 00 40 	LDI        0x0200e3f0,R7  // 200e3f0 <zeroes.4494>
 2003150:	3a 40 e3 f0 
 2003154:	3c c6 c0 00 	SW         R7,(R11)
 2003158:	2c c6 c0 04 	SW         R5,$4(R11)
 200315c:	18 85 40 00 	ADD        R5,R3
 2003160:	1c c7 40 94 	SW         R3,$148(SP)
 2003164:	da 08 8a 01 	ADD        $8,R11         | ADD        $1,R1
 2003168:	0c c7 40 90 	SW         R1,$144(SP)
 200316c:	0c 00 00 08 	CMP        $8,R1
 2003170:	78 90 00 24 	BLT        @0x02003198    // 2003198 <_vfprintf_r+0x1768>
 2003174:	1b 43 40 8c 	MOV        $140+SP,R3
 2003178:	97 c0 8f e0 	MOV        R8,R2          | MOV        R12,R1
 200317c:	87 fa fc f8 	JSR        0x02009b94     // 2009b94 <__sprint_r>
 2003180:	02 00 9b 94 
 2003184:	0c 00 00 00 	CMP        $0,R1
 2003188:	78 a8 07 1c 	BNZ        @0x020038a8    // 20038a8 <_vfprintf_r+0x1e78>
 200318c:	1c 87 40 94 	LW         148(SP),R3
 2003190:	0c 87 40 90 	LW         144(SP),R1
 2003194:	5b 43 40 c0 	MOV        $192+SP,R11
 2003198:	2c 87 40 48 	LW         72(SP),R5
 200319c:	ad d8 bc 34 	SW         R5,(R11)       | LW         52(SP),R7
 20031a0:	3c c6 c0 04 	SW         R7,$4(R11)
 20031a4:	af b8 aa 98 	MOV        R7,R5          | ADD        R3,R5
 20031a8:	2c c7 40 94 	SW         R5,$148(SP)
 20031ac:	08 80 00 01 	ADD        $1,R1
 20031b0:	0c c7 40 90 	SW         R1,$144(SP)
 20031b4:	da 08 8b 08 	ADD        $8,R11         | CMP        $8,R1
 20031b8:	78 90 05 38 	BLT        @0x020036f4    // 20036f4 <_vfprintf_r+0x1cc4>
 20031bc:	1b 43 40 8c 	MOV        $140+SP,R3
 20031c0:	97 c0 8f e0 	MOV        R8,R2          | MOV        R12,R1
 20031c4:	87 fa fc f8 	JSR        0x02009b94     // 2009b94 <__sprint_r>
 20031c8:	02 00 9b 94 
 20031cc:	0c 00 00 00 	CMP        $0,R1
 20031d0:	78 a8 06 dc 	BNZ        @0x020038b0    // 20038b0 <_vfprintf_r+0x1e80>
 20031d4:	2c 87 40 94 	LW         148(SP),R5
 20031d8:	5b 43 40 c0 	MOV        $192+SP,R11
 20031dc:	78 80 05 14 	BRA        @0x020036f4    // 20036f4 <_vfprintf_r+0x1cc4>
 20031e0:	34 87 40 4c 	LW         76(SP),R6
 20031e4:	bc 34 b3 b8 	LW         52(SP),R7      | CMP        R7,R6
 20031e8:	33 71 c0 00 	MOV.GE     R7,R6
 20031ec:	34 00 00 01 	CMP        $1,R6
 20031f0:	78 90 00 48 	BLT        @0x0200323c    // 200323c <_vfprintf_r+0x180c>
 20031f4:	3c 87 40 48 	LW         72(SP),R7
 20031f8:	3c c6 c0 00 	SW         R7,(R11)
 20031fc:	34 c6 c0 04 	SW         R6,$4(R11)
 2003200:	28 85 80 00 	ADD        R6,R5
 2003204:	2c c7 40 94 	SW         R5,$148(SP)
 2003208:	0c 87 40 90 	LW         144(SP),R1
 200320c:	08 80 00 01 	ADD        $1,R1
 2003210:	0c c7 40 90 	SW         R1,$144(SP)
 2003214:	da 08 8b 08 	ADD        $8,R11         | CMP        $8,R1
 2003218:	78 90 00 20 	BLT        @0x0200323c    // 200323c <_vfprintf_r+0x180c>
 200321c:	1b 43 40 8c 	MOV        $140+SP,R3
 2003220:	97 c0 8f e0 	MOV        R8,R2          | MOV        R12,R1
 2003224:	87 fa fc f8 	JSR        0x02009b94     // 2009b94 <__sprint_r>
 2003228:	02 00 9b 94 
 200322c:	0c 00 00 00 	CMP        $0,R1
 2003230:	78 a8 06 84 	BNZ        @0x020038b8    // 20038b8 <_vfprintf_r+0x1e88>
 2003234:	2c 87 40 94 	LW         148(SP),R5
 2003238:	5b 43 40 c0 	MOV        $192+SP,R11
 200323c:	8e 00 8b b0 	CLR        R1             | CMP        R6,R1
 2003240:	0b 51 80 00 	MOV.LT     R6,R1
 2003244:	34 87 40 4c 	LW         76(SP),R6
 2003248:	b0 88 b3 01 	SUB        R1,R6          | CMP        $1,R6
 200324c:	78 90 00 ac 	BLT        @0x020032fc    // 20032fc <_vfprintf_r+0x18cc>
 2003250:	0c 87 40 90 	LW         144(SP),R1
 2003254:	34 00 00 11 	CMP        $17,R6
 2003258:	78 90 00 58 	BLT        @0x020032b4    // 20032b4 <_vfprintf_r+0x1884>
 200325c:	0c 87 40 90 	LW         144(SP),R1
 2003260:	12 03 00 40 	LDI        0x0200e3f0,R2  // 200e3f0 <zeroes.4494>
 2003264:	12 40 e3 f0 
 2003268:	95 d8 9e 10 	SW         R2,(R11)       | LDI        $16,R3
 200326c:	1c c6 c0 04 	SW         R3,$4(R11)
 2003270:	28 84 c0 00 	ADD        R3,R5
 2003274:	2c c7 40 94 	SW         R5,$148(SP)
 2003278:	08 80 00 01 	ADD        $1,R1
 200327c:	0c c7 40 90 	SW         R1,$144(SP)
 2003280:	da 08 8b 08 	ADD        $8,R11         | CMP        $8,R1
 2003284:	78 90 00 24 	BLT        @0x020032ac    // 20032ac <_vfprintf_r+0x187c>
 2003288:	1b 43 40 8c 	MOV        $140+SP,R3
 200328c:	97 c0 8f e0 	MOV        R8,R2          | MOV        R12,R1
 2003290:	87 fa fc f8 	JSR        0x02009b94     // 2009b94 <__sprint_r>
 2003294:	02 00 9b 94 
 2003298:	0c 00 00 00 	CMP        $0,R1
 200329c:	78 a8 06 20 	BNZ        @0x020038c0    // 20038c0 <_vfprintf_r+0x1e90>
 20032a0:	2c 87 40 94 	LW         148(SP),R5
 20032a4:	0c 87 40 90 	LW         144(SP),R1
 20032a8:	5b 43 40 c0 	MOV        $192+SP,R11
 20032ac:	b2 70 b3 11 	ADD        $-16,R6        | CMP        $17,R6
 20032b0:	78 b3 ff ac 	BGE        @0x02003260    // 2003260 <_vfprintf_r+0x1830>
 20032b4:	22 03 00 40 	LDI        0x0200e3f0,R4  // 200e3f0 <zeroes.4494>
 20032b8:	22 40 e3 f0 
 20032bc:	24 c6 c0 00 	SW         R4,(R11)
 20032c0:	34 c6 c0 04 	SW         R6,$4(R11)
 20032c4:	28 85 80 00 	ADD        R6,R5
 20032c8:	2c c7 40 94 	SW         R5,$148(SP)
 20032cc:	08 80 00 01 	ADD        $1,R1
 20032d0:	0c c7 40 90 	SW         R1,$144(SP)
 20032d4:	da 08 8b 08 	ADD        $8,R11         | CMP        $8,R1
 20032d8:	78 90 00 20 	BLT        @0x020032fc    // 20032fc <_vfprintf_r+0x18cc>
 20032dc:	1b 43 40 8c 	MOV        $140+SP,R3
 20032e0:	97 c0 8f e0 	MOV        R8,R2          | MOV        R12,R1
 20032e4:	87 fa fc f8 	JSR        0x02009b94     // 2009b94 <__sprint_r>
 20032e8:	02 00 9b 94 
 20032ec:	0c 00 00 00 	CMP        $0,R1
 20032f0:	78 a8 05 d4 	BNZ        @0x020038c8    // 20038c8 <_vfprintf_r+0x1e98>
 20032f4:	2c 87 40 94 	LW         148(SP),R5
 20032f8:	5b 43 40 c0 	MOV        $192+SP,R11
 20032fc:	14 87 40 74 	LW         116(SP),R2
 2003300:	bc 34 93 b8 	LW         52(SP),R7      | CMP        R7,R2
 2003304:	78 90 00 08 	BLT        @0x02003310    // 2003310 <_vfprintf_r+0x18e0>
 2003308:	8c 20 89 01 	LW         32(SP),R1      | AND        $1,R1
 200330c:	78 88 00 5c 	BZ         @0x0200336c    // 200336c <_vfprintf_r+0x193c>
 2003310:	3c 87 40 50 	LW         80(SP),R7
 2003314:	3c c6 c0 00 	SW         R7,(R11)
 2003318:	3c 87 40 5c 	LW         92(SP),R7
 200331c:	3c c6 c0 04 	SW         R7,$4(R11)
 2003320:	28 85 c0 00 	ADD        R7,R5
 2003324:	2c c7 40 94 	SW         R5,$148(SP)
 2003328:	0c 87 40 90 	LW         144(SP),R1
 200332c:	08 80 00 01 	ADD        $1,R1
 2003330:	0c c7 40 90 	SW         R1,$144(SP)
 2003334:	0c 00 00 08 	CMP        $8,R1
 2003338:	78 b0 00 08 	BGE        @0x02003344    // 2003344 <_vfprintf_r+0x1914>
 200333c:	da 08 bc 34 	ADD        $8,R11         | LW         52(SP),R7
 2003340:	78 80 00 28 	BRA        @0x0200336c    // 200336c <_vfprintf_r+0x193c>
 2003344:	1b 43 40 8c 	MOV        $140+SP,R3
 2003348:	97 c0 8f e0 	MOV        R8,R2          | MOV        R12,R1
 200334c:	87 fa fc f8 	JSR        0x02009b94     // 2009b94 <__sprint_r>
 2003350:	02 00 9b 94 
 2003354:	0c 00 00 00 	CMP        $0,R1
 2003358:	78 a8 05 74 	BNZ        @0x020038d0    // 20038d0 <_vfprintf_r+0x1ea0>
 200335c:	14 87 40 74 	LW         116(SP),R2
 2003360:	2c 87 40 94 	LW         148(SP),R5
 2003364:	5b 43 40 c0 	MOV        $192+SP,R11
 2003368:	3c 87 40 34 	LW         52(SP),R7
 200336c:	0c 87 40 4c 	LW         76(SP),R1
 2003370:	b8 88 b4 34 	SUB        R1,R7          | LW         52(SP),R6
 2003374:	b0 90 bb b0 	SUB        R2,R6          | CMP        R6,R7
 2003378:	3b 71 80 00 	MOV.GE     R6,R7
 200337c:	3c 00 00 01 	CMP        $1,R7
 2003380:	78 90 00 50 	BLT        @0x020033d4    // 20033d4 <_vfprintf_r+0x19a4>
 2003384:	14 87 40 48 	LW         72(SP),R2
 2003388:	92 88 95 d8 	ADD        R1,R2          | SW         R2,(R11)
 200338c:	3c c6 c0 04 	SW         R7,$4(R11)
 2003390:	28 85 c0 00 	ADD        R7,R5
 2003394:	2c c7 40 94 	SW         R5,$148(SP)
 2003398:	0c 87 40 90 	LW         144(SP),R1
 200339c:	08 80 00 01 	ADD        $1,R1
 20033a0:	0c c7 40 90 	SW         R1,$144(SP)
 20033a4:	da 08 8b 08 	ADD        $8,R11         | CMP        $8,R1
 20033a8:	78 90 00 28 	BLT        @0x020033d4    // 20033d4 <_vfprintf_r+0x19a4>
 20033ac:	1b 43 40 8c 	MOV        $140+SP,R3
 20033b0:	97 c0 8f e0 	MOV        R8,R2          | MOV        R12,R1
 20033b4:	87 fa fc f8 	JSR        0x02009b94     // 2009b94 <__sprint_r>
 20033b8:	02 00 9b 94 
 20033bc:	0c 00 00 00 	CMP        $0,R1
 20033c0:	78 a8 05 14 	BNZ        @0x020038d8    // 20038d8 <_vfprintf_r+0x1ea8>
 20033c4:	0c 87 40 74 	LW         116(SP),R1
 20033c8:	b4 34 b0 88 	LW         52(SP),R6      | SUB        R1,R6
 20033cc:	2c 87 40 94 	LW         148(SP),R5
 20033d0:	5b 43 40 c0 	MOV        $192+SP,R11
 20033d4:	8e 00 bb 88 	CLR        R1             | CMP        R1,R7
 20033d8:	3b 50 40 00 	MOV.LT     R1,R7
 20033dc:	b0 b8 b3 01 	SUB        R7,R6          | CMP        $1,R6
 20033e0:	78 90 03 10 	BLT        @0x020036f4    // 20036f4 <_vfprintf_r+0x1cc4>
 20033e4:	0c 87 40 90 	LW         144(SP),R1
 20033e8:	34 00 00 11 	CMP        $17,R6
 20033ec:	78 90 00 58 	BLT        @0x02003448    // 2003448 <_vfprintf_r+0x1a18>
 20033f0:	0c 87 40 90 	LW         144(SP),R1
 20033f4:	12 03 00 40 	LDI        0x0200e3f0,R2  // 200e3f0 <zeroes.4494>
 20033f8:	12 40 e3 f0 
 20033fc:	95 d8 9e 10 	SW         R2,(R11)       | LDI        $16,R3
 2003400:	1c c6 c0 04 	SW         R3,$4(R11)
 2003404:	28 84 c0 00 	ADD        R3,R5
 2003408:	2c c7 40 94 	SW         R5,$148(SP)
 200340c:	08 80 00 01 	ADD        $1,R1
 2003410:	0c c7 40 90 	SW         R1,$144(SP)
 2003414:	da 08 8b 08 	ADD        $8,R11         | CMP        $8,R1
 2003418:	78 90 00 24 	BLT        @0x02003440    // 2003440 <_vfprintf_r+0x1a10>
 200341c:	1b 43 40 8c 	MOV        $140+SP,R3
 2003420:	97 c0 8f e0 	MOV        R8,R2          | MOV        R12,R1
 2003424:	87 fa fc f8 	JSR        0x02009b94     // 2009b94 <__sprint_r>
 2003428:	02 00 9b 94 
 200342c:	0c 00 00 00 	CMP        $0,R1
 2003430:	78 a8 04 ac 	BNZ        @0x020038e0    // 20038e0 <_vfprintf_r+0x1eb0>
 2003434:	2c 87 40 94 	LW         148(SP),R5
 2003438:	0c 87 40 90 	LW         144(SP),R1
 200343c:	5b 43 40 c0 	MOV        $192+SP,R11
 2003440:	b2 70 b3 11 	ADD        $-16,R6        | CMP        $17,R6
 2003444:	78 b3 ff ac 	BGE        @0x020033f4    // 20033f4 <_vfprintf_r+0x19c4>
 2003448:	22 03 00 40 	LDI        0x0200e3f0,R4  // 200e3f0 <zeroes.4494>
 200344c:	22 40 e3 f0 
 2003450:	24 c6 c0 00 	SW         R4,(R11)
 2003454:	34 c6 c0 04 	SW         R6,$4(R11)
 2003458:	28 85 80 00 	ADD        R6,R5
 200345c:	2c c7 40 94 	SW         R5,$148(SP)
 2003460:	08 80 00 01 	ADD        $1,R1
 2003464:	0c c7 40 90 	SW         R1,$144(SP)
 2003468:	da 08 8b 08 	ADD        $8,R11         | CMP        $8,R1
 200346c:	78 90 02 84 	BLT        @0x020036f4    // 20036f4 <_vfprintf_r+0x1cc4>
 2003470:	1b 43 40 8c 	MOV        $140+SP,R3
 2003474:	97 c0 8f e0 	MOV        R8,R2          | MOV        R12,R1
 2003478:	87 fa fc f8 	JSR        0x02009b94     // 2009b94 <__sprint_r>
 200347c:	02 00 9b 94 
 2003480:	0c 00 00 00 	CMP        $0,R1
 2003484:	78 a8 04 60 	BNZ        @0x020038e8    // 20038e8 <_vfprintf_r+0x1eb8>
 2003488:	2c 87 40 94 	LW         148(SP),R5
 200348c:	5b 43 40 c0 	MOV        $192+SP,R11
 2003490:	78 80 02 60 	BRA        @0x020036f4    // 20036f4 <_vfprintf_r+0x1cc4>
 2003494:	bc 34 bb 02 	LW         52(SP),R7      | CMP        $2,R7
 2003498:	78 b0 00 08 	BGE        @0x020034a4    // 20034a4 <_vfprintf_r+0x1a74>
 200349c:	8c 20 89 01 	LW         32(SP),R1      | AND        $1,R1
 20034a0:	78 88 01 bc 	BZ         @0x02003660    // 2003660 <_vfprintf_r+0x1c30>
 20034a4:	3c 87 40 48 	LW         72(SP),R7
 20034a8:	bd d8 86 01 	SW         R7,(R11)       | LDI        $1,R0
 20034ac:	04 c6 c0 04 	SW         R0,$4(R11)
 20034b0:	28 84 00 00 	ADD        R0,R5
 20034b4:	2c c7 40 94 	SW         R5,$148(SP)
 20034b8:	34 87 40 90 	LW         144(SP),R6
 20034bc:	30 84 00 00 	ADD        R0,R6
 20034c0:	34 c7 40 90 	SW         R6,$144(SP)
 20034c4:	da 08 b3 08 	ADD        $8,R11         | CMP        $8,R6
 20034c8:	78 90 00 24 	BLT        @0x020034f0    // 20034f0 <_vfprintf_r+0x1ac0>
 20034cc:	1b 43 40 8c 	MOV        $140+SP,R3
 20034d0:	97 c0 8f e0 	MOV        R8,R2          | MOV        R12,R1
 20034d4:	87 fa fc f8 	JSR        0x02009b94     // 2009b94 <__sprint_r>
 20034d8:	02 00 9b 94 
 20034dc:	0c 00 00 00 	CMP        $0,R1
 20034e0:	78 a8 04 0c 	BNZ        @0x020038f0    // 20038f0 <_vfprintf_r+0x1ec0>
 20034e4:	2c 87 40 94 	LW         148(SP),R5
 20034e8:	34 87 40 90 	LW         144(SP),R6
 20034ec:	5b 43 40 c0 	MOV        $192+SP,R11
 20034f0:	3c 87 40 50 	LW         80(SP),R7
 20034f4:	3c c6 c0 00 	SW         R7,(R11)
 20034f8:	3c 87 40 5c 	LW         92(SP),R7
 20034fc:	3c c6 c0 04 	SW         R7,$4(R11)
 2003500:	ba a8 af b8 	ADD        R5,R7          | MOV        R7,R5
 2003504:	3c c7 40 94 	SW         R7,$148(SP)
 2003508:	30 80 00 01 	ADD        $1,R6
 200350c:	34 c7 40 90 	SW         R6,$144(SP)
 2003510:	da 08 b3 08 	ADD        $8,R11         | CMP        $8,R6
 2003514:	78 90 00 24 	BLT        @0x0200353c    // 200353c <_vfprintf_r+0x1b0c>
 2003518:	1b 43 40 8c 	MOV        $140+SP,R3
 200351c:	97 c0 8f e0 	MOV        R8,R2          | MOV        R12,R1
 2003520:	87 fa fc f8 	JSR        0x02009b94     // 2009b94 <__sprint_r>
 2003524:	02 00 9b 94 
 2003528:	0c 00 00 00 	CMP        $0,R1
 200352c:	78 a8 03 c8 	BNZ        @0x020038f8    // 20038f8 <_vfprintf_r+0x1ec8>
 2003530:	2c 87 40 94 	LW         148(SP),R5
 2003534:	34 87 40 90 	LW         144(SP),R6
 2003538:	5b 43 40 c0 	MOV        $192+SP,R11
 200353c:	9e 00 a6 00 	CLR        R3             | CLR        R4
 2003540:	0c 87 40 58 	LW         88(SP),R1
 2003544:	14 87 40 54 	LW         84(SP),R2
 2003548:	87 fa fc f8 	JSR        0x0200d760     // 200d760 <__nedf2>
 200354c:	02 00 d7 60 
 2003550:	0c 00 00 00 	CMP        $0,R1
 2003554:	78 88 00 50 	BZ         @0x020035a8    // 20035a8 <_vfprintf_r+0x1b78>
 2003558:	14 87 40 48 	LW         72(SP),R2
 200355c:	92 01 95 d8 	ADD        $1,R2          | SW         R2,(R11)
 2003560:	8c 34 8a 7f 	LW         52(SP),R1      | ADD        $-1,R1
 2003564:	0c c6 c0 04 	SW         R1,$4(R11)
 2003568:	28 84 40 00 	ADD        R1,R5
 200356c:	2c c7 40 94 	SW         R5,$148(SP)
 2003570:	30 80 00 01 	ADD        $1,R6
 2003574:	34 c7 40 90 	SW         R6,$144(SP)
 2003578:	da 08 b3 08 	ADD        $8,R11         | CMP        $8,R6
 200357c:	78 90 01 2c 	BLT        @0x020036ac    // 20036ac <_vfprintf_r+0x1c7c>
 2003580:	1b 43 40 8c 	MOV        $140+SP,R3
 2003584:	97 c0 8f e0 	MOV        R8,R2          | MOV        R12,R1
 2003588:	87 fa fc f8 	JSR        0x02009b94     // 2009b94 <__sprint_r>
 200358c:	02 00 9b 94 
 2003590:	0c 00 00 00 	CMP        $0,R1
 2003594:	78 a8 03 68 	BNZ        @0x02003900    // 2003900 <_vfprintf_r+0x1ed0>
 2003598:	2c 87 40 94 	LW         148(SP),R5
 200359c:	34 87 40 90 	LW         144(SP),R6
 20035a0:	5b 43 40 c0 	MOV        $192+SP,R11
 20035a4:	78 80 01 04 	BRA        @0x020036ac    // 20036ac <_vfprintf_r+0x1c7c>
 20035a8:	bc 34 ba 7f 	LW         52(SP),R7      | ADD        $-1,R7
 20035ac:	3c 00 00 01 	CMP        $1,R7
 20035b0:	78 90 00 f8 	BLT        @0x020036ac    // 20036ac <_vfprintf_r+0x1c7c>
 20035b4:	3c 00 00 11 	CMP        $17,R7
 20035b8:	78 90 00 54 	BLT        @0x02003610    // 2003610 <_vfprintf_r+0x1be0>
 20035bc:	0a 03 00 40 	LDI        0x0200e3f0,R1  // 200e3f0 <zeroes.4494>
 20035c0:	0a 40 e3 f0 
 20035c4:	8d d8 96 10 	SW         R1,(R11)       | LDI        $16,R2
 20035c8:	14 c6 c0 04 	SW         R2,$4(R11)
 20035cc:	28 84 80 00 	ADD        R2,R5
 20035d0:	2c c7 40 94 	SW         R5,$148(SP)
 20035d4:	30 80 00 01 	ADD        $1,R6
 20035d8:	34 c7 40 90 	SW         R6,$144(SP)
 20035dc:	da 08 b3 08 	ADD        $8,R11         | CMP        $8,R6
 20035e0:	78 90 00 24 	BLT        @0x02003608    // 2003608 <_vfprintf_r+0x1bd8>
 20035e4:	1b 43 40 8c 	MOV        $140+SP,R3
 20035e8:	97 c0 8f e0 	MOV        R8,R2          | MOV        R12,R1
 20035ec:	87 fa fc f8 	JSR        0x02009b94     // 2009b94 <__sprint_r>
 20035f0:	02 00 9b 94 
 20035f4:	0c 00 00 00 	CMP        $0,R1
 20035f8:	78 a8 03 0c 	BNZ        @0x02003908    // 2003908 <_vfprintf_r+0x1ed8>
 20035fc:	2c 87 40 94 	LW         148(SP),R5
 2003600:	34 87 40 90 	LW         144(SP),R6
 2003604:	5b 43 40 c0 	MOV        $192+SP,R11
 2003608:	ba 70 bb 11 	ADD        $-16,R7        | CMP        $17,R7
 200360c:	78 b3 ff ac 	BGE        @0x020035bc    // 20035bc <_vfprintf_r+0x1b8c>
 2003610:	1a 03 00 40 	LDI        0x0200e3f0,R3  // 200e3f0 <zeroes.4494>
 2003614:	1a 40 e3 f0 
 2003618:	1c c6 c0 00 	SW         R3,(R11)
 200361c:	3c c6 c0 04 	SW         R7,$4(R11)
 2003620:	28 85 c0 00 	ADD        R7,R5
 2003624:	2c c7 40 94 	SW         R5,$148(SP)
 2003628:	30 80 00 01 	ADD        $1,R6
 200362c:	34 c7 40 90 	SW         R6,$144(SP)
 2003630:	da 08 b3 08 	ADD        $8,R11         | CMP        $8,R6
 2003634:	78 90 00 74 	BLT        @0x020036ac    // 20036ac <_vfprintf_r+0x1c7c>
 2003638:	1b 43 40 8c 	MOV        $140+SP,R3
 200363c:	97 c0 8f e0 	MOV        R8,R2          | MOV        R12,R1
 2003640:	87 fa fc f8 	JSR        0x02009b94     // 2009b94 <__sprint_r>
 2003644:	02 00 9b 94 
 2003648:	0c 00 00 00 	CMP        $0,R1
 200364c:	78 a8 02 c0 	BNZ        @0x02003910    // 2003910 <_vfprintf_r+0x1ee0>
 2003650:	2c 87 40 94 	LW         148(SP),R5
 2003654:	34 87 40 90 	LW         144(SP),R6
 2003658:	5b 43 40 c0 	MOV        $192+SP,R11
 200365c:	78 80 00 4c 	BRA        @0x020036ac    // 20036ac <_vfprintf_r+0x1c7c>
 2003660:	3c 87 40 48 	LW         72(SP),R7
 2003664:	bd d8 8e 01 	SW         R7,(R11)       | LDI        $1,R1
 2003668:	0c c6 c0 04 	SW         R1,$4(R11)
 200366c:	28 84 40 00 	ADD        R1,R5
 2003670:	2c c7 40 94 	SW         R5,$148(SP)
 2003674:	34 87 40 90 	LW         144(SP),R6
 2003678:	30 84 40 00 	ADD        R1,R6
 200367c:	34 c7 40 90 	SW         R6,$144(SP)
 2003680:	da 08 b3 08 	ADD        $8,R11         | CMP        $8,R6
 2003684:	78 90 00 24 	BLT        @0x020036ac    // 20036ac <_vfprintf_r+0x1c7c>
 2003688:	1b 43 40 8c 	MOV        $140+SP,R3
 200368c:	97 c0 8f e0 	MOV        R8,R2          | MOV        R12,R1
 2003690:	87 fa fc f8 	JSR        0x02009b94     // 2009b94 <__sprint_r>
 2003694:	02 00 9b 94 
 2003698:	0c 00 00 00 	CMP        $0,R1
 200369c:	78 a8 02 78 	BNZ        @0x02003918    // 2003918 <_vfprintf_r+0x1ee8>
 20036a0:	2c 87 40 94 	LW         148(SP),R5
 20036a4:	34 87 40 90 	LW         144(SP),R6
 20036a8:	5b 43 40 c0 	MOV        $192+SP,R11
 20036ac:	13 43 40 7d 	MOV        $125+SP,R2
 20036b0:	14 c6 c0 00 	SW         R2,(R11)
 20036b4:	3c 87 40 60 	LW         96(SP),R7
 20036b8:	3c c6 c0 04 	SW         R7,$4(R11)
 20036bc:	ba a8 af b8 	ADD        R5,R7          | MOV        R7,R5
 20036c0:	3c c7 40 94 	SW         R7,$148(SP)
 20036c4:	30 80 00 01 	ADD        $1,R6
 20036c8:	34 c7 40 90 	SW         R6,$144(SP)
 20036cc:	da 08 b3 08 	ADD        $8,R11         | CMP        $8,R6
 20036d0:	78 90 00 20 	BLT        @0x020036f4    // 20036f4 <_vfprintf_r+0x1cc4>
 20036d4:	1b 43 40 8c 	MOV        $140+SP,R3
 20036d8:	97 c0 8f e0 	MOV        R8,R2          | MOV        R12,R1
 20036dc:	87 fa fc f8 	JSR        0x02009b94     // 2009b94 <__sprint_r>
 20036e0:	02 00 9b 94 
 20036e4:	0c 00 00 00 	CMP        $0,R1
 20036e8:	78 a8 02 34 	BNZ        @0x02003920    // 2003920 <_vfprintf_r+0x1ef0>
 20036ec:	2c 87 40 94 	LW         148(SP),R5
 20036f0:	5b 43 40 c0 	MOV        $192+SP,R11
 20036f4:	8c 20 89 04 	LW         32(SP),R1      | AND        $4,R1
 20036f8:	78 88 00 b4 	BZ         @0x020037b0    // 20037b0 <_vfprintf_r+0x1d80>
 20036fc:	b4 38 bc 1c 	LW         56(SP),R6      | LW         28(SP),R7
 2003700:	b0 b8 b3 01 	SUB        R7,R6          | CMP        $1,R6
 2003704:	78 90 00 a8 	BLT        @0x020037b0    // 20037b0 <_vfprintf_r+0x1d80>
 2003708:	0c 87 40 90 	LW         144(SP),R1
 200370c:	34 00 00 11 	CMP        $17,R6
 2003710:	78 90 00 58 	BLT        @0x0200376c    // 200376c <_vfprintf_r+0x1d3c>
 2003714:	0c 87 40 90 	LW         144(SP),R1
 2003718:	12 03 00 40 	LDI        0x0200e400,R2  // 200e400 <blanks.4493>
 200371c:	12 40 e4 00 
 2003720:	95 d8 9e 10 	SW         R2,(R11)       | LDI        $16,R3
 2003724:	1c c6 c0 04 	SW         R3,$4(R11)
 2003728:	28 84 c0 00 	ADD        R3,R5
 200372c:	2c c7 40 94 	SW         R5,$148(SP)
 2003730:	08 80 00 01 	ADD        $1,R1
 2003734:	0c c7 40 90 	SW         R1,$144(SP)
 2003738:	da 08 8b 08 	ADD        $8,R11         | CMP        $8,R1
 200373c:	78 90 00 24 	BLT        @0x02003764    // 2003764 <_vfprintf_r+0x1d34>
 2003740:	1b 43 40 8c 	MOV        $140+SP,R3
 2003744:	97 c0 8f e0 	MOV        R8,R2          | MOV        R12,R1
 2003748:	87 fa fc f8 	JSR        0x02009b94     // 2009b94 <__sprint_r>
 200374c:	02 00 9b 94 
 2003750:	0c 00 00 00 	CMP        $0,R1
 2003754:	78 a8 01 d0 	BNZ        @0x02003928    // 2003928 <_vfprintf_r+0x1ef8>
 2003758:	2c 87 40 94 	LW         148(SP),R5
 200375c:	0c 87 40 90 	LW         144(SP),R1
 2003760:	5b 43 40 c0 	MOV        $192+SP,R11
 2003764:	b2 70 b3 11 	ADD        $-16,R6        | CMP        $17,R6
 2003768:	78 b3 ff ac 	BGE        @0x02003718    // 2003718 <_vfprintf_r+0x1ce8>
 200376c:	22 03 00 40 	LDI        0x0200e400,R4  // 200e400 <blanks.4493>
 2003770:	22 40 e4 00 
 2003774:	24 c6 c0 00 	SW         R4,(R11)
 2003778:	34 c6 c0 04 	SW         R6,$4(R11)
 200377c:	28 85 80 00 	ADD        R6,R5
 2003780:	2c c7 40 94 	SW         R5,$148(SP)
 2003784:	08 80 00 01 	ADD        $1,R1
 2003788:	0c c7 40 90 	SW         R1,$144(SP)
 200378c:	0c 00 00 08 	CMP        $8,R1
 2003790:	78 90 00 1c 	BLT        @0x020037b0    // 20037b0 <_vfprintf_r+0x1d80>
 2003794:	1b 43 40 8c 	MOV        $140+SP,R3
 2003798:	97 c0 8f e0 	MOV        R8,R2          | MOV        R12,R1
 200379c:	87 fa fc f8 	JSR        0x02009b94     // 2009b94 <__sprint_r>
 20037a0:	02 00 9b 94 
 20037a4:	0c 00 00 00 	CMP        $0,R1
 20037a8:	78 a8 01 84 	BNZ        @0x02003930    // 2003930 <_vfprintf_r+0x1f00>
 20037ac:	2c 87 40 94 	LW         148(SP),R5
 20037b0:	8c 38 bc 1c 	LW         56(SP),R1      | LW         28(SP),R7
 20037b4:	0c 05 c0 00 	CMP        R7,R1
 20037b8:	0b 51 c0 00 	MOV.LT     R7,R1
 20037bc:	bc 30 ba 88 	LW         48(SP),R7      | ADD        R1,R7
 20037c0:	bd 30 ab 00 	SW         R7,$48(SP)     | CMP        $0,R5
 20037c4:	78 a8 00 10 	BNZ        @0x020037d8    // 20037d8 <_vfprintf_r+0x1da8>
 20037c8:	0e 00 00 00 	CLR        R1
 20037cc:	0c c7 40 90 	SW         R1,$144(SP)
 20037d0:	5b 43 40 c0 	MOV        $192+SP,R11
 20037d4:	78 83 e3 b0 	BRA        @0x02001b88    // 2001b88 <_vfprintf_r+0x158>
 20037d8:	1b 43 40 8c 	MOV        $140+SP,R3
 20037dc:	97 c0 8f e0 	MOV        R8,R2          | MOV        R12,R1
 20037e0:	87 fa fc f8 	JSR        0x02009b94     // 2009b94 <__sprint_r>
 20037e4:	02 00 9b 94 
 20037e8:	0c 00 00 00 	CMP        $0,R1
 20037ec:	78 8b ff d8 	BZ         @0x020037c8    // 20037c8 <_vfprintf_r+0x1d98>
 20037f0:	63 42 00 00 	MOV        R8,R12
 20037f4:	78 80 01 3c 	BRA        @0x02003934    // 2003934 <_vfprintf_r+0x1f04>
 20037f8:	cf e0 e7 c0 	MOV        R12,R9         | MOV        R8,R12
 20037fc:	0c 87 40 94 	LW         148(SP),R1
 2003800:	0c 00 00 00 	CMP        $0,R1
 2003804:	78 88 01 2c 	BZ         @0x02003934    // 2003934 <_vfprintf_r+0x1f04>
 2003808:	1b 43 40 00 	MOV        SP,R3
 200380c:	18 80 00 8c 	ADD        $140,R3
 2003810:	97 c0 8f c8 	MOV        R8,R2          | MOV        R9,R1
 2003814:	87 fa fc f8 	JSR        0x02009b94     // 2009b94 <__sprint_r>
 2003818:	02 00 9b 94 
 200381c:	78 80 01 14 	BRA        @0x02003934    // 2003934 <_vfprintf_r+0x1f04>
 2003820:	63 42 00 00 	MOV        R8,R12
 2003824:	78 80 01 0c 	BRA        @0x02003934    // 2003934 <_vfprintf_r+0x1f04>
 2003828:	63 42 00 00 	MOV        R8,R12
 200382c:	78 80 01 04 	BRA        @0x02003934    // 2003934 <_vfprintf_r+0x1f04>
 2003830:	63 42 00 00 	MOV        R8,R12
 2003834:	78 80 00 fc 	BRA        @0x02003934    // 2003934 <_vfprintf_r+0x1f04>
 2003838:	63 42 00 00 	MOV        R8,R12
 200383c:	78 80 00 f4 	BRA        @0x02003934    // 2003934 <_vfprintf_r+0x1f04>
 2003840:	63 42 00 00 	MOV        R8,R12
 2003844:	78 80 00 ec 	BRA        @0x02003934    // 2003934 <_vfprintf_r+0x1f04>
 2003848:	63 42 00 00 	MOV        R8,R12
 200384c:	78 80 00 e4 	BRA        @0x02003934    // 2003934 <_vfprintf_r+0x1f04>
 2003850:	63 42 00 00 	MOV        R8,R12
 2003854:	78 80 00 dc 	BRA        @0x02003934    // 2003934 <_vfprintf_r+0x1f04>
 2003858:	63 42 00 00 	MOV        R8,R12
 200385c:	78 80 00 d4 	BRA        @0x02003934    // 2003934 <_vfprintf_r+0x1f04>
 2003860:	63 42 00 00 	MOV        R8,R12
 2003864:	78 80 00 cc 	BRA        @0x02003934    // 2003934 <_vfprintf_r+0x1f04>
 2003868:	63 42 00 00 	MOV        R8,R12
 200386c:	78 80 00 c4 	BRA        @0x02003934    // 2003934 <_vfprintf_r+0x1f04>
 2003870:	63 42 00 00 	MOV        R8,R12
 2003874:	78 80 00 bc 	BRA        @0x02003934    // 2003934 <_vfprintf_r+0x1f04>
 2003878:	63 42 00 00 	MOV        R8,R12
 200387c:	78 80 00 b4 	BRA        @0x02003934    // 2003934 <_vfprintf_r+0x1f04>
 2003880:	63 42 00 00 	MOV        R8,R12
 2003884:	78 80 00 ac 	BRA        @0x02003934    // 2003934 <_vfprintf_r+0x1f04>
 2003888:	63 42 00 00 	MOV        R8,R12
 200388c:	78 80 00 a4 	BRA        @0x02003934    // 2003934 <_vfprintf_r+0x1f04>
 2003890:	63 42 00 00 	MOV        R8,R12
 2003894:	78 80 00 9c 	BRA        @0x02003934    // 2003934 <_vfprintf_r+0x1f04>
 2003898:	63 42 00 00 	MOV        R8,R12
 200389c:	78 80 00 94 	BRA        @0x02003934    // 2003934 <_vfprintf_r+0x1f04>
 20038a0:	63 42 00 00 	MOV        R8,R12
 20038a4:	78 80 00 8c 	BRA        @0x02003934    // 2003934 <_vfprintf_r+0x1f04>
 20038a8:	63 42 00 00 	MOV        R8,R12
 20038ac:	78 80 00 84 	BRA        @0x02003934    // 2003934 <_vfprintf_r+0x1f04>
 20038b0:	63 42 00 00 	MOV        R8,R12
 20038b4:	78 80 00 7c 	BRA        @0x02003934    // 2003934 <_vfprintf_r+0x1f04>
 20038b8:	63 42 00 00 	MOV        R8,R12
 20038bc:	78 80 00 74 	BRA        @0x02003934    // 2003934 <_vfprintf_r+0x1f04>
 20038c0:	63 42 00 00 	MOV        R8,R12
 20038c4:	78 80 00 6c 	BRA        @0x02003934    // 2003934 <_vfprintf_r+0x1f04>
 20038c8:	63 42 00 00 	MOV        R8,R12
 20038cc:	78 80 00 64 	BRA        @0x02003934    // 2003934 <_vfprintf_r+0x1f04>
 20038d0:	63 42 00 00 	MOV        R8,R12
 20038d4:	78 80 00 5c 	BRA        @0x02003934    // 2003934 <_vfprintf_r+0x1f04>
 20038d8:	63 42 00 00 	MOV        R8,R12
 20038dc:	78 80 00 54 	BRA        @0x02003934    // 2003934 <_vfprintf_r+0x1f04>
 20038e0:	63 42 00 00 	MOV        R8,R12
 20038e4:	78 80 00 4c 	BRA        @0x02003934    // 2003934 <_vfprintf_r+0x1f04>
 20038e8:	63 42 00 00 	MOV        R8,R12
 20038ec:	78 80 00 44 	BRA        @0x02003934    // 2003934 <_vfprintf_r+0x1f04>
 20038f0:	63 42 00 00 	MOV        R8,R12
 20038f4:	78 80 00 3c 	BRA        @0x02003934    // 2003934 <_vfprintf_r+0x1f04>
 20038f8:	63 42 00 00 	MOV        R8,R12
 20038fc:	78 80 00 34 	BRA        @0x02003934    // 2003934 <_vfprintf_r+0x1f04>
 2003900:	63 42 00 00 	MOV        R8,R12
 2003904:	78 80 00 2c 	BRA        @0x02003934    // 2003934 <_vfprintf_r+0x1f04>
 2003908:	63 42 00 00 	MOV        R8,R12
 200390c:	78 80 00 24 	BRA        @0x02003934    // 2003934 <_vfprintf_r+0x1f04>
 2003910:	63 42 00 00 	MOV        R8,R12
 2003914:	78 80 00 1c 	BRA        @0x02003934    // 2003934 <_vfprintf_r+0x1f04>
 2003918:	63 42 00 00 	MOV        R8,R12
 200391c:	78 80 00 14 	BRA        @0x02003934    // 2003934 <_vfprintf_r+0x1f04>
 2003920:	63 42 00 00 	MOV        R8,R12
 2003924:	78 80 00 0c 	BRA        @0x02003934    // 2003934 <_vfprintf_r+0x1f04>
 2003928:	63 42 00 00 	MOV        R8,R12
 200392c:	78 80 00 04 	BRA        @0x02003934    // 2003934 <_vfprintf_r+0x1f04>
 2003930:	63 42 00 00 	MOV        R8,R12
 2003934:	0d 07 00 0c 	LH         12(R12),R1
 2003938:	08 40 00 40 	AND        $64,R1
 200393c:	78 88 01 54 	BZ         @0x02003a94    // 2003a94 <_vfprintf_r+0x2064>
 2003940:	be ff bd 30 	LDI        $-1,R7         | SW         R7,$48(SP)
 2003944:	78 80 01 4c 	BRA        @0x02003a94    // 2003a94 <_vfprintf_r+0x2064>
 2003948:	1c 87 40 58 	LW         88(SP),R3
 200394c:	24 87 40 54 	LW         84(SP),R4
 2003950:	8f 98 97 a0 	MOV        R3,R1          | MOV        R4,R2
 2003954:	87 fa fc f8 	JSR        0x0200d8f0     // 200d8f0 <__unorddf2>
 2003958:	02 00 d8 f0 
 200395c:	0c 00 00 00 	CMP        $0,R1
 2003960:	78 8b e7 bc 	BZ         @0x02002120    // 2002120 <_vfprintf_r+0x6f0>
 2003964:	78 83 e7 7c 	BRA        @0x020020e4    // 20020e4 <_vfprintf_r+0x6b4>
 2003968:	9c 1c a7 98 	LW         28(SP),R3      | MOV        R3,R4
 200396c:	0c 87 40 58 	LW         88(SP),R1
 2003970:	14 87 40 54 	LW         84(SP),R2
 2003974:	87 fa fc f8 	JSR        0x0200d828     // 200d828 <__ltdf2>
 2003978:	02 00 d8 28 
 200397c:	0c 00 00 00 	CMP        $0,R1
 2003980:	78 93 e7 20 	BLT        @0x020020a4    // 20020a4 <_vfprintf_r+0x674>
 2003984:	2d 87 40 71 	LB         113(SP),R5
 2003988:	2c c7 40 2c 	SW         R5,$44(SP)
 200398c:	78 83 e7 20 	BRA        @0x020020b0    // 20020b0 <_vfprintf_r+0x680>
 2003990:	34 c7 40 2c 	SW         R6,$44(SP)
 2003994:	2c 87 40 48 	LW         72(SP),R5
 2003998:	03 41 80 00 	MOV        R6,R0
 200399c:	28 84 00 00 	ADD        R0,R5
 20039a0:	78 83 e8 74 	BRA        @0x02002218    // 2002218 <_vfprintf_r+0x7e8>
 20039a4:	0b 43 40 00 	MOV        SP,R1
 20039a8:	08 80 00 84 	ADD        $132,R1
 20039ac:	0c c7 40 08 	SW         R1,$8(SP)
 20039b0:	0b 40 5f f4 	MOV        $-12+R1,R1
 20039b4:	8d 04 8f 8c 	SW         R1,$4(SP)      | MOV        $-4+R1,R1
 20039b8:	8d 00 af b0 	SW         R1,(SP)        | MOV        R6,R5
 20039bc:	a6 02 94 24 	LDI        $2,R4          | LW         36(SP),R2
 20039c0:	1c 87 40 54 	LW         84(SP),R3
 20039c4:	0b 43 00 00 	MOV        R12,R1
 20039c8:	87 fa fc f8 	JSR        0x020040f8     // 20040f8 <_dtoa_r>
 20039cc:	02 00 40 f8 
 20039d0:	0c c7 40 48 	SW         R1,$72(SP)
 20039d4:	0c 87 40 1c 	LW         28(SP),R1
 20039d8:	0c 00 00 47 	CMP        $71,R1
 20039dc:	78 88 00 80 	BZ         @0x02003a60    // 2003a60 <_vfprintf_r+0x2030>
 20039e0:	78 83 ff ac 	BRA        @0x02003990    // 2003990 <_vfprintf_r+0x1f60>
 20039e4:	0b 43 40 00 	MOV        SP,R1
 20039e8:	08 80 00 84 	ADD        $132,R1
 20039ec:	0c c7 40 08 	SW         R1,$8(SP)
 20039f0:	0b 40 5f f4 	MOV        $-12+R1,R1
 20039f4:	8d 04 8f 8c 	SW         R1,$4(SP)      | MOV        $-4+R1,R1
 20039f8:	8d 00 af b0 	SW         R1,(SP)        | MOV        R6,R5
 20039fc:	a6 03 94 24 	LDI        $3,R4          | LW         36(SP),R2
 2003a00:	1c 87 40 54 	LW         84(SP),R3
 2003a04:	0b 43 00 00 	MOV        R12,R1
 2003a08:	87 fa fc f8 	JSR        0x020040f8     // 20040f8 <_dtoa_r>
 2003a0c:	02 00 40 f8 
 2003a10:	0c c7 40 48 	SW         R1,$72(SP)
 2003a14:	0d 84 40 00 	LB         (R1),R1
 2003a18:	8b 30 ae 00 	CMP        $48,R1         | CLR        R5
 2003a1c:	2a 48 00 01 	LDILO.Z    $1,R5
 2003a20:	2d c7 40 2f 	SB         R5,$47(SP)
 2003a24:	ae 01 9e 00 	LDI        $1,R5          | CLR        R3
 2003a28:	a6 00 8c 24 	CLR        R4             | LW         36(SP),R1
 2003a2c:	14 87 40 54 	LW         84(SP),R2
 2003a30:	87 fa fc f8 	JSR        0x0200d760     // 200d760 <__nedf2>
 2003a34:	02 00 d7 60 
 2003a38:	0c 00 00 00 	CMP        $0,R1
 2003a3c:	2b 48 40 00 	MOV.Z      R1,R5
 2003a40:	0d 87 40 2f 	LB         47(SP),R1
 2003a44:	08 45 40 00 	AND        R5,R1
 2003a48:	08 40 00 ff 	AND        $255,R1
 2003a4c:	78 ab e7 b4 	BNZ        @0x02002204    // 2002204 <_vfprintf_r+0x7d4>
 2003a50:	78 83 e7 a8 	BRA        @0x020021fc    // 20021fc <_vfprintf_r+0x7cc>
 2003a54:	2c 87 40 48 	LW         72(SP),R5
 2003a58:	28 85 80 00 	ADD        R6,R5
 2003a5c:	78 83 e7 b8 	BRA        @0x02002218    // 2002218 <_vfprintf_r+0x7e8>
 2003a60:	8f c8 89 01 	MOV        R9,R1          | AND        $1,R1
 2003a64:	78 ab ff ec 	BNZ        @0x02003a54    // 2003a54 <_vfprintf_r+0x2024>
 2003a68:	78 83 e7 88 	BRA        @0x020021f4    // 20021f4 <_vfprintf_r+0x7c4>
 2003a6c:	13 42 40 00 	MOV        R9,R2
 2003a70:	10 c0 01 00 	OR         $256,R2
 2003a74:	14 c7 40 20 	SW         R2,$32(SP)
 2003a78:	1c 87 40 58 	LW         88(SP),R3
 2003a7c:	1c 00 00 00 	CMP        $0,R3
 2003a80:	78 93 e6 fc 	BLT        @0x02002180    // 2002180 <_vfprintf_r+0x750>
 2003a84:	9d 24 a6 47 	SW         R3,$36(SP)     | LDI        $71,R4
 2003a88:	a5 1c 8d 3c 	SW         R4,$28(SP)     | SW         R1,$60(SP)
 2003a8c:	36 00 00 01 	LDI        $1,R6
 2003a90:	78 83 ff 10 	BRA        @0x020039a4    // 20039a4 <_vfprintf_r+0x1f74>
 2003a94:	0c 87 40 30 	LW         48(SP),R1
 2003a98:	04 87 41 00 	LW         256(SP),R0
 2003a9c:	2c 87 41 04 	LW         260(SP),R5
 2003aa0:	34 87 41 08 	LW         264(SP),R6
 2003aa4:	3c 87 41 0c 	LW         268(SP),R7
 2003aa8:	44 87 41 10 	LW         272(SP),R8
 2003aac:	4c 87 41 14 	LW         276(SP),R9
 2003ab0:	54 87 41 18 	LW         280(SP),R10
 2003ab4:	5c 87 41 1c 	LW         284(SP),R11
 2003ab8:	64 87 41 20 	LW         288(SP),R12
 2003abc:	68 80 01 24 	ADD        $292,SP
 2003ac0:	7b 40 00 00 	RTN

02003ac4 <vfprintf>:
 2003ac4:	e8 04 85 00 	SUB        $4,SP          | SW         R0,(SP)
 2003ac8:	a7 98 9f 90 	MOV        R3,R4          | MOV        R2,R3
 2003acc:	13 40 40 00 	MOV        R1,R2
 2003ad0:	0a 03 00 40 	LDI        0x0200e78c,R1  // 200e78c <_impure_ptr>
 2003ad4:	0a 40 e7 8c 
 2003ad8:	8c 88 84 00 	LW         (R1),R1        | LW         (SP),R0
 2003adc:	68 80 00 04 	ADD        $4,SP
 2003ae0:	78 83 df 4c 	BRA        @0x02001a30    // 2001a30 <_vfprintf_r>

02003ae4 <__sbprintf>:
 2003ae4:	68 00 04 7c 	SUB        $1148,SP
 2003ae8:	04 c7 44 6c 	SW         R0,$1132(SP)
 2003aec:	2c c7 44 70 	SW         R5,$1136(SP)
 2003af0:	34 c7 44 74 	SW         R6,$1140(SP)
 2003af4:	3c c7 44 78 	SW         R7,$1144(SP)
 2003af8:	bf 88 af 90 	MOV        R1,R7          | MOV        R2,R5
 2003afc:	15 04 80 0c 	LH         12(R2),R2
 2003b00:	10 40 ff fd 	AND        $65533,R2
 2003b04:	15 47 40 0c 	SH         R2,$12(SP)
 2003b08:	04 85 40 68 	LW         104(R5),R0
 2003b0c:	04 c7 40 68 	SW         R0,$104(SP)
 2003b10:	05 05 40 0e 	LH         14(R5),R0
 2003b14:	05 47 40 0e 	SH         R0,$14(SP)
 2003b18:	04 85 40 1c 	LW         28(R5),R0
 2003b1c:	04 c7 40 1c 	SW         R0,$28(SP)
 2003b20:	04 85 40 24 	LW         36(R5),R0
 2003b24:	85 24 97 e8 	SW         R0,$36(SP)     | MOV        SP,R2
 2003b28:	10 80 00 6c 	ADD        $108,R2
 2003b2c:	95 00 95 10 	SW         R2,(SP)        | SW         R2,$16(SP)
 2003b30:	06 00 04 00 	LDI        $1024,R0
 2003b34:	85 08 85 14 	SW         R0,$8(SP)      | SW         R0,$20(SP)
 2003b38:	86 00 85 18 	CLR        R0             | SW         R0,$24(SP)
 2003b3c:	13 43 40 00 	MOV        SP,R2
 2003b40:	87 fa fc f8 	JSR        0x02001a30     // 2001a30 <_vfprintf_r>
 2003b44:	02 00 1a 30 
 2003b48:	b7 88 8b 00 	MOV        R1,R6          | CMP        $0,R1
 2003b4c:	78 90 00 14 	BLT        @0x02003b64    // 2003b64 <__sbprintf+0x80>
 2003b50:	97 e8 8f b8 	MOV        SP,R2          | MOV        R7,R1
 2003b54:	87 fa fc f8 	JSR        0x02005660     // 2005660 <_fflush_r>
 2003b58:	02 00 56 60 
 2003b5c:	0c 00 00 00 	CMP        $0,R1
 2003b60:	32 2b ff ff 	BREV.NZ    $-1,R6
 2003b64:	0d 07 40 0c 	LH         12(SP),R1
 2003b68:	08 40 00 40 	AND        $64,R1
 2003b6c:	78 88 00 0c 	BZ         @0x02003b7c    // 2003b7c <__sbprintf+0x98>
 2003b70:	0d 05 40 0c 	LH         12(R5),R1
 2003b74:	08 c0 00 40 	OR         $64,R1
 2003b78:	0d 45 40 0c 	SH         R1,$12(R5)
 2003b7c:	0b 41 80 00 	MOV        R6,R1
 2003b80:	04 87 44 6c 	LW         1132(SP),R0
 2003b84:	2c 87 44 70 	LW         1136(SP),R5
 2003b88:	34 87 44 74 	LW         1140(SP),R6
 2003b8c:	3c 87 44 78 	LW         1144(SP),R7
 2003b90:	68 80 04 7c 	ADD        $1148,SP
 2003b94:	7b 40 00 00 	RTN

02003b98 <__swsetup_r>:
 2003b98:	e8 0c 85 00 	SUB        $12,SP         | SW         R0,(SP)
 2003b9c:	ad 04 b5 08 	SW         R5,$4(SP)      | SW         R6,$8(SP)
 2003ba0:	b7 88 af 90 	MOV        R1,R6          | MOV        R2,R5
 2003ba4:	0a 03 00 40 	LDI        0x0200e78c,R1  // 200e78c <_impure_ptr>
 2003ba8:	0a 40 e7 8c 
 2003bac:	8c 88 8b 00 	LW         (R1),R1        | CMP        $0,R1
 2003bb0:	78 88 00 14 	BZ         @0x02003bc8    // 2003bc8 <__swsetup_r+0x30>
 2003bb4:	14 84 40 38 	LW         56(R1),R2
 2003bb8:	14 00 00 00 	CMP        $0,R2
 2003bbc:	78 a8 00 08 	BNZ        @0x02003bc8    // 2003bc8 <__swsetup_r+0x30>
 2003bc0:	87 fa fc f8 	JSR        0x0200622c     // 200622c <__sinit>
 2003bc4:	02 00 62 2c 
 2003bc8:	1d 05 40 0c 	LH         12(R5),R3
 2003bcc:	13 40 c0 00 	MOV        R3,R2
 2003bd0:	10 40 ff ff 	AND        $65535,R2
 2003bd4:	8f 90 89 08 	MOV        R2,R1          | AND        $8,R1
 2003bd8:	78 88 00 08 	BZ         @0x02003be4    // 2003be4 <__swsetup_r+0x4c>
 2003bdc:	0c 85 40 10 	LW         16(R5),R1
 2003be0:	78 80 00 84 	BRA        @0x02003c68    // 2003c68 <__swsetup_r+0xd0>
 2003be4:	8f 90 89 10 	MOV        R2,R1          | AND        $16,R1
 2003be8:	78 a8 00 14 	BNZ        @0x02003c00    // 2003c00 <__swsetup_r+0x68>
 2003bec:	8e 09 8d b0 	LDI        $9,R1          | SW         R1,(R6)
 2003bf0:	18 c0 00 40 	OR         $64,R3
 2003bf4:	1d 45 40 0c 	SH         R3,$12(R5)
 2003bf8:	0e 7f ff ff 	LDI        $-1,R1
 2003bfc:	78 80 00 f4 	BRA        @0x02003cf4    // 2003cf4 <__swsetup_r+0x15c>
 2003c00:	10 40 00 04 	AND        $4,R2
 2003c04:	78 a8 00 08 	BNZ        @0x02003c10    // 2003c10 <__swsetup_r+0x78>
 2003c08:	0c 85 40 10 	LW         16(R5),R1
 2003c0c:	78 80 00 48 	BRA        @0x02003c58    // 2003c58 <__swsetup_r+0xc0>
 2003c10:	14 85 40 30 	LW         48(R5),R2
 2003c14:	14 00 00 00 	CMP        $0,R2
 2003c18:	78 88 00 28 	BZ         @0x02003c44    // 2003c44 <__swsetup_r+0xac>
 2003c1c:	0b 41 40 00 	MOV        R5,R1
 2003c20:	08 80 00 40 	ADD        $64,R1
 2003c24:	14 04 40 00 	CMP        R1,R2
 2003c28:	78 88 00 10 	BZ         @0x02003c3c    // 2003c3c <__swsetup_r+0xa4>
 2003c2c:	0b 41 80 00 	MOV        R6,R1
 2003c30:	87 fa fc f8 	JSR        0x0200658c     // 200658c <_free_r>
 2003c34:	02 00 65 8c 
 2003c38:	1d 05 40 0c 	LH         12(R5),R3
 2003c3c:	26 00 00 00 	CLR        R4
 2003c40:	24 c5 40 30 	SW         R4,$48(R5)
 2003c44:	18 40 ff db 	AND        $65499,R3
 2003c48:	0e 00 00 00 	CLR        R1
 2003c4c:	0c c5 40 04 	SW         R1,$4(R5)
 2003c50:	0c 85 40 10 	LW         16(R5),R1
 2003c54:	0c c5 40 00 	SW         R1,(R5)
 2003c58:	18 c0 00 08 	OR         $8,R3
 2003c5c:	1d 45 40 0c 	SH         R3,$12(R5)
 2003c60:	13 40 c0 00 	MOV        R3,R2
 2003c64:	10 40 ff ff 	AND        $65535,R2
 2003c68:	0c 00 00 00 	CMP        $0,R1
 2003c6c:	78 a8 00 2c 	BNZ        @0x02003c9c    // 2003c9c <__swsetup_r+0x104>
 2003c70:	23 40 80 00 	MOV        R2,R4
 2003c74:	20 40 02 80 	AND        $640,R4
 2003c78:	24 00 02 00 	CMP        $512,R4
 2003c7c:	78 88 00 1c 	BZ         @0x02003c9c    // 2003c9c <__swsetup_r+0x104>
 2003c80:	97 a8 8f b0 	MOV        R5,R2          | MOV        R6,R1
 2003c84:	87 fa fc f8 	JSR        0x0200706c     // 200706c <__smakebuf_r>
 2003c88:	02 00 70 6c 
 2003c8c:	1d 05 40 0c 	LH         12(R5),R3
 2003c90:	13 40 c0 00 	MOV        R3,R2
 2003c94:	10 40 ff ff 	AND        $65535,R2
 2003c98:	0c 85 40 10 	LW         16(R5),R1
 2003c9c:	a7 90 a1 01 	MOV        R2,R4          | AND        $1,R4
 2003ca0:	78 88 00 1c 	BZ         @0x02003cc0    // 2003cc0 <__swsetup_r+0x128>
 2003ca4:	26 00 00 00 	CLR        R4
 2003ca8:	24 c5 40 08 	SW         R4,$8(R5)
 2003cac:	24 85 40 14 	LW         20(R5),R4
 2003cb0:	23 41 1f ff 	MOV        $-1+R4,R4
 2003cb4:	21 03 ff ff 	XOR        $-1,R4
 2003cb8:	24 c5 40 18 	SW         R4,$24(R5)
 2003cbc:	78 80 00 0c 	BRA        @0x02003ccc    // 2003ccc <__swsetup_r+0x134>
 2003cc0:	b7 90 b1 02 	MOV        R2,R6          | AND        $2,R6
 2003cc4:	24 8d 40 14 	LW.Z       20(R5),R4
 2003cc8:	24 c5 40 08 	SW         R4,$8(R5)
 2003ccc:	0c 00 00 00 	CMP        $0,R1
 2003cd0:	78 a8 00 18 	BNZ        @0x02003cec    // 2003cec <__swsetup_r+0x154>
 2003cd4:	10 40 00 80 	AND        $128,R2
 2003cd8:	78 88 00 18 	BZ         @0x02003cf4    // 2003cf4 <__swsetup_r+0x15c>
 2003cdc:	18 c0 00 40 	OR         $64,R3
 2003ce0:	1d 45 40 0c 	SH         R3,$12(R5)
 2003ce4:	0e 7f ff ff 	LDI        $-1,R1
 2003ce8:	78 80 00 08 	BRA        @0x02003cf4    // 2003cf4 <__swsetup_r+0x15c>
 2003cec:	0e 00 00 00 	CLR        R1
 2003cf0:	78 80 00 00 	BRA        @0x02003cf4    // 2003cf4 <__swsetup_r+0x15c>
 2003cf4:	84 00 ac 04 	LW         (SP),R0        | LW         4(SP),R5
 2003cf8:	b4 08 ea 0c 	LW         8(SP),R6       | ADD        $12,SP
 2003cfc:	7b 40 00 00 	RTN

02003d00 <__call_exitprocs>:
 2003d00:	e8 2c 85 08 	SUB        $44,SP         | SW         R0,$8(SP)
 2003d04:	ad 0c b5 10 	SW         R5,$12(SP)     | SW         R6,$16(SP)
 2003d08:	bd 14 c5 18 	SW         R7,$20(SP)     | SW         R8,$24(SP)
 2003d0c:	cd 1c d5 20 	SW         R9,$28(SP)     | SW         R10,$32(SP)
 2003d10:	dd 24 e5 28 	SW         R11,$36(SP)    | SW         R12,$40(SP)
 2003d14:	df 88 c7 90 	MOV        R1,R11         | MOV        R2,R8
 2003d18:	0a 03 00 40 	LDI        0x0200e3a4,R1  // 200e3a4 <_global_impure_ptr>
 2003d1c:	0a 40 e3 a4 
 2003d20:	8c 88 8d 00 	LW         (R1),R1        | SW         R1,(SP)
 2003d24:	08 80 01 48 	ADD        $328,R1
 2003d28:	8d 04 d6 01 	SW         R1,$4(SP)      | LDI        $1,R10
 2003d2c:	78 80 00 04 	BRA        @0x02003d34    // 2003d34 <__call_exitprocs+0x34>
 2003d30:	78 80 00 00 	BRA        @0x02003d34    // 2003d34 <__call_exitprocs+0x34>
 2003d34:	0c 87 40 00 	LW         (SP),R1
 2003d38:	3c 84 41 48 	LW         328(R1),R7
 2003d3c:	3c 00 00 00 	CMP        $0,R7
 2003d40:	78 88 01 c8 	BZ         @0x02003f0c    // 2003f0c <__call_exitprocs+0x20c>
 2003d44:	64 87 40 04 	LW         4(SP),R12
 2003d48:	0c 85 c0 04 	LW         4(R7),R1
 2003d4c:	af 88 aa 7f 	MOV        R1,R5          | ADD        $-1,R5
 2003d50:	78 b0 00 18 	BGE        @0x02003d6c    // 2003d6c <__call_exitprocs+0x6c>
 2003d54:	78 80 00 00 	BRA        @0x02003d58    // 2003d58 <__call_exitprocs+0x58>
 2003d58:	0a 00 00 40 	LDI        0x0200097c,R1  // 200097c <free>
 2003d5c:	0a 40 09 7c 
 2003d60:	0c 00 00 00 	CMP        $0,R1
 2003d64:	78 a8 01 48 	BNZ        @0x02003eb0    // 2003eb0 <__call_exitprocs+0x1b0>
 2003d68:	78 80 01 a0 	BRA        @0x02003f0c    // 2003f0c <__call_exitprocs+0x20c>
 2003d6c:	44 00 00 00 	CMP        $0,R8
 2003d70:	78 a8 00 ac 	BNZ        @0x02003e20    // 2003e20 <__call_exitprocs+0x120>
 2003d74:	97 88 92 01 	MOV        R1,R2          | ADD        $1,R2
 2003d78:	11 80 00 02 	LSL        $2,R2
 2003d7c:	b7 b8 b2 90 	MOV        R7,R6          | ADD        R2,R6
 2003d80:	9c b0 cf 88 	LW         (R6),R3        | MOV        R1,R9
 2003d84:	2c 04 7f ff 	CMP        $-1+R1,R5
 2003d88:	78 a8 00 6c 	BNZ        @0x02003df8    // 2003df8 <__call_exitprocs+0xf8>
 2003d8c:	78 80 00 70 	BRA        @0x02003e00    // 2003e00 <__call_exitprocs+0x100>
 2003d90:	1c 00 00 00 	CMP        $0,R3
 2003d94:	78 88 00 74 	BZ         @0x02003e0c    // 2003e0c <__call_exitprocs+0x10c>
 2003d98:	0b 42 80 00 	MOV        R10,R1
 2003d9c:	09 85 40 00 	LSL        R5,R1
 2003da0:	14 85 c1 88 	LW         392(R7),R2
 2003da4:	87 88 81 90 	MOV        R1,R0          | AND        R2,R0
 2003da8:	78 88 00 44 	BZ         @0x02003df0    // 2003df0 <__call_exitprocs+0xf0>
 2003dac:	78 80 00 18 	BRA        @0x02003dc8    // 2003dc8 <__call_exitprocs+0xc8>
 2003db0:	0c 85 c0 04 	LW         4(R7),R1
 2003db4:	0c 06 40 00 	CMP        R9,R1
 2003db8:	78 ab ff 74 	BNZ        @0x02003d30    // 2003d30 <__call_exitprocs+0x30>
 2003dbc:	8c e0 8b b8 	LW         (R12),R1       | CMP        R7,R1
 2003dc0:	78 88 00 48 	BZ         @0x02003e0c    // 2003e0c <__call_exitprocs+0x10c>
 2003dc4:	78 83 ff 6c 	BRA        @0x02003d34    // 2003d34 <__call_exitprocs+0x34>
 2003dc8:	14 85 c1 8c 	LW         396(R7),R2
 2003dcc:	08 44 80 00 	AND        R2,R1
 2003dd0:	78 88 00 0c 	BZ         @0x02003de0    // 2003de0 <__call_exitprocs+0xe0>
 2003dd4:	0c 85 80 80 	LW         128(R6),R1
 2003dd8:	87 f9 ff 98 	JSR        R3
 2003ddc:	78 83 ff d0 	BRA        @0x02003db0    // 2003db0 <__call_exitprocs+0xb0>
 2003de0:	14 85 80 80 	LW         128(R6),R2
 2003de4:	0b 42 c0 00 	MOV        R11,R1
 2003de8:	87 f9 ff 98 	JSR        R3
 2003dec:	78 83 ff c0 	BRA        @0x02003db0    // 2003db0 <__call_exitprocs+0xb0>
 2003df0:	87 f9 ff 98 	JSR        R3
 2003df4:	78 83 ff b8 	BRA        @0x02003db0    // 2003db0 <__call_exitprocs+0xb0>
 2003df8:	8e 00 8d b0 	CLR        R1             | SW         R1,(R6)
 2003dfc:	78 83 ff 90 	BRA        @0x02003d90    // 2003d90 <__call_exitprocs+0x90>
 2003e00:	2c c5 c0 04 	SW         R5,$4(R7)
 2003e04:	4b 41 40 00 	MOV        R5,R9
 2003e08:	78 83 ff 84 	BRA        @0x02003d90    // 2003d90 <__call_exitprocs+0x90>
 2003e0c:	aa 7f b2 7c 	ADD        $-1,R5         | ADD        $-4,R6
 2003e10:	2c 03 ff ff 	CMP        $-1,R5
 2003e14:	78 8b ff 40 	BZ         @0x02003d58    // 2003d58 <__call_exitprocs+0x58>
 2003e18:	0c 85 c0 04 	LW         4(R7),R1
 2003e1c:	78 83 ff 60 	BRA        @0x02003d80    // 2003d80 <__call_exitprocs+0x80>
 2003e20:	08 80 00 01 	ADD        $1,R1
 2003e24:	09 80 00 02 	LSL        $2,R1
 2003e28:	b7 b8 b2 88 	MOV        R7,R6          | ADD        R1,R6
 2003e2c:	0c 85 81 00 	LW         256(R6),R1
 2003e30:	44 04 40 00 	CMP        R1,R8
 2003e34:	78 88 00 10 	BZ         @0x02003e48    // 2003e48 <__call_exitprocs+0x148>
 2003e38:	aa 7f b2 7c 	ADD        $-1,R5         | ADD        $-4,R6
 2003e3c:	2c 03 ff ff 	CMP        $-1,R5
 2003e40:	78 ab ff e8 	BNZ        @0x02003e2c    // 2003e2c <__call_exitprocs+0x12c>
 2003e44:	78 83 ff 10 	BRA        @0x02003d58    // 2003d58 <__call_exitprocs+0x58>
 2003e48:	1c 85 80 00 	LW         (R6),R3
 2003e4c:	4c 85 c0 04 	LW         4(R7),R9
 2003e50:	8f c8 8a 7f 	MOV        R9,R1          | ADD        $-1,R1
 2003e54:	0c 05 40 00 	CMP        R5,R1
 2003e58:	2c cd c0 04 	SW.Z       R5,$4(R7)
 2003e5c:	4b 49 40 00 	MOV.Z      R5,R9
 2003e60:	0a 28 00 00 	CLR.NZ     $0,R1
 2003e64:	0c ed 80 00 	SW.NZ      R1,(R6)
 2003e68:	78 80 00 94 	BRA        @0x02003f00    // 2003f00 <__call_exitprocs+0x200>
 2003e6c:	87 f9 ff 98 	JSR        R3
 2003e70:	78 80 00 24 	BRA        @0x02003e98    // 2003e98 <__call_exitprocs+0x198>
 2003e74:	14 85 c1 8c 	LW         396(R7),R2
 2003e78:	08 44 80 00 	AND        R2,R1
 2003e7c:	78 a8 00 10 	BNZ        @0x02003e90    // 2003e90 <__call_exitprocs+0x190>
 2003e80:	14 85 80 80 	LW         128(R6),R2
 2003e84:	0b 42 c0 00 	MOV        R11,R1
 2003e88:	87 f9 ff 98 	JSR        R3
 2003e8c:	78 80 00 08 	BRA        @0x02003e98    // 2003e98 <__call_exitprocs+0x198>
 2003e90:	0c 85 80 80 	LW         128(R6),R1
 2003e94:	87 f9 ff 98 	JSR        R3
 2003e98:	0c 85 c0 04 	LW         4(R7),R1
 2003e9c:	0c 06 40 00 	CMP        R9,R1
 2003ea0:	78 ab fe 90 	BNZ        @0x02003d34    // 2003d34 <__call_exitprocs+0x34>
 2003ea4:	8c e0 8b b8 	LW         (R12),R1       | CMP        R7,R1
 2003ea8:	78 8b ff 8c 	BZ         @0x02003e38    // 2003e38 <__call_exitprocs+0x138>
 2003eac:	78 83 fe 84 	BRA        @0x02003d34    // 2003d34 <__call_exitprocs+0x34>
 2003eb0:	0c 85 c0 04 	LW         4(R7),R1
 2003eb4:	0c 00 00 00 	CMP        $0,R1
 2003eb8:	78 a8 00 1c 	BNZ        @0x02003ed8    // 2003ed8 <__call_exitprocs+0x1d8>
 2003ebc:	8c b8 8b 00 	LW         (R7),R1        | CMP        $0,R1
 2003ec0:	78 88 00 48 	BZ         @0x02003f0c    // 2003f0c <__call_exitprocs+0x20c>
 2003ec4:	8d e0 8f b8 	SW         R1,(R12)       | MOV        R7,R1
 2003ec8:	87 fa fc f8 	JSR        0x0200097c     // 200097c <free>
 2003ecc:	02 00 09 7c 
 2003ed0:	3c 87 00 00 	LW         (R12),R7
 2003ed4:	78 80 00 04 	BRA        @0x02003edc    // 2003edc <__call_exitprocs+0x1dc>
 2003ed8:	e7 b8 bc b8 	MOV        R7,R12         | LW         (R7),R7
 2003edc:	3c 00 00 00 	CMP        $0,R7
 2003ee0:	78 ab fe 64 	BNZ        @0x02003d48    // 2003d48 <__call_exitprocs+0x48>
 2003ee4:	78 80 00 24 	BRA        @0x02003f0c    // 2003f0c <__call_exitprocs+0x20c>
 2003ee8:	0b 42 80 00 	MOV        R10,R1
 2003eec:	09 85 40 00 	LSL        R5,R1
 2003ef0:	14 85 c1 88 	LW         392(R7),R2
 2003ef4:	87 88 81 90 	MOV        R1,R0          | AND        R2,R0
 2003ef8:	78 8b ff 70 	BZ         @0x02003e6c    // 2003e6c <__call_exitprocs+0x16c>
 2003efc:	78 83 ff 74 	BRA        @0x02003e74    // 2003e74 <__call_exitprocs+0x174>
 2003f00:	1c 00 00 00 	CMP        $0,R3
 2003f04:	78 ab ff e0 	BNZ        @0x02003ee8    // 2003ee8 <__call_exitprocs+0x1e8>
 2003f08:	78 83 ff 2c 	BRA        @0x02003e38    // 2003e38 <__call_exitprocs+0x138>
 2003f0c:	84 08 ac 0c 	LW         8(SP),R0       | LW         12(SP),R5
 2003f10:	b4 10 bc 14 	LW         16(SP),R6      | LW         20(SP),R7
 2003f14:	c4 18 cc 1c 	LW         24(SP),R8      | LW         28(SP),R9
 2003f18:	d4 20 dc 24 	LW         32(SP),R10     | LW         36(SP),R11
 2003f1c:	e4 28 ea 2c 	LW         40(SP),R12     | ADD        $44,SP
 2003f20:	7b 40 00 00 	RTN

02003f24 <quorem>:
 2003f24:	e8 2c 85 08 	SUB        $44,SP         | SW         R0,$8(SP)
 2003f28:	ad 0c b5 10 	SW         R5,$12(SP)     | SW         R6,$16(SP)
 2003f2c:	bd 14 c5 18 	SW         R7,$20(SP)     | SW         R8,$24(SP)
 2003f30:	cd 1c d5 20 	SW         R9,$28(SP)     | SW         R10,$32(SP)
 2003f34:	dd 24 e5 28 	SW         R11,$36(SP)    | SW         R12,$40(SP)
 2003f38:	14 c7 40 00 	SW         R2,(SP)
 2003f3c:	44 84 80 10 	LW         16(R2),R8
 2003f40:	14 84 40 10 	LW         16(R1),R2
 2003f44:	14 06 00 00 	CMP        R8,R2
 2003f48:	78 90 01 90 	BLT        @0x020040dc    // 20040dc <quorem+0x1b8>
 2003f4c:	ac 00 aa 14 	LW         (SP),R5        | ADD        $20,R5
 2003f50:	c2 7f 87 c0 	ADD        $-1,R8         | MOV        R8,R0
 2003f54:	01 80 00 02 	LSL        $2,R0
 2003f58:	cf a8 ca 80 	MOV        R5,R9          | ADD        R0,R9
 2003f5c:	d7 88 d2 14 	MOV        R1,R10         | ADD        $20,R10
 2003f60:	97 d0 92 80 	MOV        R10,R2         | ADD        R0,R2
 2003f64:	95 04 84 c8 	SW         R2,$4(SP)      | LW         (R9),R0
 2003f68:	3c 84 80 00 	LW         (R2),R7
 2003f6c:	3b 84 00 01 	DIVU       $1+R0,R7
 2003f70:	78 88 00 b8 	BZ         @0x0200402c    // 200402c <quorem+0x108>
 2003f74:	df a8 b7 d0 	MOV        R5,R11         | MOV        R10,R6
 2003f78:	e6 00 a6 00 	CLR        R12            | CLR        R4
 2003f7c:	9c d8 da 04 	LW         (R11),R3       | ADD        $4,R11
 2003f80:	13 40 c0 00 	MOV        R3,R2
 2003f84:	10 40 ff ff 	AND        $65535,R2
 2003f88:	13 05 c0 00 	MPY        R7,R2
 2003f8c:	10 87 00 00 	ADD        R12,R2
 2003f90:	19 40 00 10 	LSR        $16,R3
 2003f94:	1b 05 c0 00 	MPY        R7,R3
 2003f98:	03 40 80 00 	MOV        R2,R0
 2003f9c:	01 40 00 10 	LSR        $16,R0
 2003fa0:	9a 80 e7 98 	ADD        R0,R3          | MOV        R3,R12
 2003fa4:	61 40 00 10 	LSR        $16,R12
 2003fa8:	04 85 80 00 	LW         (R6),R0
 2003fac:	10 40 ff ff 	AND        $65535,R2
 2003fb0:	a0 90 97 a0 	SUB        R2,R4          | MOV        R4,R2
 2003fb4:	23 40 00 00 	MOV        R0,R4
 2003fb8:	20 40 ff ff 	AND        $65535,R4
 2003fbc:	10 85 00 00 	ADD        R4,R2
 2003fc0:	01 40 00 10 	LSR        $16,R0
 2003fc4:	18 40 ff ff 	AND        $65535,R3
 2003fc8:	80 98 9f 90 	SUB        R3,R0          | MOV        R2,R3
 2003fcc:	19 c0 00 10 	ASR        $16,R3
 2003fd0:	82 98 a7 80 	ADD        R3,R0          | MOV        R0,R4
 2003fd4:	21 c0 00 10 	ASR        $16,R4
 2003fd8:	30 80 00 04 	ADD        $4,R6
 2003fdc:	01 80 00 10 	LSL        $16,R0
 2003fe0:	10 40 ff ff 	AND        $65535,R2
 2003fe4:	00 c4 80 00 	OR         R2,R0
 2003fe8:	85 b4 cb d8 	SW         R0,$-4(R6)     | CMP        R11,R9
 2003fec:	78 bb ff 8c 	BNC        @0x02003f7c    // 2003f7c <quorem+0x58>
 2003ff0:	9c 04 84 98 	LW         4(SP),R3       | LW         (R3),R0
 2003ff4:	04 00 00 00 	CMP        $0,R0
 2003ff8:	78 a8 00 30 	BNZ        @0x0200402c    // 200402c <quorem+0x108>
 2003ffc:	87 98 82 7c 	MOV        R3,R0          | ADD        $-4,R0
 2004000:	54 04 00 00 	CMP        R0,R10
 2004004:	78 b8 00 20 	BNC        @0x02004028    // 2004028 <quorem+0x104>
 2004008:	94 9c 93 00 	LW         -4(R3),R2      | CMP        $0,R2
 200400c:	78 a8 00 18 	BNZ        @0x02004028    // 2004028 <quorem+0x104>
 2004010:	c2 7f 82 7c 	ADD        $-1,R8         | ADD        $-4,R0
 2004014:	54 04 00 00 	CMP        R0,R10
 2004018:	78 b8 00 0c 	BNC        @0x02004028    // 2004028 <quorem+0x104>
 200401c:	94 80 93 00 	LW         (R0),R2        | CMP        $0,R2
 2004020:	78 8b ff ec 	BZ         @0x02004010    // 2004010 <quorem+0xec>
 2004024:	78 80 00 00 	BRA        @0x02004028    // 2004028 <quorem+0x104>
 2004028:	44 c4 40 10 	SW         R8,$16(R1)
 200402c:	94 00 b7 88 	LW         (SP),R2        | MOV        R1,R6
 2004030:	87 fa fc f8 	JSR        0x02008594     // 2008594 <__mcmp>
 2004034:	02 00 85 94 
 2004038:	0c 00 00 00 	CMP        $0,R1
 200403c:	78 90 00 94 	BLT        @0x020040d4    // 20040d4 <quorem+0x1b0>
 2004040:	ba 01 9f d0 	ADD        $1,R7          | MOV        R10,R3
 2004044:	16 00 00 00 	CLR        R2
 2004048:	dc a8 aa 04 	LW         (R5),R11       | ADD        $4,R5
 200404c:	8c 98 a7 d8 	LW         (R3),R1        | MOV        R11,R4
 2004050:	20 40 ff ff 	AND        $65535,R4
 2004054:	90 a0 e7 88 	SUB        R4,R2          | MOV        R1,R12
 2004058:	60 40 ff ff 	AND        $65535,R12
 200405c:	a7 90 a2 e0 	MOV        R2,R4          | ADD        R12,R4
 2004060:	09 40 00 10 	LSR        $16,R1
 2004064:	59 40 00 10 	LSR        $16,R11
 2004068:	88 d8 97 a0 	SUB        R11,R1         | MOV        R4,R2
 200406c:	11 c0 00 10 	ASR        $16,R2
 2004070:	8a 90 97 88 	ADD        R2,R1          | MOV        R1,R2
 2004074:	11 c0 00 10 	ASR        $16,R2
 2004078:	18 80 00 04 	ADD        $4,R3
 200407c:	09 80 00 10 	LSL        $16,R1
 2004080:	20 40 ff ff 	AND        $65535,R4
 2004084:	08 c5 00 00 	OR         R4,R1
 2004088:	8d 9c cb a8 	SW         R1,$-4(R3)     | CMP        R5,R9
 200408c:	78 bb ff b8 	BNC        @0x02004048    // 2004048 <quorem+0x124>
 2004090:	0b 42 00 00 	MOV        R8,R1
 2004094:	09 80 00 02 	LSL        $2,R1
 2004098:	97 d0 92 88 	MOV        R10,R2         | ADD        R1,R2
 200409c:	8c 90 8b 00 	LW         (R2),R1        | CMP        $0,R1
 20040a0:	78 a8 00 30 	BNZ        @0x020040d4    // 20040d4 <quorem+0x1b0>
 20040a4:	8f 90 8a 7c 	MOV        R2,R1          | ADD        $-4,R1
 20040a8:	54 04 40 00 	CMP        R1,R10
 20040ac:	78 b8 00 20 	BNC        @0x020040d0    // 20040d0 <quorem+0x1ac>
 20040b0:	94 94 93 00 	LW         -4(R2),R2      | CMP        $0,R2
 20040b4:	78 a8 00 18 	BNZ        @0x020040d0    // 20040d0 <quorem+0x1ac>
 20040b8:	c2 7f 8a 7c 	ADD        $-1,R8         | ADD        $-4,R1
 20040bc:	54 04 40 00 	CMP        R1,R10
 20040c0:	78 b8 00 0c 	BNC        @0x020040d0    // 20040d0 <quorem+0x1ac>
 20040c4:	94 88 93 00 	LW         (R1),R2        | CMP        $0,R2
 20040c8:	78 8b ff ec 	BZ         @0x020040b8    // 20040b8 <quorem+0x194>
 20040cc:	78 80 00 00 	BRA        @0x020040d0    // 20040d0 <quorem+0x1ac>
 20040d0:	44 c5 80 10 	SW         R8,$16(R6)
 20040d4:	0b 41 c0 00 	MOV        R7,R1
 20040d8:	78 80 00 04 	BRA        @0x020040e0    // 20040e0 <quorem+0x1bc>
 20040dc:	0e 00 00 00 	CLR        R1
 20040e0:	84 08 ac 0c 	LW         8(SP),R0       | LW         12(SP),R5
 20040e4:	b4 10 bc 14 	LW         16(SP),R6      | LW         20(SP),R7
 20040e8:	c4 18 cc 1c 	LW         24(SP),R8      | LW         28(SP),R9
 20040ec:	d4 20 dc 24 	LW         32(SP),R10     | LW         36(SP),R11
 20040f0:	e4 28 ea 2c 	LW         40(SP),R12     | ADD        $44,SP
 20040f4:	7b 40 00 00 	RTN

020040f8 <_dtoa_r>:
 20040f8:	68 00 00 78 	SUB        $120,SP
 20040fc:	04 c7 40 54 	SW         R0,$84(SP)
 2004100:	2c c7 40 58 	SW         R5,$88(SP)
 2004104:	34 c7 40 5c 	SW         R6,$92(SP)
 2004108:	3c c7 40 60 	SW         R7,$96(SP)
 200410c:	44 c7 40 64 	SW         R8,$100(SP)
 2004110:	4c c7 40 68 	SW         R9,$104(SP)
 2004114:	54 c7 40 6c 	SW         R10,$108(SP)
 2004118:	5c c7 40 70 	SW         R11,$112(SP)
 200411c:	64 c7 40 74 	SW         R12,$116(SP)
 2004120:	b7 88 c7 90 	MOV        R1,R6          | MOV        R2,R8
 2004124:	9d 08 e7 a0 	SW         R3,$8(SP)      | MOV        R4,R12
 2004128:	2c c7 40 10 	SW         R5,$16(SP)
 200412c:	2c 87 40 7c 	LW         124(SP),R5
 2004130:	14 c7 40 04 	SW         R2,$4(SP)
 2004134:	14 84 40 40 	LW         64(R1),R2
 2004138:	14 00 00 00 	CMP        $0,R2
 200413c:	78 88 00 24 	BZ         @0x02004164    // 2004164 <_dtoa_r+0x6c>
 2004140:	24 84 40 44 	LW         68(R1),R4
 2004144:	24 c4 80 04 	SW         R4,$4(R2)
 2004148:	1e 00 00 01 	LDI        $1,R3
 200414c:	19 85 00 00 	LSL        R4,R3
 2004150:	1c c4 80 08 	SW         R3,$8(R2)
 2004154:	87 fa fc f8 	JSR        0x0200779c     // 200779c <_Bfree>
 2004158:	02 00 77 9c 
 200415c:	0e 00 00 00 	CLR        R1
 2004160:	0c c5 80 40 	SW         R1,$64(R6)
 2004164:	44 00 00 00 	CMP        $0,R8
 2004168:	78 b0 00 10 	BGE        @0x0200417c    // 200417c <_dtoa_r+0x84>
 200416c:	96 01 95 a8 	LDI        $1,R2          | SW         R2,(R5)
 2004170:	0a 03 ff fe 	BREV       $-2,R1
 2004174:	c1 88 c5 04 	AND        R1,R8          | SW         R8,$4(SP)
 2004178:	78 80 00 04 	BRA        @0x02004180    // 2004180 <_dtoa_r+0x88>
 200417c:	9e 00 9d a8 	CLR        R3             | SW         R3,(R5)
 2004180:	0a 00 0f fe 	BREV       $4094,R1
 2004184:	97 c0 91 88 	MOV        R8,R2          | AND        R1,R2
 2004188:	14 04 40 00 	CMP        R1,R2
 200418c:	78 a8 00 4c 	BNZ        @0x020041dc    // 20041dc <_dtoa_r+0xe4>
 2004190:	16 00 27 0f 	LDI        $9999,R2
 2004194:	0c 87 40 78 	LW         120(SP),R1
 2004198:	95 88 9c 08 	SW         R2,(R1)        | LW         8(SP),R3
 200419c:	1c 00 00 00 	CMP        $0,R3
 20041a0:	78 a8 13 0c 	BNZ        @0x020054b0    // 20054b0 <_dtoa_r+0x13b8>
 20041a4:	0e 0f ff ff 	LDI        $1048575,R1
 20041a8:	40 44 40 00 	AND        R1,R8
 20041ac:	78 88 13 18 	BZ         @0x020054c8    // 20054c8 <_dtoa_r+0x13d0>
 20041b0:	78 80 12 fc 	BRA        @0x020054b0    // 20054b0 <_dtoa_r+0x13b8>
 20041b4:	0a 03 00 40 	LDI        0x0200e41c,R1  // 200e41c <blanks.4493+0x1c>
 20041b8:	0a 40 e4 1c 
 20041bc:	13 40 40 03 	MOV        $3+R1,R2
 20041c0:	78 80 00 0c 	BRA        @0x020041d0    // 20041d0 <_dtoa_r+0xd8>
 20041c4:	0a 03 00 40 	LDI        0x0200e410,R1  // 200e410 <blanks.4493+0x10>
 20041c8:	0a 40 e4 10 
 20041cc:	13 40 40 08 	MOV        $8+R1,R2
 20041d0:	1c 87 40 80 	LW         128(SP),R3
 20041d4:	14 c4 c0 00 	SW         R2,(R3)
 20041d8:	78 80 14 58 	BRA        @0x02005634    // 2005634 <_dtoa_r+0x153c>
 20041dc:	9e 00 a6 00 	CLR        R3             | CLR        R4
 20041e0:	8c 04 94 08 	LW         4(SP),R1       | LW         8(SP),R2
 20041e4:	87 fa fc f8 	JSR        0x0200d6fc     // 200d6fc <__eqdf2>
 20041e8:	02 00 d6 fc 
 20041ec:	0c 00 00 00 	CMP        $0,R1
 20041f0:	78 a8 00 38 	BNZ        @0x0200422c    // 200422c <_dtoa_r+0x134>
 20041f4:	16 00 00 01 	LDI        $1,R2
 20041f8:	0c 87 40 78 	LW         120(SP),R1
 20041fc:	14 c4 40 00 	SW         R2,(R1)
 2004200:	1c 87 40 80 	LW         128(SP),R3
 2004204:	0a 03 00 40 	LDI        0x0200e3ec,R1  // 200e3ec <_global_impure_ptr+0x48>
 2004208:	0a 40 e3 ec 
 200420c:	1c 00 00 00 	CMP        $0,R3
 2004210:	78 88 14 20 	BZ         @0x02005634    // 2005634 <_dtoa_r+0x153c>
 2004214:	0a 03 00 40 	LDI        0x0200e3ed,R1  // 200e3ed <_global_impure_ptr+0x49>
 2004218:	0a 40 e3 ed 
 200421c:	0c c4 c0 00 	SW         R1,(R3)
 2004220:	0a 03 00 40 	LDI        0x0200e3ec,R1  // 200e3ec <_global_impure_ptr+0x48>
 2004224:	0a 40 e3 ec 
 2004228:	78 80 14 08 	BRA        @0x02005634    // 2005634 <_dtoa_r+0x153c>
 200422c:	2b 43 40 4c 	MOV        $76+SP,R5
 2004230:	23 43 40 50 	MOV        $80+SP,R4
 2004234:	94 04 9c 08 	LW         4(SP),R2       | LW         8(SP),R3
 2004238:	0b 41 80 00 	MOV        R6,R1
 200423c:	87 fa fc f8 	JSR        0x02008aa0     // 2008aa0 <__d2b>
 2004240:	02 00 8a a0 
 2004244:	8d 24 af c0 	SW         R1,$36(SP)     | MOV        R8,R5
 2004248:	29 40 00 14 	LSR        $20,R5
 200424c:	78 88 00 2c 	BZ         @0x0200427c    // 200427c <_dtoa_r+0x184>
 2004250:	14 87 40 08 	LW         8(SP),R2
 2004254:	0e 0f ff ff 	LDI        $1048575,R1
 2004258:	9c 04 99 88 	LW         4(SP),R3       | AND        R1,R3
 200425c:	0b 40 c0 00 	MOV        R3,R1
 2004260:	1a 00 0f fc 	BREV       $4092,R3
 2004264:	08 c4 c0 00 	OR         R3,R1
 2004268:	28 83 fc 01 	ADD        $-1023,R5
 200426c:	3c 87 40 4c 	LW         76(SP),R7
 2004270:	06 00 00 00 	CLR        R0
 2004274:	04 c7 40 40 	SW         R0,$64(SP)
 2004278:	78 80 00 5c 	BRA        @0x020042d8    // 20042d8 <_dtoa_r+0x1e0>
 200427c:	3c 87 40 4c 	LW         76(SP),R7
 2004280:	0c 87 40 50 	LW         80(SP),R1
 2004284:	af b8 aa 88 	MOV        R7,R5          | ADD        R1,R5
 2004288:	13 41 40 00 	MOV        R5,R2
 200428c:	10 80 04 32 	ADD        $1074,R2
 2004290:	14 00 00 21 	CMP        $33,R2
 2004294:	78 90 00 18 	BLT        @0x020042b0    // 20042b0 <_dtoa_r+0x1b8>
 2004298:	0c 87 40 08 	LW         8(SP),R1
 200429c:	09 45 44 12 	LSR        $1042+R5,R1
 20042a0:	9e 40 98 90 	LDI        $64,R3         | SUB        R2,R3
 20042a4:	41 84 c0 00 	LSL        R3,R8
 20042a8:	08 c6 00 00 	OR         R8,R1
 20042ac:	78 80 00 10 	BRA        @0x020042c0    // 20042c0 <_dtoa_r+0x1c8>
 20042b0:	8e 20 88 90 	LDI        $32,R1         | SUB        R2,R1
 20042b4:	14 87 40 08 	LW         8(SP),R2
 20042b8:	11 84 40 00 	LSL        R1,R2
 20042bc:	0b 40 80 00 	MOV        R2,R1
 20042c0:	87 fa fc f8 	JSR        0x0200daa0     // 200daa0 <__floatunsidf>
 20042c4:	02 00 da a0 
 20042c8:	1a 00 08 7f 	BREV       $2175,R3
 20042cc:	8a 98 aa 7f 	ADD        R3,R1          | ADD        $-1,R5
 20042d0:	1e 00 00 01 	LDI        $1,R3
 20042d4:	1c c7 40 40 	SW         R3,$64(SP)
 20042d8:	1a 00 1f fc 	BREV       $8188,R3
 20042dc:	26 00 00 00 	CLR        R4
 20042e0:	87 fa fc f8 	JSR        0x0200cd28     // 200cd28 <__subdf3>
 20042e4:	02 00 cd 28 
 20042e8:	1a 01 4b fc 	LDI        0x3fd287a7,R3  // 3fd287a7 <_top_of_stack+0x3cd287a7>
 20042ec:	1a 40 87 a7 
 20042f0:	22 00 f6 c6 	LDI        0x636f4361,R4  // 636f4361 <_top_of_stack+0x606f4361>
 20042f4:	22 40 43 61 
 20042f8:	87 fa fc f8 	JSR        0x0200d134     // 200d134 <__muldf3>
 20042fc:	02 00 d1 34 
 2004300:	1a 01 63 fc 	LDI        0x3fc68a28,R3  // 3fc68a28 <_top_of_stack+0x3cc68a28>
 2004304:	1a 40 8a 28 
 2004308:	22 01 06 d1 	LDI        0x8b60c8b3,R4  // 8b60c8b3 <_top_of_stack+0x8860c8b3>
 200430c:	22 40 c8 b3 
 2004310:	87 fa fc f8 	JSR        0x0200c92c     // 200c92c <__adddf3>
 2004314:	02 00 c9 2c 
 2004318:	cf 88 c7 90 	MOV        R1,R9          | MOV        R2,R8
 200431c:	0b 41 40 00 	MOV        R5,R1
 2004320:	87 fa fc f8 	JSR        0x0200d944     // 200d944 <__floatsidf>
 2004324:	02 00 d9 44 
 2004328:	1a 00 cb fc 	LDI        0x3fd34413,R3  // 3fd34413 <_top_of_stack+0x3cd34413>
 200432c:	1a 40 44 13 
 2004330:	22 00 f9 0a 	LDI        0x509f79fb,R4  // 509f79fb <_top_of_stack+0x4d9f79fb>
 2004334:	22 40 79 fb 
 2004338:	87 fa fc f8 	JSR        0x0200d134     // 200d134 <__muldf3>
 200433c:	02 00 d1 34 
 2004340:	9f 88 a7 90 	MOV        R1,R3          | MOV        R2,R4
 2004344:	8f c8 97 c0 	MOV        R9,R1          | MOV        R8,R2
 2004348:	87 fa fc f8 	JSR        0x0200c92c     // 200c92c <__adddf3>
 200434c:	02 00 c9 2c 
 2004350:	cf 88 c7 90 	MOV        R1,R9          | MOV        R2,R8
 2004354:	87 fa fc f8 	JSR        0x0200d9f0     // 200d9f0 <__fixdfsi>
 2004358:	02 00 d9 f0 
 200435c:	8d 0c 9e 00 	SW         R1,$12(SP)     | CLR        R3
 2004360:	a6 00 8f c8 	CLR        R4             | MOV        R9,R1
 2004364:	13 42 00 00 	MOV        R8,R2
 2004368:	87 fa fc f8 	JSR        0x0200d828     // 200d828 <__ltdf2>
 200436c:	02 00 d8 28 
 2004370:	0c 00 00 00 	CMP        $0,R1
 2004374:	78 b0 00 2c 	BGE        @0x020043a4    // 20043a4 <_dtoa_r+0x2ac>
 2004378:	0c 87 40 0c 	LW         12(SP),R1
 200437c:	87 fa fc f8 	JSR        0x0200d944     // 200d944 <__floatsidf>
 2004380:	02 00 d9 44 
 2004384:	9f 88 a7 90 	MOV        R1,R3          | MOV        R2,R4
 2004388:	8f c8 97 c0 	MOV        R9,R1          | MOV        R8,R2
 200438c:	87 fa fc f8 	JSR        0x0200d760     // 200d760 <__nedf2>
 2004390:	02 00 d7 60 
 2004394:	0c 00 00 00 	CMP        $0,R1
 2004398:	78 88 00 08 	BZ         @0x020043a4    // 20043a4 <_dtoa_r+0x2ac>
 200439c:	84 0c 82 7f 	LW         12(SP),R0      | ADD        $-1,R0
 20043a0:	04 c7 40 0c 	SW         R0,$12(SP)
 20043a4:	8c 0c 8b 17 	LW         12(SP),R1      | CMP        $23,R1
 20043a8:	78 b8 00 3c 	BNC        @0x020043e8    // 20043e8 <_dtoa_r+0x2f0>
 20043ac:	13 40 40 00 	MOV        R1,R2
 20043b0:	11 80 00 03 	LSL        $3,R2
 20043b4:	0a 03 00 40 	LDI        0x0200e48c,R1  // 200e48c <__mprec_tens>
 20043b8:	0a 40 e4 8c 
 20043bc:	8a 90 9c 88 	ADD        R2,R1          | LW         (R1),R3
 20043c0:	24 84 40 04 	LW         4(R1),R4
 20043c4:	8c 04 94 08 	LW         4(SP),R1       | LW         8(SP),R2
 20043c8:	87 fa fc f8 	JSR        0x0200d828     // 200d828 <__ltdf2>
 20043cc:	02 00 d8 28 
 20043d0:	0c 00 00 00 	CMP        $0,R1
 20043d4:	78 b0 00 18 	BGE        @0x020043f0    // 20043f0 <_dtoa_r+0x2f8>
 20043d8:	94 0c 92 7f 	LW         12(SP),R2      | ADD        $-1,R2
 20043dc:	95 0c 9e 00 	SW         R2,$12(SP)     | CLR        R3
 20043e0:	1c c7 40 3c 	SW         R3,$60(SP)
 20043e4:	78 80 00 0c 	BRA        @0x020043f4    // 20043f4 <_dtoa_r+0x2fc>
 20043e8:	86 01 85 3c 	LDI        $1,R0          | SW         R0,$60(SP)
 20043ec:	78 80 00 04 	BRA        @0x020043f4    // 20043f4 <_dtoa_r+0x2fc>
 20043f0:	8e 00 8d 3c 	CLR        R1             | SW         R1,$60(SP)
 20043f4:	b8 a8 97 b8 	SUB        R5,R7          | MOV        R7,R2
 20043f8:	92 7f 95 14 	ADD        $-1,R2         | SW         R2,$20(SP)
 20043fc:	78 b0 00 10 	BGE        @0x02004410    // 2004410 <_dtoa_r+0x318>
 2004400:	8e 01 88 b8 	LDI        $1,R1          | SUB        R7,R1
 2004404:	8d 20 9e 00 	SW         R1,$32(SP)     | CLR        R3
 2004408:	1c c7 40 14 	SW         R3,$20(SP)
 200440c:	78 80 00 04 	BRA        @0x02004414    // 2004414 <_dtoa_r+0x31c>
 2004410:	86 00 85 20 	CLR        R0             | SW         R0,$32(SP)
 2004414:	8c 0c 8b 00 	LW         12(SP),R1      | CMP        $0,R1
 2004418:	78 90 00 10 	BLT        @0x0200442c    // 200442c <_dtoa_r+0x334>
 200441c:	94 14 92 88 	LW         20(SP),R2      | ADD        R1,R2
 2004420:	95 14 8d 34 	SW         R2,$20(SP)     | SW         R1,$52(SP)
 2004424:	9e 00 9d 30 	CLR        R3             | SW         R3,$48(SP)
 2004428:	78 80 00 18 	BRA        @0x02004444    // 2004444 <_dtoa_r+0x34c>
 200442c:	84 20 80 88 	LW         32(SP),R0      | SUB        R1,R0
 2004430:	04 c7 40 20 	SW         R0,$32(SP)
 2004434:	13 40 5f ff 	MOV        $-1+R1,R2
 2004438:	11 03 ff ff 	XOR        $-1,R2
 200443c:	95 30 9e 00 	SW         R2,$48(SP)     | CLR        R3
 2004440:	1c c7 40 34 	SW         R3,$52(SP)
 2004444:	64 00 00 0a 	CMP        $10,R12
 2004448:	78 b8 11 a8 	BNC        @0x020055f4    // 20055f4 <_dtoa_r+0x14fc>
 200444c:	ae 01 e3 06 	LDI        $1,R5          | CMP        $6,R12
 2004450:	78 90 11 2c 	BLT        @0x02005580    // 2005580 <_dtoa_r+0x1488>
 2004454:	e2 7c ae 00 	ADD        $-4,R12        | CLR        R5
 2004458:	78 80 11 24 	BRA        @0x02005580    // 2005580 <_dtoa_r+0x1488>
 200445c:	86 01 85 28 	LDI        $1,R0          | SW         R0,$40(SP)
 2004460:	78 80 00 04 	BRA        @0x02004468    // 2004468 <_dtoa_r+0x370>
 2004464:	8e 00 8d 28 	CLR        R1             | SW         R1,$40(SP)
 2004468:	94 10 93 01 	LW         16(SP),R2      | CMP        $1,R2
 200446c:	78 90 11 40 	BLT        @0x020055b0    // 20055b0 <_dtoa_r+0x14b8>
 2004470:	bf 90 93 0f 	MOV        R2,R7          | CMP        $15,R2
 2004474:	0e 00 00 00 	CLR        R1
 2004478:	0a 58 00 01 	LDILO.C    $1,R1
 200447c:	a9 88 95 2c 	AND        R1,R5          | SW         R2,$44(SP)
 2004480:	14 c7 40 1c 	SW         R2,$28(SP)
 2004484:	78 80 00 24 	BRA        @0x020044ac    // 20044ac <_dtoa_r+0x3b4>
 2004488:	9e 00 9d 28 	CLR        R3             | SW         R3,$40(SP)
 200448c:	84 0c 8c 10 	LW         12(SP),R0      | LW         16(SP),R1
 2004490:	82 88 85 2c 	ADD        R1,R0          | SW         R0,$44(SP)
 2004494:	82 01 85 1c 	ADD        $1,R0          | SW         R0,$28(SP)
 2004498:	be 01 bb 80 	LDI        $1,R7          | CMP        R0,R7
 200449c:	3b 50 00 00 	MOV.LT     R0,R7
 20044a0:	83 0f 8e 00 	CMP        $15,R0         | CLR        R1
 20044a4:	0a 58 00 01 	LDILO.C    $1,R1
 20044a8:	28 44 40 00 	AND        R1,R5
 20044ac:	16 00 00 00 	CLR        R2
 20044b0:	14 c5 80 44 	SW         R2,$68(R6)
 20044b4:	96 00 bb 18 	CLR        R2             | CMP        $24,R7
 20044b8:	78 98 00 1c 	BC         @0x020044d8    // 20044d8 <_dtoa_r+0x3e0>
 20044bc:	9e 01 8e 04 	LDI        $1,R3          | LDI        $4,R1
 20044c0:	97 98 8a 88 	MOV        R3,R2          | ADD        R1,R1
 20044c4:	9f 99 a7 88 	MOV        $1+R3,R3       | MOV        R1,R4
 20044c8:	a2 14 bb a0 	ADD        $20,R4         | CMP        R4,R7
 20044cc:	78 bb ff f0 	BNC        @0x020044c0    // 20044c0 <_dtoa_r+0x3c8>
 20044d0:	14 c5 80 44 	SW         R2,$68(R6)
 20044d4:	78 80 00 00 	BRA        @0x020044d8    // 20044d8 <_dtoa_r+0x3e0>
 20044d8:	0b 41 80 00 	MOV        R6,R1
 20044dc:	87 fa fc f8 	JSR        0x02007700     // 2007700 <_Balloc>
 20044e0:	02 00 77 00 
 20044e4:	0c c7 40 18 	SW         R1,$24(SP)
 20044e8:	0c c5 80 40 	SW         R1,$64(R6)
 20044ec:	2c 00 00 00 	CMP        $0,R5
 20044f0:	78 88 05 50 	BZ         @0x02004a44    // 2004a44 <_dtoa_r+0x94c>
 20044f4:	9c 0c 9b 01 	LW         12(SP),R3      | CMP        $1,R3
 20044f8:	78 90 00 b0 	BLT        @0x020045ac    // 20045ac <_dtoa_r+0x4b4>
 20044fc:	97 98 91 0f 	MOV        R3,R2          | AND        $15,R2
 2004500:	11 80 00 03 	LSL        $3,R2
 2004504:	0a 03 00 40 	LDI        0x0200e48c,R1  // 200e48c <__mprec_tens>
 2004508:	0a 40 e4 8c 
 200450c:	8a 90 d4 88 	ADD        R2,R1          | LW         (R1),R10
 2004510:	4c 84 40 04 	LW         4(R1),R9
 2004514:	2b 40 c0 00 	MOV        R3,R5
 2004518:	29 c0 00 04 	ASR        $4,R5
 200451c:	8f a8 89 10 	MOV        R5,R1          | AND        $16,R1
 2004520:	78 88 00 2c 	BZ         @0x02004550    // 2004550 <_dtoa_r+0x458>
 2004524:	28 40 00 0f 	AND        $15,R5
 2004528:	0a 03 00 40 	LDI        0x0200e464,R1  // 200e464 <__mprec_bigtens>
 200452c:	0a 40 e4 64 
 2004530:	1c 84 40 20 	LW         32(R1),R3
 2004534:	24 84 40 24 	LW         36(R1),R4
 2004538:	8c 04 94 08 	LW         4(SP),R1       | LW         8(SP),R2
 200453c:	87 fa fc f8 	JSR        0x0200d4dc     // 200d4dc <__divdf3>
 2004540:	02 00 d4 dc 
 2004544:	8d 38 df 90 	SW         R1,$56(SP)     | MOV        R2,R11
 2004548:	46 00 00 03 	LDI        $3,R8
 200454c:	78 80 00 08 	BRA        @0x02004558    // 2004558 <_dtoa_r+0x460>
 2004550:	84 04 85 38 	LW         4(SP),R0       | SW         R0,$56(SP)
 2004554:	dc 08 c6 02 	LW         8(SP),R11      | LDI        $2,R8
 2004558:	2c 00 00 00 	CMP        $0,R5
 200455c:	78 88 00 34 	BZ         @0x02004594    // 2004594 <_dtoa_r+0x49c>
 2004560:	3a 03 00 40 	LDI        0x0200e464,R7  // 200e464 <__mprec_bigtens>
 2004564:	3a 40 e4 64 
 2004568:	8f d0 97 c8 	MOV        R10,R1         | MOV        R9,R2
 200456c:	9f a8 99 01 	MOV        R5,R3          | AND        $1,R3
 2004570:	78 88 00 10 	BZ         @0x02004584    // 2004584 <_dtoa_r+0x48c>
 2004574:	c2 01 9c b8 	ADD        $1,R8          | LW         (R7),R3
 2004578:	24 85 c0 04 	LW         4(R7),R4
 200457c:	87 fa fc f8 	JSR        0x0200d134     // 200d134 <__muldf3>
 2004580:	02 00 d1 34 
 2004584:	29 c0 00 01 	ASR        $1,R5
 2004588:	ba 08 ab 00 	ADD        $8,R7          | CMP        $0,R5
 200458c:	78 ab ff dc 	BNZ        @0x0200456c    // 200456c <_dtoa_r+0x474>
 2004590:	d7 88 cf 90 	MOV        R1,R10         | MOV        R2,R9
 2004594:	9f d0 a7 c8 	MOV        R10,R3         | MOV        R9,R4
 2004598:	8c 38 97 d8 	LW         56(SP),R1      | MOV        R11,R2
 200459c:	87 fa fc f8 	JSR        0x0200d4dc     // 200d4dc <__divdf3>
 20045a0:	02 00 d4 dc 
 20045a4:	d7 88 bf 90 	MOV        R1,R10         | MOV        R2,R7
 20045a8:	78 80 00 88 	BRA        @0x02004634    // 2004634 <_dtoa_r+0x53c>
 20045ac:	1c 00 00 00 	CMP        $0,R3
 20045b0:	78 88 00 70 	BZ         @0x02004624    // 2004624 <_dtoa_r+0x52c>
 20045b4:	2b 40 df ff 	MOV        $-1+R3,R5
 20045b8:	29 03 ff ff 	XOR        $-1,R5
 20045bc:	97 a8 91 0f 	MOV        R5,R2          | AND        $15,R2
 20045c0:	11 80 00 03 	LSL        $3,R2
 20045c4:	0a 03 00 40 	LDI        0x0200e48c,R1  // 200e48c <__mprec_tens>
 20045c8:	0a 40 e4 8c 
 20045cc:	8a 90 9c 88 	ADD        R2,R1          | LW         (R1),R3
 20045d0:	24 84 40 04 	LW         4(R1),R4
 20045d4:	8c 04 94 08 	LW         4(SP),R1       | LW         8(SP),R2
 20045d8:	87 fa fc f8 	JSR        0x0200d134     // 200d134 <__muldf3>
 20045dc:	02 00 d1 34 
 20045e0:	d7 88 bf 90 	MOV        R1,R10         | MOV        R2,R7
 20045e4:	29 c0 00 04 	ASR        $4,R5
 20045e8:	78 88 00 44 	BZ         @0x02004630    // 2004630 <_dtoa_r+0x538>
 20045ec:	4a 03 00 40 	LDI        0x0200e464,R9  // 200e464 <__mprec_bigtens>
 20045f0:	4a 40 e4 64 
 20045f4:	c6 02 8f d0 	LDI        $2,R8          | MOV        R10,R1
 20045f8:	9f a8 99 01 	MOV        R5,R3          | AND        $1,R3
 20045fc:	78 88 00 10 	BZ         @0x02004610    // 2004610 <_dtoa_r+0x518>
 2004600:	c2 01 9c c8 	ADD        $1,R8          | LW         (R9),R3
 2004604:	24 86 40 04 	LW         4(R9),R4
 2004608:	87 fa fc f8 	JSR        0x0200d134     // 200d134 <__muldf3>
 200460c:	02 00 d1 34 
 2004610:	29 c0 00 01 	ASR        $1,R5
 2004614:	ca 08 ab 00 	ADD        $8,R9          | CMP        $0,R5
 2004618:	78 ab ff dc 	BNZ        @0x020045f8    // 20045f8 <_dtoa_r+0x500>
 200461c:	d7 88 bf 90 	MOV        R1,R10         | MOV        R2,R7
 2004620:	78 80 00 10 	BRA        @0x02004634    // 2004634 <_dtoa_r+0x53c>
 2004624:	d4 04 bc 08 	LW         4(SP),R10      | LW         8(SP),R7
 2004628:	46 00 00 02 	LDI        $2,R8
 200462c:	78 80 00 04 	BRA        @0x02004634    // 2004634 <_dtoa_r+0x53c>
 2004630:	46 00 00 02 	LDI        $2,R8
 2004634:	94 3c 93 00 	LW         60(SP),R2      | CMP        $0,R2
 2004638:	78 88 00 88 	BZ         @0x020046c4    // 20046c4 <_dtoa_r+0x5cc>
 200463c:	1a 00 0f fc 	BREV       $4092,R3
 2004640:	a6 00 8f d0 	CLR        R4             | MOV        R10,R1
 2004644:	13 41 c0 00 	MOV        R7,R2
 2004648:	87 fa fc f8 	JSR        0x0200d828     // 200d828 <__ltdf2>
 200464c:	02 00 d8 28 
 2004650:	0c 00 00 00 	CMP        $0,R1
 2004654:	78 b0 00 6c 	BGE        @0x020046c4    // 20046c4 <_dtoa_r+0x5cc>
 2004658:	9c 1c 9b 00 	LW         28(SP),R3      | CMP        $0,R3
 200465c:	78 88 0e 80 	BZ         @0x020054e0    // 20054e0 <_dtoa_r+0x13e8>
 2004660:	84 2c 83 01 	LW         44(SP),R0      | CMP        $1,R0
 2004664:	78 90 03 dc 	BLT        @0x02004a44    // 2004a44 <_dtoa_r+0x94c>
 2004668:	8c 0c 8a 7f 	LW         12(SP),R1      | ADD        $-1,R1
 200466c:	0c c7 40 44 	SW         R1,$68(SP)
 2004670:	1a 00 24 02 	BREV       $9218,R3
 2004674:	a6 00 8f d0 	CLR        R4             | MOV        R10,R1
 2004678:	13 41 c0 00 	MOV        R7,R2
 200467c:	87 fa fc f8 	JSR        0x0200d134     // 200d134 <__muldf3>
 2004680:	02 00 d1 34 
 2004684:	d7 88 bf 90 	MOV        R1,R10         | MOV        R2,R7
 2004688:	8f c0 8a 01 	MOV        R8,R1          | ADD        $1,R1
 200468c:	87 fa fc f8 	JSR        0x0200d944     // 200d944 <__floatsidf>
 2004690:	02 00 d9 44 
 2004694:	9f d0 a7 b8 	MOV        R10,R3         | MOV        R7,R4
 2004698:	87 fa fc f8 	JSR        0x0200d134     // 200d134 <__muldf3>
 200469c:	02 00 d1 34 
 20046a0:	1a 00 38 02 	BREV       $14338,R3
 20046a4:	26 00 00 00 	CLR        R4
 20046a8:	87 fa fc f8 	JSR        0x0200c92c     // 200c92c <__adddf3>
 20046ac:	02 00 c9 2c 
 20046b0:	43 40 80 00 	MOV        R2,R8
 20046b4:	12 00 03 3f 	BREV       $831,R2
 20046b8:	af 88 aa 90 	MOV        R1,R5          | ADD        R2,R5
 20046bc:	94 2c 95 38 	LW         44(SP),R2      | SW         R2,$56(SP)
 20046c0:	78 80 00 9c 	BRA        @0x02004760    // 2004760 <_dtoa_r+0x668>
 20046c4:	0b 42 00 00 	MOV        R8,R1
 20046c8:	87 fa fc f8 	JSR        0x0200d944     // 200d944 <__floatsidf>
 20046cc:	02 00 d9 44 
 20046d0:	9f d0 a7 b8 	MOV        R10,R3         | MOV        R7,R4
 20046d4:	87 fa fc f8 	JSR        0x0200d134     // 200d134 <__muldf3>
 20046d8:	02 00 d1 34 
 20046dc:	1a 00 38 02 	BREV       $14338,R3
 20046e0:	26 00 00 00 	CLR        R4
 20046e4:	87 fa fc f8 	JSR        0x0200c92c     // 200c92c <__adddf3>
 20046e8:	02 00 c9 2c 
 20046ec:	43 40 80 00 	MOV        R2,R8
 20046f0:	12 00 03 3f 	BREV       $831,R2
 20046f4:	af 88 aa 90 	MOV        R1,R5          | ADD        R2,R5
 20046f8:	9c 1c 9b 00 	LW         28(SP),R3      | CMP        $0,R3
 20046fc:	78 a8 00 54 	BNZ        @0x02004754    // 2004754 <_dtoa_r+0x65c>
 2004700:	1a 00 28 02 	BREV       $10242,R3
 2004704:	a6 00 8f d0 	CLR        R4             | MOV        R10,R1
 2004708:	13 41 c0 00 	MOV        R7,R2
 200470c:	87 fa fc f8 	JSR        0x0200cd28     // 200cd28 <__subdf3>
 2004710:	02 00 cd 28 
 2004714:	cf 88 bf 90 	MOV        R1,R9          | MOV        R2,R7
 2004718:	9f a8 a7 c0 	MOV        R5,R3          | MOV        R8,R4
 200471c:	87 fa fc f8 	JSR        0x0200d7c4     // 200d7c4 <__gtdf2>
 2004720:	02 00 d7 c4 
 2004724:	0c 00 00 01 	CMP        $1,R1
 2004728:	78 b0 09 68 	BGE        @0x02005094    // 2005094 <_dtoa_r+0xf9c>
 200472c:	0a 00 00 01 	BREV       $1,R1
 2004730:	1b 41 40 00 	MOV        R5,R3
 2004734:	19 04 40 00 	XOR        R1,R3
 2004738:	a7 c0 8f c8 	MOV        R8,R4          | MOV        R9,R1
 200473c:	13 41 c0 00 	MOV        R7,R2
 2004740:	87 fa fc f8 	JSR        0x0200d828     // 200d828 <__ltdf2>
 2004744:	02 00 d8 28 
 2004748:	0c 00 00 00 	CMP        $0,R1
 200474c:	78 90 09 20 	BLT        @0x02005070    // 2005070 <_dtoa_r+0xf78>
 2004750:	78 80 02 f0 	BRA        @0x02004a44    // 2004a44 <_dtoa_r+0x94c>
 2004754:	04 87 40 0c 	LW         12(SP),R0
 2004758:	04 c7 40 44 	SW         R0,$68(SP)
 200475c:	1c c7 40 38 	SW         R3,$56(SP)
 2004760:	94 28 93 00 	LW         40(SP),R2      | CMP        $0,R2
 2004764:	78 88 01 84 	BZ         @0x020048ec    // 20048ec <_dtoa_r+0x7f4>
 2004768:	94 38 92 7f 	LW         56(SP),R2      | ADD        $-1,R2
 200476c:	11 80 00 03 	LSL        $3,R2
 2004770:	0a 03 00 40 	LDI        0x0200e48c,R1  // 200e48c <__mprec_tens>
 2004774:	0a 40 e4 8c 
 2004778:	8a 90 9c 88 	ADD        R2,R1          | LW         (R1),R3
 200477c:	24 84 40 04 	LW         4(R1),R4
 2004780:	0a 00 07 fc 	BREV       $2044,R1
 2004784:	16 00 00 00 	CLR        R2
 2004788:	87 fa fc f8 	JSR        0x0200d4dc     // 200d4dc <__divdf3>
 200478c:	02 00 d4 dc 
 2004790:	9f a8 a7 c0 	MOV        R5,R3          | MOV        R8,R4
 2004794:	87 fa fc f8 	JSR        0x0200cd28     // 200cd28 <__subdf3>
 2004798:	02 00 cd 28 
 200479c:	af 88 cf 90 	MOV        R1,R5          | MOV        R2,R9
 20047a0:	8f d0 97 b8 	MOV        R10,R1         | MOV        R7,R2
 20047a4:	87 fa fc f8 	JSR        0x0200d9f0     // 200d9f0 <__fixdfsi>
 20047a8:	02 00 d9 f0 
 20047ac:	43 40 40 00 	MOV        R1,R8
 20047b0:	87 fa fc f8 	JSR        0x0200d944     // 200d944 <__floatsidf>
 20047b4:	02 00 d9 44 
 20047b8:	9f 88 a7 90 	MOV        R1,R3          | MOV        R2,R4
 20047bc:	8f d0 97 b8 	MOV        R10,R1         | MOV        R7,R2
 20047c0:	87 fa fc f8 	JSR        0x0200cd28     // 200cd28 <__subdf3>
 20047c4:	02 00 cd 28 
 20047c8:	d7 88 df 90 	MOV        R1,R10         | MOV        R2,R11
 20047cc:	bc 18 ba 01 	LW         24(SP),R7      | ADD        $1,R7
 20047d0:	40 80 00 30 	ADD        $48,R8
 20047d4:	40 40 00 ff 	AND        $255,R8
 20047d8:	1c 87 40 18 	LW         24(SP),R3
 20047dc:	45 c4 c0 00 	SB         R8,(R3)
 20047e0:	9f d0 a7 90 	MOV        R10,R3         | MOV        R2,R4
 20047e4:	8f a8 97 c8 	MOV        R5,R1          | MOV        R9,R2
 20047e8:	87 fa fc f8 	JSR        0x0200d7c4     // 200d7c4 <__gtdf2>
 20047ec:	02 00 d7 c4 
 20047f0:	0c 00 00 01 	CMP        $1,R1
 20047f4:	78 b0 0c 70 	BGE        @0x02005468    // 2005468 <_dtoa_r+0x1370>
 20047f8:	9f d0 a7 d8 	MOV        R10,R3         | MOV        R11,R4
 20047fc:	0a 00 0f fc 	BREV       $4092,R1
 2004800:	16 00 00 00 	CLR        R2
 2004804:	87 fa fc f8 	JSR        0x0200cd28     // 200cd28 <__subdf3>
 2004808:	02 00 cd 28 
 200480c:	9f 88 a7 90 	MOV        R1,R3          | MOV        R2,R4
 2004810:	8f a8 97 c8 	MOV        R5,R1          | MOV        R9,R2
 2004814:	87 fa fc f8 	JSR        0x0200d7c4     // 200d7c4 <__gtdf2>
 2004818:	02 00 d7 c4 
 200481c:	0c 00 00 01 	CMP        $1,R1
 2004820:	78 b0 03 f8 	BGE        @0x02004c1c    // 2004c1c <_dtoa_r+0xb24>
 2004824:	84 38 83 01 	LW         56(SP),R0      | CMP        $1,R0
 2004828:	78 a8 00 3c 	BNZ        @0x02004868    // 2004868 <_dtoa_r+0x770>
 200482c:	78 80 02 14 	BRA        @0x02004a44    // 2004a44 <_dtoa_r+0x94c>
 2004830:	9f d0 a7 d8 	MOV        R10,R3         | MOV        R11,R4
 2004834:	0a 00 0f fc 	BREV       $4092,R1
 2004838:	16 00 00 00 	CLR        R2
 200483c:	87 fa fc f8 	JSR        0x0200cd28     // 200cd28 <__subdf3>
 2004840:	02 00 cd 28 
 2004844:	9f a8 a7 c8 	MOV        R5,R3          | MOV        R9,R4
 2004848:	87 fa fc f8 	JSR        0x0200d828     // 200d828 <__ltdf2>
 200484c:	02 00 d8 28 
 2004850:	0c 00 00 00 	CMP        $0,R1
 2004854:	78 90 03 cc 	BLT        @0x02004c24    // 2004c24 <_dtoa_r+0xb2c>
 2004858:	3c 07 00 00 	CMP        R12,R7
 200485c:	78 a8 00 10 	BNZ        @0x02004870    // 2004870 <_dtoa_r+0x778>
 2004860:	64 87 40 38 	LW         56(SP),R12
 2004864:	78 80 01 dc 	BRA        @0x02004a44    // 2004a44 <_dtoa_r+0x94c>
 2004868:	c4 18 c2 80 	LW         24(SP),R8      | ADD        R0,R8
 200486c:	e5 38 e7 c0 	SW         R12,$56(SP)    | MOV        R8,R12
 2004870:	1a 00 24 02 	BREV       $9218,R3
 2004874:	a6 00 8f a8 	CLR        R4             | MOV        R5,R1
 2004878:	13 42 40 00 	MOV        R9,R2
 200487c:	87 fa fc f8 	JSR        0x0200d134     // 200d134 <__muldf3>
 2004880:	02 00 d1 34 
 2004884:	af 88 cf 90 	MOV        R1,R5          | MOV        R2,R9
 2004888:	1a 00 24 02 	BREV       $9218,R3
 200488c:	a6 00 8f d0 	CLR        R4             | MOV        R10,R1
 2004890:	13 42 c0 00 	MOV        R11,R2
 2004894:	87 fa fc f8 	JSR        0x0200d134     // 200d134 <__muldf3>
 2004898:	02 00 d1 34 
 200489c:	df 88 d7 90 	MOV        R1,R11         | MOV        R2,R10
 20048a0:	87 fa fc f8 	JSR        0x0200d9f0     // 200d9f0 <__fixdfsi>
 20048a4:	02 00 d9 f0 
 20048a8:	43 40 40 00 	MOV        R1,R8
 20048ac:	87 fa fc f8 	JSR        0x0200d944     // 200d944 <__floatsidf>
 20048b0:	02 00 d9 44 
 20048b4:	9f 88 a7 90 	MOV        R1,R3          | MOV        R2,R4
 20048b8:	8f d8 97 d0 	MOV        R11,R1         | MOV        R10,R2
 20048bc:	87 fa fc f8 	JSR        0x0200cd28     // 200cd28 <__subdf3>
 20048c0:	02 00 cd 28 
 20048c4:	d7 88 df 90 	MOV        R1,R10         | MOV        R2,R11
 20048c8:	ba 01 c2 30 	ADD        $1,R7          | ADD        $48,R8
 20048cc:	40 40 00 ff 	AND        $255,R8
 20048d0:	45 c5 ff ff 	SB         R8,$-1(R7)
 20048d4:	9f a8 a7 c8 	MOV        R5,R3          | MOV        R9,R4
 20048d8:	87 fa fc f8 	JSR        0x0200d828     // 200d828 <__ltdf2>
 20048dc:	02 00 d8 28 
 20048e0:	0c 00 00 00 	CMP        $0,R1
 20048e4:	78 b3 ff 48 	BGE        @0x02004830    // 2004830 <_dtoa_r+0x738>
 20048e8:	78 80 0b 88 	BRA        @0x02005474    // 2005474 <_dtoa_r+0x137c>
 20048ec:	94 38 92 7f 	LW         56(SP),R2      | ADD        $-1,R2
 20048f0:	11 80 00 03 	LSL        $3,R2
 20048f4:	0a 03 00 40 	LDI        0x0200e48c,R1  // 200e48c <__mprec_tens>
 20048f8:	0a 40 e4 8c 
 20048fc:	8a 90 9f a8 	ADD        R2,R1          | MOV        R5,R3
 2004900:	23 42 00 00 	MOV        R8,R4
 2004904:	14 84 40 04 	LW         4(R1),R2
 2004908:	0c 84 40 00 	LW         (R1),R1
 200490c:	87 fa fc f8 	JSR        0x0200d134     // 200d134 <__muldf3>
 2004910:	02 00 d1 34 
 2004914:	5b 40 40 00 	MOV        R1,R11
 2004918:	14 c7 40 48 	SW         R2,$72(SP)
 200491c:	8f d0 97 b8 	MOV        R10,R1         | MOV        R7,R2
 2004920:	87 fa fc f8 	JSR        0x0200d9f0     // 200d9f0 <__fixdfsi>
 2004924:	02 00 d9 f0 
 2004928:	43 40 40 00 	MOV        R1,R8
 200492c:	87 fa fc f8 	JSR        0x0200d944     // 200d944 <__floatsidf>
 2004930:	02 00 d9 44 
 2004934:	9f 88 a7 90 	MOV        R1,R3          | MOV        R2,R4
 2004938:	8f d0 97 b8 	MOV        R10,R1         | MOV        R7,R2
 200493c:	87 fa fc f8 	JSR        0x0200cd28     // 200cd28 <__subdf3>
 2004940:	02 00 cd 28 
 2004944:	af 88 cf 90 	MOV        R1,R5          | MOV        R2,R9
 2004948:	bc 18 ba 01 	LW         24(SP),R7      | ADD        $1,R7
 200494c:	40 80 00 30 	ADD        $48,R8
 2004950:	40 40 00 ff 	AND        $255,R8
 2004954:	14 87 40 18 	LW         24(SP),R2
 2004958:	45 c4 80 00 	SB         R8,(R2)
 200495c:	9c 38 d7 90 	LW         56(SP),R3      | MOV        R2,R10
 2004960:	d2 98 8f a8 	ADD        R3,R10         | MOV        R5,R1
 2004964:	97 c8 9b 01 	MOV        R9,R2          | CMP        $1,R3
 2004968:	78 a8 00 7c 	BNZ        @0x020049e8    // 20049e8 <_dtoa_r+0x8f0>
 200496c:	1a 00 07 fc 	BREV       $2044,R3
 2004970:	a6 00 8f d8 	CLR        R4             | MOV        R11,R1
 2004974:	14 87 40 48 	LW         72(SP),R2
 2004978:	87 fa fc f8 	JSR        0x0200c92c     // 200c92c <__adddf3>
 200497c:	02 00 c9 2c 
 2004980:	9f a8 a7 c8 	MOV        R5,R3          | MOV        R9,R4
 2004984:	87 fa fc f8 	JSR        0x0200d828     // 200d828 <__ltdf2>
 2004988:	02 00 d8 28 
 200498c:	0c 00 00 00 	CMP        $0,R1
 2004990:	78 90 02 98 	BLT        @0x02004c2c    // 2004c2c <_dtoa_r+0xb34>
 2004994:	1b 42 c0 00 	MOV        R11,R3
 2004998:	24 87 40 48 	LW         72(SP),R4
 200499c:	0a 00 07 fc 	BREV       $2044,R1
 20049a0:	16 00 00 00 	CLR        R2
 20049a4:	87 fa fc f8 	JSR        0x0200cd28     // 200cd28 <__subdf3>
 20049a8:	02 00 cd 28 
 20049ac:	9f a8 a7 c8 	MOV        R5,R3          | MOV        R9,R4
 20049b0:	87 fa fc f8 	JSR        0x0200d7c4     // 200d7c4 <__gtdf2>
 20049b4:	02 00 d7 c4 
 20049b8:	0c 00 00 01 	CMP        $1,R1
 20049bc:	78 b0 00 0c 	BGE        @0x020049cc    // 20049cc <_dtoa_r+0x8d4>
 20049c0:	78 80 00 80 	BRA        @0x02004a44    // 2004a44 <_dtoa_r+0x94c>
 20049c4:	3b 40 80 00 	MOV        R2,R7
 20049c8:	78 80 00 00 	BRA        @0x020049cc    // 20049cc <_dtoa_r+0x8d4>
 20049cc:	97 b8 92 7f 	MOV        R7,R2          | ADD        $-1,R2
 20049d0:	0d 85 ff ff 	LB         -1(R7),R1
 20049d4:	0c 00 00 30 	CMP        $48,R1
 20049d8:	78 8b ff e8 	BZ         @0x020049c4    // 20049c4 <_dtoa_r+0x8cc>
 20049dc:	04 87 40 44 	LW         68(SP),R0
 20049e0:	04 c7 40 0c 	SW         R0,$12(SP)
 20049e4:	78 80 0a 94 	BRA        @0x0200547c    // 200547c <_dtoa_r+0x1384>
 20049e8:	1a 00 24 02 	BREV       $9218,R3
 20049ec:	26 00 00 00 	CLR        R4
 20049f0:	87 fa fc f8 	JSR        0x0200d134     // 200d134 <__muldf3>
 20049f4:	02 00 d1 34 
 20049f8:	cf 88 af 90 	MOV        R1,R9          | MOV        R2,R5
 20049fc:	87 fa fc f8 	JSR        0x0200d9f0     // 200d9f0 <__fixdfsi>
 2004a00:	02 00 d9 f0 
 2004a04:	43 40 40 00 	MOV        R1,R8
 2004a08:	87 fa fc f8 	JSR        0x0200d944     // 200d944 <__floatsidf>
 2004a0c:	02 00 d9 44 
 2004a10:	9f 88 a7 90 	MOV        R1,R3          | MOV        R2,R4
 2004a14:	8f c8 97 a8 	MOV        R9,R1          | MOV        R5,R2
 2004a18:	87 fa fc f8 	JSR        0x0200cd28     // 200cd28 <__subdf3>
 2004a1c:	02 00 cd 28 
 2004a20:	ba 01 c2 30 	ADD        $1,R7          | ADD        $48,R8
 2004a24:	40 40 00 ff 	AND        $255,R8
 2004a28:	45 c5 ff ff 	SB         R8,$-1(R7)
 2004a2c:	3c 06 80 00 	CMP        R10,R7
 2004a30:	78 ab ff b4 	BNZ        @0x020049e8    // 20049e8 <_dtoa_r+0x8f0>
 2004a34:	af 88 cf 90 	MOV        R1,R5          | MOV        R2,R9
 2004a38:	bc 18 94 38 	LW         24(SP),R7      | LW         56(SP),R2
 2004a3c:	38 84 80 00 	ADD        R2,R7
 2004a40:	78 83 ff 28 	BRA        @0x0200496c    // 200496c <_dtoa_r+0x874>
 2004a44:	1c 87 40 50 	LW         80(SP),R3
 2004a48:	13 40 c0 00 	MOV        R3,R2
 2004a4c:	11 03 ff ff 	XOR        $-1,R2
 2004a50:	11 40 00 1f 	LSR        $31,R2
 2004a54:	84 0c 83 0d 	LW         12(SP),R0      | CMP        $13,R0
 2004a58:	0e 00 00 00 	CLR        R1
 2004a5c:	0a 50 00 01 	LDILO.LT   $1,R1
 2004a60:	08 44 80 00 	AND        R2,R1
 2004a64:	78 88 02 94 	BZ         @0x02004cfc    // 2004cfc <_dtoa_r+0xc04>
 2004a68:	13 40 00 00 	MOV        R0,R2
 2004a6c:	78 80 00 0c 	BRA        @0x02004a7c    // 2004a7c <_dtoa_r+0x984>
 2004a70:	8e 00 8d 10 	CLR        R1             | SW         R1,$16(SP)
 2004a74:	96 ff 95 1c 	LDI        $-1,R2         | SW         R2,$28(SP)
 2004a78:	13 40 00 00 	MOV        R0,R2
 2004a7c:	11 80 00 03 	LSL        $3,R2
 2004a80:	0a 03 00 40 	LDI        0x0200e48c,R1  // 200e48c <__mprec_tens>
 2004a84:	0a 40 e4 8c 
 2004a88:	8a 90 d4 88 	ADD        R2,R1          | LW         (R1),R10
 2004a8c:	5c 84 40 04 	LW         4(R1),R11
 2004a90:	14 87 40 10 	LW         16(SP),R2
 2004a94:	11 40 00 1f 	LSR        $31,R2
 2004a98:	9c 1c 9b 7f 	LW         28(SP),R3      | CMP        $-1,R3
 2004a9c:	0e 00 00 00 	CLR        R1
 2004aa0:	0a 50 00 01 	LDILO.LT   $1,R1
 2004aa4:	89 90 8d 14 	AND        R2,R1          | SW         R1,$20(SP)
 2004aa8:	78 a8 00 64 	BNZ        @0x02004b10    // 2004b10 <_dtoa_r+0xa18>
 2004aac:	9f d0 a7 d8 	MOV        R10,R3         | MOV        R11,R4
 2004ab0:	8c 04 94 08 	LW         4(SP),R1       | LW         8(SP),R2
 2004ab4:	87 fa fc f8 	JSR        0x0200d4dc     // 200d4dc <__divdf3>
 2004ab8:	02 00 d4 dc 
 2004abc:	87 fa fc f8 	JSR        0x0200d9f0     // 200d9f0 <__fixdfsi>
 2004ac0:	02 00 d9 f0 
 2004ac4:	63 40 40 00 	MOV        R1,R12
 2004ac8:	87 fa fc f8 	JSR        0x0200d944     // 200d944 <__floatsidf>
 2004acc:	02 00 d9 44 
 2004ad0:	9f d0 a7 d8 	MOV        R10,R3         | MOV        R11,R4
 2004ad4:	87 fa fc f8 	JSR        0x0200d134     // 200d134 <__muldf3>
 2004ad8:	02 00 d1 34 
 2004adc:	9f 88 a7 90 	MOV        R1,R3          | MOV        R2,R4
 2004ae0:	8c 04 94 08 	LW         4(SP),R1       | LW         8(SP),R2
 2004ae4:	87 fa fc f8 	JSR        0x0200cd28     // 200cd28 <__subdf3>
 2004ae8:	02 00 cd 28 
 2004aec:	9f 88 a7 90 	MOV        R1,R3          | MOV        R2,R4
 2004af0:	bc 18 ba 01 	LW         24(SP),R7      | ADD        $1,R7
 2004af4:	c7 e0 c2 30 	MOV        R12,R8         | ADD        $48,R8
 2004af8:	40 40 00 ff 	AND        $255,R8
 2004afc:	04 87 40 18 	LW         24(SP),R0
 2004b00:	45 c4 00 00 	SB         R8,(R0)
 2004b04:	84 1c 83 01 	LW         28(SP),R0      | CMP        $1,R0
 2004b08:	78 a8 00 40 	BNZ        @0x02004b4c    // 2004b4c <_dtoa_r+0xa54>
 2004b0c:	78 80 00 68 	BRA        @0x02004b78    // 2004b78 <_dtoa_r+0xa80>
 2004b10:	1c 00 00 00 	CMP        $0,R3
 2004b14:	78 a8 05 60 	BNZ        @0x02005078    // 2005078 <_dtoa_r+0xf80>
 2004b18:	1a 00 28 02 	BREV       $10242,R3
 2004b1c:	a6 00 8f d0 	CLR        R4             | MOV        R10,R1
 2004b20:	13 42 c0 00 	MOV        R11,R2
 2004b24:	87 fa fc f8 	JSR        0x0200d134     // 200d134 <__muldf3>
 2004b28:	02 00 d1 34 
 2004b2c:	9f 88 a7 90 	MOV        R1,R3          | MOV        R2,R4
 2004b30:	8c 04 94 08 	LW         4(SP),R1       | LW         8(SP),R2
 2004b34:	87 fa fc f8 	JSR        0x0200d88c     // 200d88c <__ledf2>
 2004b38:	02 00 d8 8c 
 2004b3c:	0c 00 00 01 	CMP        $1,R1
 2004b40:	78 90 05 3c 	BLT        @0x02005080    // 2005080 <_dtoa_r+0xf88>
 2004b44:	dc 1c d7 d8 	LW         28(SP),R11     | MOV        R11,R10
 2004b48:	78 80 05 4c 	BRA        @0x02005098    // 2005098 <_dtoa_r+0xfa0>
 2004b4c:	1a 00 24 02 	BREV       $9218,R3
 2004b50:	26 00 00 00 	CLR        R4
 2004b54:	87 fa fc f8 	JSR        0x0200d134     // 200d134 <__muldf3>
 2004b58:	02 00 d1 34 
 2004b5c:	c7 88 cf 90 	MOV        R1,R8          | MOV        R2,R9
 2004b60:	9c 14 a7 98 	LW         20(SP),R3      | MOV        R3,R4
 2004b64:	87 fa fc f8 	JSR        0x0200d6fc     // 200d6fc <__eqdf2>
 2004b68:	02 00 d6 fc 
 2004b6c:	0c 00 00 00 	CMP        $0,R1
 2004b70:	78 a8 01 14 	BNZ        @0x02004c88    // 2004c88 <_dtoa_r+0xb90>
 2004b74:	78 80 09 04 	BRA        @0x0200547c    // 200547c <_dtoa_r+0x1384>
 2004b78:	8f 98 97 a0 	MOV        R3,R1          | MOV        R4,R2
 2004b7c:	87 fa fc f8 	JSR        0x0200c92c     // 200c92c <__adddf3>
 2004b80:	02 00 c9 2c 
 2004b84:	cf 88 af 90 	MOV        R1,R9          | MOV        R2,R5
 2004b88:	9f c8 a7 90 	MOV        R9,R3          | MOV        R2,R4
 2004b8c:	8f d0 97 d8 	MOV        R10,R1         | MOV        R11,R2
 2004b90:	87 fa fc f8 	JSR        0x0200d828     // 200d828 <__ltdf2>
 2004b94:	02 00 d8 28 
 2004b98:	0c 00 00 00 	CMP        $0,R1
 2004b9c:	78 90 00 5c 	BLT        @0x02004bfc    // 2004bfc <_dtoa_r+0xb04>
 2004ba0:	9f c8 a7 a8 	MOV        R9,R3          | MOV        R5,R4
 2004ba4:	8f d0 97 d8 	MOV        R10,R1         | MOV        R11,R2
 2004ba8:	87 fa fc f8 	JSR        0x0200d6fc     // 200d6fc <__eqdf2>
 2004bac:	02 00 d6 fc 
 2004bb0:	0c 00 00 00 	CMP        $0,R1
 2004bb4:	78 a8 08 c4 	BNZ        @0x0200547c    // 200547c <_dtoa_r+0x1384>
 2004bb8:	8f e0 89 01 	MOV        R12,R1         | AND        $1,R1
 2004bbc:	78 a8 00 4c 	BNZ        @0x02004c0c    // 2004c0c <_dtoa_r+0xb14>
 2004bc0:	78 80 08 b8 	BRA        @0x0200547c    // 200547c <_dtoa_r+0x1384>
 2004bc4:	0c 04 80 00 	CMP        R2,R1
 2004bc8:	78 88 00 0c 	BZ         @0x02004bd8    // 2004bd8 <_dtoa_r+0xae0>
 2004bcc:	45 84 7f ff 	LB         -1(R1),R8
 2004bd0:	3b 40 40 00 	MOV        R1,R7
 2004bd4:	78 80 00 58 	BRA        @0x02004c30    // 2004c30 <_dtoa_r+0xb38>
 2004bd8:	14 c7 40 18 	SW         R2,$24(SP)
 2004bdc:	14 87 40 44 	LW         68(SP),R2
 2004be0:	10 80 00 01 	ADD        $1,R2
 2004be4:	14 c7 40 44 	SW         R2,$68(SP)
 2004be8:	86 30 9c 18 	LDI        $48,R0         | LW         24(SP),R3
 2004bec:	05 c4 c0 00 	SB         R0,(R3)
 2004bf0:	45 85 ff ff 	LB         -1(R7),R8
 2004bf4:	1b 40 80 00 	MOV        R2,R3
 2004bf8:	78 80 00 48 	BRA        @0x02004c44    // 2004c44 <_dtoa_r+0xb4c>
 2004bfc:	0c 87 40 0c 	LW         12(SP),R1
 2004c00:	0c c7 40 44 	SW         R1,$68(SP)
 2004c04:	14 87 40 18 	LW         24(SP),R2
 2004c08:	78 80 00 24 	BRA        @0x02004c30    // 2004c30 <_dtoa_r+0xb38>
 2004c0c:	14 87 40 0c 	LW         12(SP),R2
 2004c10:	14 c7 40 44 	SW         R2,$68(SP)
 2004c14:	14 87 40 18 	LW         24(SP),R2
 2004c18:	78 80 00 14 	BRA        @0x02004c30    // 2004c30 <_dtoa_r+0xb38>
 2004c1c:	14 87 40 18 	LW         24(SP),R2
 2004c20:	78 80 00 0c 	BRA        @0x02004c30    // 2004c30 <_dtoa_r+0xb38>
 2004c24:	14 87 40 18 	LW         24(SP),R2
 2004c28:	78 80 00 04 	BRA        @0x02004c30    // 2004c30 <_dtoa_r+0xb38>
 2004c2c:	14 87 40 18 	LW         24(SP),R2
 2004c30:	8f b8 8a 7f 	MOV        R7,R1          | ADD        $-1,R1
 2004c34:	44 00 00 39 	CMP        $57,R8
 2004c38:	78 8b ff 88 	BZ         @0x02004bc4    // 2004bc4 <_dtoa_r+0xacc>
 2004c3c:	14 c7 40 18 	SW         R2,$24(SP)
 2004c40:	1c 87 40 44 	LW         68(SP),R3
 2004c44:	40 80 00 01 	ADD        $1,R8
 2004c48:	45 c4 40 00 	SB         R8,(R1)
 2004c4c:	1c c7 40 0c 	SW         R3,$12(SP)
 2004c50:	78 80 08 28 	BRA        @0x0200547c    // 200547c <_dtoa_r+0x1384>
 2004c54:	1a 00 24 02 	BREV       $9218,R3
 2004c58:	26 00 00 00 	CLR        R4
 2004c5c:	87 fa fc f8 	JSR        0x0200d134     // 200d134 <__muldf3>
 2004c60:	02 00 d1 34 
 2004c64:	c7 88 cf 90 	MOV        R1,R8          | MOV        R2,R9
 2004c68:	aa 01 9e 00 	ADD        $1,R5          | CLR        R3
 2004c6c:	26 00 00 00 	CLR        R4
 2004c70:	87 fa fc f8 	JSR        0x0200d6fc     // 200d6fc <__eqdf2>
 2004c74:	02 00 d6 fc 
 2004c78:	0c 00 00 00 	CMP        $0,R1
 2004c7c:	78 a8 00 18 	BNZ        @0x02004c98    // 2004c98 <_dtoa_r+0xba0>
 2004c80:	34 87 40 08 	LW         8(SP),R6
 2004c84:	78 80 07 f4 	BRA        @0x0200547c    // 200547c <_dtoa_r+0x1384>
 2004c88:	ac 18 aa 02 	LW         24(SP),R5      | ADD        $2,R5
 2004c8c:	bc 18 84 1c 	LW         24(SP),R7      | LW         28(SP),R0
 2004c90:	ba 80 b5 08 	ADD        R0,R7          | SW         R6,$8(SP)
 2004c94:	33 41 c0 00 	MOV        R7,R6
 2004c98:	9f d0 a7 d8 	MOV        R10,R3         | MOV        R11,R4
 2004c9c:	8f c0 97 c8 	MOV        R8,R1          | MOV        R9,R2
 2004ca0:	87 fa fc f8 	JSR        0x0200d4dc     // 200d4dc <__divdf3>
 2004ca4:	02 00 d4 dc 
 2004ca8:	87 fa fc f8 	JSR        0x0200d9f0     // 200d9f0 <__fixdfsi>
 2004cac:	02 00 d9 f0 
 2004cb0:	63 40 40 00 	MOV        R1,R12
 2004cb4:	87 fa fc f8 	JSR        0x0200d944     // 200d944 <__floatsidf>
 2004cb8:	02 00 d9 44 
 2004cbc:	9f d0 a7 d8 	MOV        R10,R3         | MOV        R11,R4
 2004cc0:	87 fa fc f8 	JSR        0x0200d134     // 200d134 <__muldf3>
 2004cc4:	02 00 d1 34 
 2004cc8:	9f 88 a7 90 	MOV        R1,R3          | MOV        R2,R4
 2004ccc:	8f c0 97 c8 	MOV        R8,R1          | MOV        R9,R2
 2004cd0:	87 fa fc f8 	JSR        0x0200cd28     // 200cd28 <__subdf3>
 2004cd4:	02 00 cd 28 
 2004cd8:	9f 88 a7 90 	MOV        R1,R3          | MOV        R2,R4
 2004cdc:	bf a8 c7 e0 	MOV        R5,R7          | MOV        R12,R8
 2004ce0:	40 80 00 30 	ADD        $48,R8
 2004ce4:	40 40 00 ff 	AND        $255,R8
 2004ce8:	45 c5 7f ff 	SB         R8,$-1(R5)
 2004cec:	2c 05 80 00 	CMP        R6,R5
 2004cf0:	78 ab ff 60 	BNZ        @0x02004c54    // 2004c54 <_dtoa_r+0xb5c>
 2004cf4:	34 87 40 08 	LW         8(SP),R6
 2004cf8:	78 83 fe 7c 	BRA        @0x02004b78    // 2004b78 <_dtoa_r+0xa80>
 2004cfc:	8c 28 8b 00 	LW         40(SP),R1      | CMP        $0,R1
 2004d00:	78 88 00 94 	BZ         @0x02004d98    // 2004d98 <_dtoa_r+0xca0>
 2004d04:	64 00 00 02 	CMP        $2,R12
 2004d08:	78 b0 00 30 	BGE        @0x02004d3c    // 2004d3c <_dtoa_r+0xc44>
 2004d0c:	14 87 40 40 	LW         64(SP),R2
 2004d10:	14 00 00 00 	CMP        $0,R2
 2004d14:	78 88 00 10 	BZ         @0x02004d28    // 2004d28 <_dtoa_r+0xc30>
 2004d18:	18 80 04 33 	ADD        $1075,R3
 2004d1c:	bc 30 ac 20 	LW         48(SP),R7      | LW         32(SP),R5
 2004d20:	0b 41 40 00 	MOV        R5,R1
 2004d24:	78 80 00 50 	BRA        @0x02004d78    // 2004d78 <_dtoa_r+0xc80>
 2004d28:	0c 87 40 4c 	LW         76(SP),R1
 2004d2c:	9e 36 98 88 	LDI        $54,R3         | SUB        R1,R3
 2004d30:	bc 30 ac 20 	LW         48(SP),R7      | LW         32(SP),R5
 2004d34:	0b 41 40 00 	MOV        R5,R1
 2004d38:	78 80 00 3c 	BRA        @0x02004d78    // 2004d78 <_dtoa_r+0xc80>
 2004d3c:	8c 1c 8a 7f 	LW         28(SP),R1      | ADD        $-1,R1
 2004d40:	9c 30 bf 98 	LW         48(SP),R3      | MOV        R3,R7
 2004d44:	b8 88 9b 88 	SUB        R1,R7          | CMP        R1,R3
 2004d48:	78 b0 00 10 	BGE        @0x02004d5c    // 2004d5c <_dtoa_r+0xc64>
 2004d4c:	97 88 90 98 	MOV        R1,R2          | SUB        R3,R2
 2004d50:	9c 34 9a 90 	LW         52(SP),R3      | ADD        R2,R3
 2004d54:	9d 34 8d 30 	SW         R3,$52(SP)     | SW         R1,$48(SP)
 2004d58:	3e 00 00 00 	CLR        R7
 2004d5c:	84 1c 83 00 	LW         28(SP),R0      | CMP        $0,R0
 2004d60:	78 b0 00 0c 	BGE        @0x02004d70    // 2004d70 <_dtoa_r+0xc78>
 2004d64:	ac 20 a8 80 	LW         32(SP),R5      | SUB        R0,R5
 2004d68:	9e 00 8c 20 	CLR        R3             | LW         32(SP),R1
 2004d6c:	78 80 00 08 	BRA        @0x02004d78    // 2004d78 <_dtoa_r+0xc80>
 2004d70:	9f 80 ac 20 	MOV        R0,R3          | LW         32(SP),R5
 2004d74:	0b 41 40 00 	MOV        R5,R1
 2004d78:	8a 98 8d 20 	ADD        R3,R1          | SW         R1,$32(SP)
 2004d7c:	94 14 92 98 	LW         20(SP),R2      | ADD        R3,R2
 2004d80:	95 14 96 01 	SW         R2,$20(SP)     | LDI        $1,R2
 2004d84:	0b 41 80 00 	MOV        R6,R1
 2004d88:	87 fa fc f8 	JSR        0x02007e48     // 2007e48 <__i2b>
 2004d8c:	02 00 7e 48 
 2004d90:	53 40 40 00 	MOV        R1,R10
 2004d94:	78 80 00 08 	BRA        @0x02004da0    // 2004da0 <_dtoa_r+0xca8>
 2004d98:	d7 88 bc 30 	MOV        R1,R10         | LW         48(SP),R7
 2004d9c:	2c 87 40 20 	LW         32(SP),R5
 2004da0:	ab 01 8e 00 	CMP        $1,R5          | CLR        R1
 2004da4:	0a 70 00 01 	LDILO.GE   $1,R1
 2004da8:	9c 14 9b 01 	LW         20(SP),R3      | CMP        $1,R3
 2004dac:	16 00 00 00 	CLR        R2
 2004db0:	12 70 00 01 	LDILO.GE   $1,R2
 2004db4:	08 44 80 00 	AND        R2,R1
 2004db8:	78 88 00 14 	BZ         @0x02004dd0    // 2004dd0 <_dtoa_r+0xcd8>
 2004dbc:	8f 98 8b a8 	MOV        R3,R1          | CMP        R5,R1
 2004dc0:	0b 71 40 00 	MOV.GE     R5,R1
 2004dc4:	84 20 80 88 	LW         32(SP),R0      | SUB        R1,R0
 2004dc8:	85 20 a8 88 	SW         R0,$32(SP)     | SUB        R1,R5
 2004dcc:	98 88 9d 14 	SUB        R1,R3          | SW         R3,$20(SP)
 2004dd0:	8c 30 8b 00 	LW         48(SP),R1      | CMP        $0,R1
 2004dd4:	78 88 00 74 	BZ         @0x02004e4c    // 2004e4c <_dtoa_r+0xd54>
 2004dd8:	94 28 93 00 	LW         40(SP),R2      | CMP        $0,R2
 2004ddc:	78 88 00 58 	BZ         @0x02004e38    // 2004e38 <_dtoa_r+0xd40>
 2004de0:	3c 00 00 01 	CMP        $1,R7
 2004de4:	78 90 00 34 	BLT        @0x02004e1c    // 2004e1c <_dtoa_r+0xd24>
 2004de8:	9f b8 97 d0 	MOV        R7,R3          | MOV        R10,R2
 2004dec:	0b 41 80 00 	MOV        R6,R1
 2004df0:	87 fa fc f8 	JSR        0x02008168     // 2008168 <__pow5mult>
 2004df4:	02 00 81 68 
 2004df8:	d7 88 9c 24 	MOV        R1,R10         | LW         36(SP),R3
 2004dfc:	97 88 8f b0 	MOV        R1,R2          | MOV        R6,R1
 2004e00:	87 fa fc f8 	JSR        0x02007eec     // 2007eec <__multiply>
 2004e04:	02 00 7e ec 
 2004e08:	c7 88 94 24 	MOV        R1,R8          | LW         36(SP),R2
 2004e0c:	0b 41 80 00 	MOV        R6,R1
 2004e10:	87 fa fc f8 	JSR        0x0200779c     // 200779c <_Bfree>
 2004e14:	02 00 77 9c 
 2004e18:	44 c7 40 24 	SW         R8,$36(SP)
 2004e1c:	9c 30 98 b8 	LW         48(SP),R3      | SUB        R7,R3
 2004e20:	78 88 00 28 	BZ         @0x02004e4c    // 2004e4c <_dtoa_r+0xd54>
 2004e24:	94 24 8f b0 	LW         36(SP),R2      | MOV        R6,R1
 2004e28:	87 fa fc f8 	JSR        0x02008168     // 2008168 <__pow5mult>
 2004e2c:	02 00 81 68 
 2004e30:	0c c7 40 24 	SW         R1,$36(SP)
 2004e34:	78 80 00 14 	BRA        @0x02004e4c    // 2004e4c <_dtoa_r+0xd54>
 2004e38:	9f 88 94 24 	MOV        R1,R3          | LW         36(SP),R2
 2004e3c:	0b 41 80 00 	MOV        R6,R1
 2004e40:	87 fa fc f8 	JSR        0x02008168     // 2008168 <__pow5mult>
 2004e44:	02 00 81 68 
 2004e48:	0c c7 40 24 	SW         R1,$36(SP)
 2004e4c:	96 01 8f b0 	LDI        $1,R2          | MOV        R6,R1
 2004e50:	87 fa fc f8 	JSR        0x02007e48     // 2007e48 <__i2b>
 2004e54:	02 00 7e 48 
 2004e58:	df 88 9c 34 	MOV        R1,R11         | LW         52(SP),R3
 2004e5c:	1c 00 00 01 	CMP        $1,R3
 2004e60:	78 90 00 1c 	BLT        @0x02004e80    // 2004e80 <_dtoa_r+0xd88>
 2004e64:	97 88 8f b0 	MOV        R1,R2          | MOV        R6,R1
 2004e68:	87 fa fc f8 	JSR        0x02008168     // 2008168 <__pow5mult>
 2004e6c:	02 00 81 68 
 2004e70:	df 88 be 00 	MOV        R1,R11         | CLR        R7
 2004e74:	64 00 00 02 	CMP        $2,R12
 2004e78:	78 b0 00 5c 	BGE        @0x02004ed8    // 2004ed8 <_dtoa_r+0xde0>
 2004e7c:	78 80 07 a4 	BRA        @0x02005624    // 2005624 <_dtoa_r+0x152c>
 2004e80:	be 00 8f 98 	CLR        R7             | MOV        R3,R1
 2004e84:	64 00 00 02 	CMP        $2,R12
 2004e88:	78 b0 00 44 	BGE        @0x02004ed0    // 2004ed0 <_dtoa_r+0xdd8>
 2004e8c:	84 08 be 00 	LW         8(SP),R0       | CLR        R7
 2004e90:	8f 98 83 00 	MOV        R3,R1          | CMP        $0,R0
 2004e94:	78 a8 00 38 	BNZ        @0x02004ed0    // 2004ed0 <_dtoa_r+0xdd8>
 2004e98:	0e 0f ff ff 	LDI        $1048575,R1
 2004e9c:	94 04 91 88 	LW         4(SP),R2       | AND        R1,R2
 2004ea0:	78 a8 00 20 	BNZ        @0x02004ec4    // 2004ec4 <_dtoa_r+0xdcc>
 2004ea4:	0a 00 0f fe 	BREV       $4094,R1
 2004ea8:	bc 04 b9 88 	LW         4(SP),R7       | AND        R1,R7
 2004eac:	78 88 00 1c 	BZ         @0x02004ecc    // 2004ecc <_dtoa_r+0xdd4>
 2004eb0:	9c 20 9a 01 	LW         32(SP),R3      | ADD        $1,R3
 2004eb4:	9d 20 84 14 	SW         R3,$32(SP)     | LW         20(SP),R0
 2004eb8:	82 01 85 14 	ADD        $1,R0          | SW         R0,$20(SP)
 2004ebc:	be 01 8c 34 	LDI        $1,R7          | LW         52(SP),R1
 2004ec0:	78 80 00 0c 	BRA        @0x02004ed0    // 2004ed0 <_dtoa_r+0xdd8>
 2004ec4:	be 00 8c 34 	CLR        R7             | LW         52(SP),R1
 2004ec8:	78 80 00 04 	BRA        @0x02004ed0    // 2004ed0 <_dtoa_r+0xdd8>
 2004ecc:	0c 87 40 34 	LW         52(SP),R1
 2004ed0:	0c 00 00 00 	CMP        $0,R1
 2004ed4:	78 88 00 28 	BZ         @0x02004f00    // 2004f00 <_dtoa_r+0xe08>
 2004ed8:	0c 86 c0 10 	LW         16(R11),R1
 2004edc:	08 80 00 04 	ADD        $4,R1
 2004ee0:	09 80 00 02 	LSL        $2,R1
 2004ee4:	97 d8 92 88 	MOV        R11,R2         | ADD        R1,R2
 2004ee8:	0c 84 80 00 	LW         (R2),R1
 2004eec:	87 fa fc f8 	JSR        0x02007d0c     // 2007d0c <__hi0bits>
 2004ef0:	02 00 7d 0c 
 2004ef4:	96 20 90 88 	LDI        $32,R2         | SUB        R1,R2
 2004ef8:	0b 40 80 00 	MOV        R2,R1
 2004efc:	78 80 00 04 	BRA        @0x02004f04    // 2004f04 <_dtoa_r+0xe0c>
 2004f00:	0e 00 00 01 	LDI        $1,R1
 2004f04:	9c 14 8a 98 	LW         20(SP),R3      | ADD        R3,R1
 2004f08:	08 40 00 1f 	AND        $31,R1
 2004f0c:	78 88 00 34 	BZ         @0x02004f44    // 2004f44 <_dtoa_r+0xe4c>
 2004f10:	96 20 90 88 	LDI        $32,R2         | SUB        R1,R2
 2004f14:	14 00 00 05 	CMP        $5,R2
 2004f18:	78 90 00 14 	BLT        @0x02004f30    // 2004f30 <_dtoa_r+0xe38>
 2004f1c:	96 1c 90 88 	LDI        $28,R2         | SUB        R1,R2
 2004f20:	84 20 82 90 	LW         32(SP),R0      | ADD        R2,R0
 2004f24:	85 20 aa 90 	SW         R0,$32(SP)     | ADD        R2,R5
 2004f28:	9a 90 9d 14 	ADD        R2,R3          | SW         R3,$20(SP)
 2004f2c:	78 80 00 24 	BRA        @0x02004f54    // 2004f54 <_dtoa_r+0xe5c>
 2004f30:	14 00 00 04 	CMP        $4,R2
 2004f34:	78 88 00 1c 	BZ         @0x02004f54    // 2004f54 <_dtoa_r+0xe5c>
 2004f38:	96 3c 90 88 	LDI        $60,R2         | SUB        R1,R2
 2004f3c:	0b 40 80 00 	MOV        R2,R1
 2004f40:	78 80 00 04 	BRA        @0x02004f48    // 2004f48 <_dtoa_r+0xe50>
 2004f44:	0e 00 00 1c 	LDI        $28,R1
 2004f48:	94 20 92 88 	LW         32(SP),R2      | ADD        R1,R2
 2004f4c:	95 20 aa 88 	SW         R2,$32(SP)     | ADD        R1,R5
 2004f50:	9a 88 9d 14 	ADD        R1,R3          | SW         R3,$20(SP)
 2004f54:	84 20 83 01 	LW         32(SP),R0      | CMP        $1,R0
 2004f58:	78 90 00 14 	BLT        @0x02004f70    // 2004f70 <_dtoa_r+0xe78>
 2004f5c:	9f 80 94 24 	MOV        R0,R3          | LW         36(SP),R2
 2004f60:	0b 41 80 00 	MOV        R6,R1
 2004f64:	87 fa fc f8 	JSR        0x0200840c     // 200840c <__lshift>
 2004f68:	02 00 84 0c 
 2004f6c:	0c c7 40 24 	SW         R1,$36(SP)
 2004f70:	8c 14 8b 01 	LW         20(SP),R1      | CMP        $1,R1
 2004f74:	78 90 00 14 	BLT        @0x02004f8c    // 2004f8c <_dtoa_r+0xe94>
 2004f78:	9f 88 97 d8 	MOV        R1,R3          | MOV        R11,R2
 2004f7c:	0b 41 80 00 	MOV        R6,R1
 2004f80:	87 fa fc f8 	JSR        0x0200840c     // 200840c <__lshift>
 2004f84:	02 00 84 0c 
 2004f88:	5b 40 40 00 	MOV        R1,R11
 2004f8c:	94 3c 93 00 	LW         60(SP),R2      | CMP        $0,R2
 2004f90:	78 88 00 70 	BZ         @0x02005004    // 2005004 <_dtoa_r+0xf0c>
 2004f94:	97 d8 8c 24 	MOV        R11,R2         | LW         36(SP),R1
 2004f98:	87 fa fc f8 	JSR        0x02008594     // 2008594 <__mcmp>
 2004f9c:	02 00 85 94 
 2004fa0:	0c 00 00 00 	CMP        $0,R1
 2004fa4:	78 b0 00 5c 	BGE        @0x02005004    // 2005004 <_dtoa_r+0xf0c>
 2004fa8:	9c 0c 9a 7f 	LW         12(SP),R3      | ADD        $-1,R3
 2004fac:	9d 0c a6 00 	SW         R3,$12(SP)     | CLR        R4
 2004fb0:	9e 0a 94 24 	LDI        $10,R3         | LW         36(SP),R2
 2004fb4:	0b 41 80 00 	MOV        R6,R1
 2004fb8:	87 fa fc f8 	JSR        0x020077bc     // 20077bc <__multadd>
 2004fbc:	02 00 77 bc 
 2004fc0:	8d 24 84 28 	SW         R1,$36(SP)     | LW         40(SP),R0
 2004fc4:	04 00 00 00 	CMP        $0,R0
 2004fc8:	78 88 05 fc 	BZ         @0x020055c8    // 20055c8 <_dtoa_r+0x14d0>
 2004fcc:	a6 00 9e 0a 	CLR        R4             | LDI        $10,R3
 2004fd0:	97 d0 8f b0 	MOV        R10,R2         | MOV        R6,R1
 2004fd4:	87 fa fc f8 	JSR        0x020077bc     // 20077bc <__multadd>
 2004fd8:	02 00 77 bc 
 2004fdc:	d7 88 e3 03 	MOV        R1,R10         | CMP        $3,R12
 2004fe0:	0e 00 00 00 	CLR        R1
 2004fe4:	0a 70 00 01 	LDILO.GE   $1,R1
 2004fe8:	94 2c 93 7f 	LW         44(SP),R2      | CMP        $-1,R2
 2004fec:	16 00 00 00 	CLR        R2
 2004ff0:	12 50 00 01 	LDILO.LT   $1,R2
 2004ff4:	08 44 80 00 	AND        R2,R1
 2004ff8:	78 a8 00 2c 	BNZ        @0x02005028    // 2005028 <_dtoa_r+0xf30>
 2004ffc:	9c 2c 9d 1c 	LW         44(SP),R3      | SW         R3,$28(SP)
 2005000:	78 80 00 c8 	BRA        @0x020050cc    // 20050cc <_dtoa_r+0xfd4>
 2005004:	84 1c 83 7f 	LW         28(SP),R0      | CMP        $-1,R0
 2005008:	0e 00 00 00 	CLR        R1
 200500c:	0a 50 00 01 	LDILO.LT   $1,R1
 2005010:	e3 03 96 00 	CMP        $3,R12         | CLR        R2
 2005014:	12 70 00 01 	LDILO.GE   $1,R2
 2005018:	08 44 80 00 	AND        R2,R1
 200501c:	78 88 00 90 	BZ         @0x020050b0    // 20050b0 <_dtoa_r+0xfb8>
 2005020:	1b 40 00 00 	MOV        R0,R3
 2005024:	78 80 00 14 	BRA        @0x0200503c    // 200503c <_dtoa_r+0xf44>
 2005028:	8c 2c 8d 1c 	LW         44(SP),R1      | SW         R1,$28(SP)
 200502c:	1b 40 40 00 	MOV        R1,R3
 2005030:	78 80 00 08 	BRA        @0x0200503c    // 200503c <_dtoa_r+0xf44>
 2005034:	94 2c 95 1c 	LW         44(SP),R2      | SW         R2,$28(SP)
 2005038:	1b 40 80 00 	MOV        R2,R3
 200503c:	1c 00 00 00 	CMP        $0,R3
 2005040:	78 a8 00 40 	BNZ        @0x02005084    // 2005084 <_dtoa_r+0xf8c>
 2005044:	a7 98 9e 05 	MOV        R3,R4          | LDI        $5,R3
 2005048:	97 d8 8f b0 	MOV        R11,R2         | MOV        R6,R1
 200504c:	87 fa fc f8 	JSR        0x020077bc     // 20077bc <__multadd>
 2005050:	02 00 77 bc 
 2005054:	df 88 97 88 	MOV        R1,R11         | MOV        R1,R2
 2005058:	0c 87 40 24 	LW         36(SP),R1
 200505c:	87 fa fc f8 	JSR        0x02008594     // 2008594 <__mcmp>
 2005060:	02 00 85 94 
 2005064:	0c 00 00 01 	CMP        $1,R1
 2005068:	78 b0 00 2c 	BGE        @0x02005098    // 2005098 <_dtoa_r+0xfa0>
 200506c:	78 80 00 14 	BRA        @0x02005084    // 2005084 <_dtoa_r+0xf8c>
 2005070:	de 00 d6 00 	CLR        R11            | CLR        R10
 2005074:	78 80 00 0c 	BRA        @0x02005084    // 2005084 <_dtoa_r+0xf8c>
 2005078:	de 00 d6 00 	CLR        R11            | CLR        R10
 200507c:	78 80 00 04 	BRA        @0x02005084    // 2005084 <_dtoa_r+0xf8c>
 2005080:	dc 1c d7 d8 	LW         28(SP),R11     | MOV        R11,R10
 2005084:	04 87 40 10 	LW         16(SP),R0
 2005088:	01 03 ff ff 	XOR        $-1,R0
 200508c:	85 0c bc 18 	SW         R0,$12(SP)     | LW         24(SP),R7
 2005090:	78 80 04 84 	BRA        @0x02005518    // 2005518 <_dtoa_r+0x1420>
 2005094:	de 00 d6 00 	CLR        R11            | CLR        R10
 2005098:	bc 18 ba 01 	LW         24(SP),R7      | ADD        $1,R7
 200509c:	96 31 8c 18 	LDI        $49,R2         | LW         24(SP),R1
 20050a0:	15 c4 40 00 	SB         R2,(R1)
 20050a4:	9c 0c 9a 01 	LW         12(SP),R3      | ADD        $1,R3
 20050a8:	1c c7 40 0c 	SW         R3,$12(SP)
 20050ac:	78 80 04 68 	BRA        @0x02005518    // 2005518 <_dtoa_r+0x1420>
 20050b0:	84 28 83 00 	LW         40(SP),R0      | CMP        $0,R0
 20050b4:	78 a8 00 14 	BNZ        @0x020050cc    // 20050cc <_dtoa_r+0xfd4>
 20050b8:	ac 18 ce 00 	LW         24(SP),R5      | CLR        R9
 20050bc:	be 0a d5 08 	LDI        $10,R7         | SW         R10,$8(SP)
 20050c0:	e4 1c d4 24 	LW         28(SP),R12     | LW         36(SP),R10
 20050c4:	43 41 40 00 	MOV        R5,R8
 20050c8:	78 80 02 5c 	BRA        @0x02005328    // 2005328 <_dtoa_r+0x1230>
 20050cc:	2c 00 00 01 	CMP        $1,R5
 20050d0:	78 90 00 14 	BLT        @0x020050e8    // 20050e8 <_dtoa_r+0xff0>
 20050d4:	9f a8 97 d0 	MOV        R5,R3          | MOV        R10,R2
 20050d8:	0b 41 80 00 	MOV        R6,R1
 20050dc:	87 fa fc f8 	JSR        0x0200840c     // 200840c <__lshift>
 20050e0:	02 00 84 0c 
 20050e4:	53 40 40 00 	MOV        R1,R10
 20050e8:	cf d0 bb 00 	MOV        R10,R9         | CMP        $0,R7
 20050ec:	78 88 00 48 	BZ         @0x02005138    // 2005138 <_dtoa_r+0x1040>
 20050f0:	14 86 80 04 	LW         4(R10),R2
 20050f4:	0b 41 80 00 	MOV        R6,R1
 20050f8:	87 fa fc f8 	JSR        0x02007700     // 2007700 <_Balloc>
 20050fc:	02 00 77 00 
 2005100:	2b 40 40 00 	MOV        R1,R5
 2005104:	1c 86 80 10 	LW         16(R10),R3
 2005108:	18 80 00 02 	ADD        $2,R3
 200510c:	19 80 00 02 	LSL        $2,R3
 2005110:	13 42 80 0c 	MOV        $12+R10,R2
 2005114:	0b 40 40 0c 	MOV        $12+R1,R1
 2005118:	87 fa fc f8 	JSR        0x02001354     // 2001354 <memcpy>
 200511c:	02 00 13 54 
 2005120:	9e 01 97 a8 	LDI        $1,R3          | MOV        R5,R2
 2005124:	0b 41 80 00 	MOV        R6,R1
 2005128:	87 fa fc f8 	JSR        0x0200840c     // 200840c <__lshift>
 200512c:	02 00 84 0c 
 2005130:	4b 40 40 00 	MOV        R1,R9
 2005134:	78 80 00 00 	BRA        @0x02005138    // 2005138 <_dtoa_r+0x1040>
 2005138:	ac 18 aa 01 	LW         24(SP),R5      | ADD        $1,R5
 200513c:	8c 18 94 1c 	LW         24(SP),R1      | LW         28(SP),R2
 2005140:	8a 90 8d 1c 	ADD        R2,R1          | SW         R1,$28(SP)
 2005144:	9c 08 99 01 	LW         8(SP),R3       | AND        $1,R3
 2005148:	9d 08 c7 e0 	SW         R3,$8(SP)      | MOV        R12,R8
 200514c:	e7 d8 dc 24 	MOV        R11,R12        | LW         36(SP),R11
 2005150:	87 a8 82 7f 	MOV        R5,R0          | ADD        $-1,R0
 2005154:	85 14 97 e0 	SW         R0,$20(SP)     | MOV        R12,R2
 2005158:	0b 42 c0 00 	MOV        R11,R1
 200515c:	87 fa fc f8 	JSR        0x02003f24     // 2003f24 <quorem>
 2005160:	02 00 3f 24 
 2005164:	8d 04 8a 30 	SW         R1,$4(SP)      | ADD        $48,R1
 2005168:	8d 10 97 d0 	SW         R1,$16(SP)     | MOV        R10,R2
 200516c:	0b 42 c0 00 	MOV        R11,R1
 2005170:	87 fa fc f8 	JSR        0x02008594     // 2008594 <__mcmp>
 2005174:	02 00 85 94 
 2005178:	bf 88 9f c8 	MOV        R1,R7          | MOV        R9,R3
 200517c:	97 e0 8f b0 	MOV        R12,R2         | MOV        R6,R1
 2005180:	87 fa fc f8 	JSR        0x020085f0     // 20085f0 <__mdiff>
 2005184:	02 00 85 f0 
 2005188:	1b 40 40 00 	MOV        R1,R3
 200518c:	0c 84 40 0c 	LW         12(R1),R1
 2005190:	a6 01 8b 00 	LDI        $1,R4          | CMP        $0,R1
 2005194:	78 a8 00 18 	BNZ        @0x020051b0    // 20051b0 <_dtoa_r+0x10b8>
 2005198:	97 98 8f d8 	MOV        R3,R2          | MOV        R11,R1
 200519c:	1c c7 40 00 	SW         R3,(SP)
 20051a0:	87 fa fc f8 	JSR        0x02008594     // 2008594 <__mcmp>
 20051a4:	02 00 85 94 
 20051a8:	a7 88 9c 00 	MOV        R1,R4          | LW         (SP),R3
 20051ac:	78 80 00 00 	BRA        @0x020051b0    // 20051b0 <_dtoa_r+0x10b8>
 20051b0:	97 98 8f b0 	MOV        R3,R2          | MOV        R6,R1
 20051b4:	24 c7 40 00 	SW         R4,(SP)
 20051b8:	87 fa fc f8 	JSR        0x0200779c     // 200779c <_Bfree>
 20051bc:	02 00 77 9c 
 20051c0:	a4 00 8f a0 	LW         (SP),R4        | MOV        R4,R1
 20051c4:	08 c6 00 00 	OR         R8,R1
 20051c8:	78 a8 00 34 	BNZ        @0x02005200    // 2005200 <_dtoa_r+0x1108>
 20051cc:	8c 08 8b 00 	LW         8(SP),R1       | CMP        $0,R1
 20051d0:	78 a8 00 2c 	BNZ        @0x02005200    // 2005200 <_dtoa_r+0x1108>
 20051d4:	c4 10 dd 24 	LW         16(SP),R8      | SW         R11,$36(SP)
 20051d8:	df e0 c3 39 	MOV        R12,R11        | CMP        $57,R8
 20051dc:	78 88 00 ac 	BZ         @0x0200528c    // 200528c <_dtoa_r+0x1194>
 20051e0:	3c 00 00 01 	CMP        $1,R7
 20051e4:	78 90 00 04 	BLT        @0x020051ec    // 20051ec <_dtoa_r+0x10f4>
 20051e8:	c4 04 c2 31 	LW         4(SP),R8       | ADD        $49,R8
 20051ec:	bc 14 ba 01 	LW         20(SP),R7      | ADD        $1,R7
 20051f0:	14 87 40 14 	LW         20(SP),R2
 20051f4:	45 c4 80 00 	SB         R8,(R2)
 20051f8:	af d0 d7 c8 	MOV        R10,R5         | MOV        R9,R10
 20051fc:	78 80 02 20 	BRA        @0x02005420    // 2005420 <_dtoa_r+0x1328>
 2005200:	3c 00 00 00 	CMP        $0,R7
 2005204:	78 90 00 10 	BLT        @0x02005218    // 2005218 <_dtoa_r+0x1120>
 2005208:	38 c6 00 00 	OR         R8,R7
 200520c:	78 a8 00 68 	BNZ        @0x02005278    // 2005278 <_dtoa_r+0x1180>
 2005210:	9c 08 9b 00 	LW         8(SP),R3       | CMP        $0,R3
 2005214:	78 a8 00 60 	BNZ        @0x02005278    // 2005278 <_dtoa_r+0x1180>
 2005218:	c4 10 dd 24 	LW         16(SP),R8      | SW         R11,$36(SP)
 200521c:	df e0 a3 01 	MOV        R12,R11        | CMP        $1,R4
 2005220:	78 90 00 40 	BLT        @0x02005264    // 2005264 <_dtoa_r+0x116c>
 2005224:	9e 01 94 24 	LDI        $1,R3          | LW         36(SP),R2
 2005228:	0b 41 80 00 	MOV        R6,R1
 200522c:	87 fa fc f8 	JSR        0x0200840c     // 200840c <__lshift>
 2005230:	02 00 84 0c 
 2005234:	8d 24 97 e0 	SW         R1,$36(SP)     | MOV        R12,R2
 2005238:	87 fa fc f8 	JSR        0x02008594     // 2008594 <__mcmp>
 200523c:	02 00 85 94 
 2005240:	0c 00 00 01 	CMP        $1,R1
 2005244:	78 b0 00 10 	BGE        @0x02005258    // 2005258 <_dtoa_r+0x1160>
 2005248:	0c 00 00 00 	CMP        $0,R1
 200524c:	78 a8 00 14 	BNZ        @0x02005264    // 2005264 <_dtoa_r+0x116c>
 2005250:	8f c0 89 01 	MOV        R8,R1          | AND        $1,R1
 2005254:	78 88 00 0c 	BZ         @0x02005264    // 2005264 <_dtoa_r+0x116c>
 2005258:	44 00 00 39 	CMP        $57,R8
 200525c:	78 88 00 2c 	BZ         @0x0200528c    // 200528c <_dtoa_r+0x1194>
 2005260:	c4 04 c2 31 	LW         4(SP),R8       | ADD        $49,R8
 2005264:	bc 14 ba 01 	LW         20(SP),R7      | ADD        $1,R7
 2005268:	04 87 40 14 	LW         20(SP),R0
 200526c:	45 c4 00 00 	SB         R8,(R0)
 2005270:	af d0 d7 c8 	MOV        R10,R5         | MOV        R9,R10
 2005274:	78 80 01 a8 	BRA        @0x02005420    // 2005420 <_dtoa_r+0x1328>
 2005278:	24 00 00 01 	CMP        $1,R4
 200527c:	78 90 00 38 	BLT        @0x020052b8    // 20052b8 <_dtoa_r+0x11c0>
 2005280:	c4 10 dd 24 	LW         16(SP),R8      | SW         R11,$36(SP)
 2005284:	df e0 c3 39 	MOV        R12,R11        | CMP        $57,R8
 2005288:	78 a8 00 18 	BNZ        @0x020052a4    // 20052a4 <_dtoa_r+0x11ac>
 200528c:	bc 14 ba 01 	LW         20(SP),R7      | ADD        $1,R7
 2005290:	96 39 8c 14 	LDI        $57,R2         | LW         20(SP),R1
 2005294:	15 c4 40 00 	SB         R2,(R1)
 2005298:	af d0 d7 c8 	MOV        R10,R5         | MOV        R9,R10
 200529c:	1c 87 40 18 	LW         24(SP),R3
 20052a0:	78 80 01 48 	BRA        @0x020053ec    // 20053ec <_dtoa_r+0x12f4>
 20052a4:	bc 14 ba 01 	LW         20(SP),R7      | ADD        $1,R7
 20052a8:	c2 01 9c 14 	ADD        $1,R8          | LW         20(SP),R3
 20052ac:	45 c4 c0 00 	SB         R8,(R3)
 20052b0:	af d0 d7 c8 	MOV        R10,R5         | MOV        R9,R10
 20052b4:	78 80 01 68 	BRA        @0x02005420    // 2005420 <_dtoa_r+0x1328>
 20052b8:	bf a8 84 10 	MOV        R5,R7          | LW         16(SP),R0
 20052bc:	05 c5 7f ff 	SB         R0,$-1(R5)
 20052c0:	8c 1c ab 88 	LW         28(SP),R1      | CMP        R1,R5
 20052c4:	78 88 00 b8 	BZ         @0x02005380    // 2005380 <_dtoa_r+0x1288>
 20052c8:	a6 00 9e 0a 	CLR        R4             | LDI        $10,R3
 20052cc:	97 d8 8f b0 	MOV        R11,R2         | MOV        R6,R1
 20052d0:	87 fa fc f8 	JSR        0x020077bc     // 20077bc <__multadd>
 20052d4:	02 00 77 bc 
 20052d8:	df 88 d3 c8 	MOV        R1,R11         | CMP        R9,R10
 20052dc:	78 a8 00 18 	BNZ        @0x020052f8    // 20052f8 <_dtoa_r+0x1200>
 20052e0:	a6 00 9e 0a 	CLR        R4             | LDI        $10,R3
 20052e4:	97 d0 8f b0 	MOV        R10,R2         | MOV        R6,R1
 20052e8:	87 fa fc f8 	JSR        0x020077bc     // 20077bc <__multadd>
 20052ec:	02 00 77 bc 
 20052f0:	d7 88 cf 88 	MOV        R1,R10         | MOV        R1,R9
 20052f4:	78 80 00 28 	BRA        @0x02005320    // 2005320 <_dtoa_r+0x1228>
 20052f8:	a6 00 9e 0a 	CLR        R4             | LDI        $10,R3
 20052fc:	97 d0 8f b0 	MOV        R10,R2         | MOV        R6,R1
 2005300:	87 fa fc f8 	JSR        0x020077bc     // 20077bc <__multadd>
 2005304:	02 00 77 bc 
 2005308:	d7 88 a6 00 	MOV        R1,R10         | CLR        R4
 200530c:	9e 0a 97 c8 	LDI        $10,R3         | MOV        R9,R2
 2005310:	0b 41 80 00 	MOV        R6,R1
 2005314:	87 fa fc f8 	JSR        0x020077bc     // 20077bc <__multadd>
 2005318:	02 00 77 bc 
 200531c:	4b 40 40 00 	MOV        R1,R9
 2005320:	28 80 00 01 	ADD        $1,R5
 2005324:	78 83 fe 28 	BRA        @0x02005150    // 2005150 <_dtoa_r+0x1058>
 2005328:	aa 01 97 d8 	ADD        $1,R5          | MOV        R11,R2
 200532c:	0b 42 80 00 	MOV        R10,R1
 2005330:	87 fa fc f8 	JSR        0x02003f24     // 2003f24 <quorem>
 2005334:	02 00 3f 24 
 2005338:	08 80 00 30 	ADD        $48,R1
 200533c:	0d c5 7f ff 	SB         R1,$-1(R5)
 2005340:	97 a8 90 c0 	MOV        R5,R2          | SUB        R8,R2
 2005344:	14 07 00 00 	CMP        R12,R2
 2005348:	78 90 00 1c 	BLT        @0x02005368    // 2005368 <_dtoa_r+0x1270>
 200534c:	c7 88 d5 24 	MOV        R1,R8          | SW         R10,$36(SP)
 2005350:	d4 08 8e 01 	LW         8(SP),R10      | LDI        $1,R1
 2005354:	94 1c 8b 90 	LW         28(SP),R2      | CMP        R2,R1
 2005358:	0b 50 80 00 	MOV.LT     R2,R1
 200535c:	bc 18 ba 88 	LW         24(SP),R7      | ADD        R1,R7
 2005360:	2e 00 00 00 	CLR        R5
 2005364:	78 80 00 24 	BRA        @0x0200538c    // 200538c <_dtoa_r+0x1294>
 2005368:	a7 c8 9f b8 	MOV        R9,R4          | MOV        R7,R3
 200536c:	97 d0 8f b0 	MOV        R10,R2         | MOV        R6,R1
 2005370:	87 fa fc f8 	JSR        0x020077bc     // 20077bc <__multadd>
 2005374:	02 00 77 bc 
 2005378:	53 40 40 00 	MOV        R1,R10
 200537c:	78 83 ff a8 	BRA        @0x02005328    // 2005328 <_dtoa_r+0x1230>
 2005380:	c7 80 dd 24 	MOV        R0,R8          | SW         R11,$36(SP)
 2005384:	df e0 af d0 	MOV        R12,R11        | MOV        R10,R5
 2005388:	53 42 40 00 	MOV        R9,R10
 200538c:	9e 01 94 24 	LDI        $1,R3          | LW         36(SP),R2
 2005390:	0b 41 80 00 	MOV        R6,R1
 2005394:	87 fa fc f8 	JSR        0x0200840c     // 200840c <__lshift>
 2005398:	02 00 84 0c 
 200539c:	8d 24 97 d8 	SW         R1,$36(SP)     | MOV        R11,R2
 20053a0:	87 fa fc f8 	JSR        0x02008594     // 2008594 <__mcmp>
 20053a4:	02 00 85 94 
 20053a8:	9c 18 8b 01 	LW         24(SP),R3      | CMP        $1,R1
 20053ac:	78 b0 00 3c 	BGE        @0x020053ec    // 20053ec <_dtoa_r+0x12f4>
 20053b0:	0c 00 00 00 	CMP        $0,R1
 20053b4:	78 a8 00 58 	BNZ        @0x02005410    // 2005410 <_dtoa_r+0x1318>
 20053b8:	40 40 00 01 	AND        $1,R8
 20053bc:	78 a8 00 28 	BNZ        @0x020053e8    // 20053e8 <_dtoa_r+0x12f0>
 20053c0:	78 80 00 4c 	BRA        @0x02005410    // 2005410 <_dtoa_r+0x1318>
 20053c4:	0c 04 c0 00 	CMP        R3,R1
 20053c8:	78 a8 00 14 	BNZ        @0x020053e0    // 20053e0 <_dtoa_r+0x12e8>
 20053cc:	9c 0c 9a 01 	LW         12(SP),R3      | ADD        $1,R3
 20053d0:	9d 0c 8e 31 	SW         R3,$12(SP)     | LDI        $49,R1
 20053d4:	04 87 40 18 	LW         24(SP),R0
 20053d8:	0d c4 00 00 	SB         R1,(R0)
 20053dc:	78 80 00 40 	BRA        @0x02005420    // 2005420 <_dtoa_r+0x1328>
 20053e0:	3b 40 40 00 	MOV        R1,R7
 20053e4:	78 80 00 04 	BRA        @0x020053ec    // 20053ec <_dtoa_r+0x12f4>
 20053e8:	1c 87 40 18 	LW         24(SP),R3
 20053ec:	8f b8 8a 7f 	MOV        R7,R1          | ADD        $-1,R1
 20053f0:	15 85 ff ff 	LB         -1(R7),R2
 20053f4:	14 00 00 39 	CMP        $57,R2
 20053f8:	78 8b ff c8 	BZ         @0x020053c4    // 20053c4 <_dtoa_r+0x12cc>
 20053fc:	10 80 00 01 	ADD        $1,R2
 2005400:	15 c4 40 00 	SB         R2,(R1)
 2005404:	78 80 00 18 	BRA        @0x02005420    // 2005420 <_dtoa_r+0x1328>
 2005408:	3b 40 80 00 	MOV        R2,R7
 200540c:	78 80 00 00 	BRA        @0x02005410    // 2005410 <_dtoa_r+0x1318>
 2005410:	97 b8 92 7f 	MOV        R7,R2          | ADD        $-1,R2
 2005414:	0d 85 ff ff 	LB         -1(R7),R1
 2005418:	0c 00 00 30 	CMP        $48,R1
 200541c:	78 8b ff e8 	BZ         @0x02005408    // 2005408 <_dtoa_r+0x1310>
 2005420:	97 d8 8f b0 	MOV        R11,R2         | MOV        R6,R1
 2005424:	87 fa fc f8 	JSR        0x0200779c     // 200779c <_Bfree>
 2005428:	02 00 77 9c 
 200542c:	54 00 00 00 	CMP        $0,R10
 2005430:	78 88 00 48 	BZ         @0x0200547c    // 200547c <_dtoa_r+0x1384>
 2005434:	ab 00 8e 00 	CMP        $0,R5          | CLR        R1
 2005438:	0a 68 00 01 	LDILO.NZ   $1,R1
 200543c:	ab d0 96 00 	CMP        R10,R5         | CLR        R2
 2005440:	12 68 00 01 	LDILO.NZ   $1,R2
 2005444:	08 44 80 00 	AND        R2,R1
 2005448:	78 88 00 0c 	BZ         @0x02005458    // 2005458 <_dtoa_r+0x1360>
 200544c:	97 a8 8f b0 	MOV        R5,R2          | MOV        R6,R1
 2005450:	87 fa fc f8 	JSR        0x0200779c     // 200779c <_Bfree>
 2005454:	02 00 77 9c 
 2005458:	97 d0 8f b0 	MOV        R10,R2         | MOV        R6,R1
 200545c:	87 fa fc f8 	JSR        0x0200779c     // 200779c <_Bfree>
 2005460:	02 00 77 9c 
 2005464:	78 80 00 14 	BRA        @0x0200547c    // 200547c <_dtoa_r+0x1384>
 2005468:	14 87 40 44 	LW         68(SP),R2
 200546c:	14 c7 40 0c 	SW         R2,$12(SP)
 2005470:	78 80 00 08 	BRA        @0x0200547c    // 200547c <_dtoa_r+0x1384>
 2005474:	1c 87 40 44 	LW         68(SP),R3
 2005478:	1c c7 40 0c 	SW         R3,$12(SP)
 200547c:	94 24 8f b0 	LW         36(SP),R2      | MOV        R6,R1
 2005480:	87 fa fc f8 	JSR        0x0200779c     // 200779c <_Bfree>
 2005484:	02 00 77 9c 
 2005488:	0e 00 00 00 	CLR        R1
 200548c:	0d c5 c0 00 	SB         R1,(R7)
 2005490:	8c 0c 8a 01 	LW         12(SP),R1      | ADD        $1,R1
 2005494:	14 87 40 78 	LW         120(SP),R2
 2005498:	0c c4 80 00 	SW         R1,(R2)
 200549c:	1c 87 40 80 	LW         128(SP),R3
 20054a0:	1c 00 00 00 	CMP        $0,R3
 20054a4:	3c ec c0 00 	SW.NZ      R7,(R3)
 20054a8:	0c 87 40 18 	LW         24(SP),R1
 20054ac:	78 80 01 84 	BRA        @0x02005634    // 2005634 <_dtoa_r+0x153c>
 20054b0:	0c 87 40 80 	LW         128(SP),R1
 20054b4:	0c 00 00 00 	CMP        $0,R1
 20054b8:	78 ab ec f8 	BNZ        @0x020041b4    // 20041b4 <_dtoa_r+0xbc>
 20054bc:	0a 03 00 40 	LDI        0x0200e41c,R1  // 200e41c <blanks.4493+0x1c>
 20054c0:	0a 40 e4 1c 
 20054c4:	78 80 01 6c 	BRA        @0x02005634    // 2005634 <_dtoa_r+0x153c>
 20054c8:	14 87 40 80 	LW         128(SP),R2
 20054cc:	0a 03 00 40 	LDI        0x0200e410,R1  // 200e410 <blanks.4493+0x10>
 20054d0:	0a 40 e4 10 
 20054d4:	14 00 00 00 	CMP        $0,R2
 20054d8:	78 88 01 58 	BZ         @0x02005634    // 2005634 <_dtoa_r+0x153c>
 20054dc:	78 83 ec e4 	BRA        @0x020041c4    // 20041c4 <_dtoa_r+0xcc>
 20054e0:	0b 42 00 00 	MOV        R8,R1
 20054e4:	87 fa fc f8 	JSR        0x0200d944     // 200d944 <__floatsidf>
 20054e8:	02 00 d9 44 
 20054ec:	9f d0 a7 b8 	MOV        R10,R3         | MOV        R7,R4
 20054f0:	87 fa fc f8 	JSR        0x0200d134     // 200d134 <__muldf3>
 20054f4:	02 00 d1 34 
 20054f8:	1a 00 38 02 	BREV       $14338,R3
 20054fc:	26 00 00 00 	CLR        R4
 2005500:	87 fa fc f8 	JSR        0x0200c92c     // 200c92c <__adddf3>
 2005504:	02 00 c9 2c 
 2005508:	43 40 80 00 	MOV        R2,R8
 200550c:	12 00 03 3f 	BREV       $831,R2
 2005510:	af 88 aa 90 	MOV        R1,R5          | ADD        R2,R5
 2005514:	78 83 f1 e8 	BRA        @0x02004700    // 2004700 <_dtoa_r+0x608>
 2005518:	97 d8 8f b0 	MOV        R11,R2         | MOV        R6,R1
 200551c:	87 fa fc f8 	JSR        0x0200779c     // 200779c <_Bfree>
 2005520:	02 00 77 9c 
 2005524:	54 00 00 00 	CMP        $0,R10
 2005528:	78 ab ff 2c 	BNZ        @0x02005458    // 2005458 <_dtoa_r+0x1360>
 200552c:	78 83 ff 4c 	BRA        @0x0200547c    // 200547c <_dtoa_r+0x1384>
 2005530:	1e 00 00 00 	CLR        R3
 2005534:	1c c5 80 44 	SW         R3,$68(R6)
 2005538:	96 00 8f b0 	CLR        R2             | MOV        R6,R1
 200553c:	87 fa fc f8 	JSR        0x02007700     // 2007700 <_Balloc>
 2005540:	02 00 77 00 
 2005544:	0c c7 40 18 	SW         R1,$24(SP)
 2005548:	0c c5 80 40 	SW         R1,$64(R6)
 200554c:	1c 87 40 50 	LW         80(SP),R3
 2005550:	84 0c 83 0d 	LW         12(SP),R0      | CMP        $13,R0
 2005554:	0e 00 00 00 	CLR        R1
 2005558:	0a 50 00 01 	LDILO.LT   $1,R1
 200555c:	13 40 c0 00 	MOV        R3,R2
 2005560:	11 03 ff ff 	XOR        $-1,R2
 2005564:	11 40 00 1f 	LSR        $31,R2
 2005568:	08 44 80 00 	AND        R2,R1
 200556c:	78 ab f5 00 	BNZ        @0x02004a70    // 2004a70 <_dtoa_r+0x978>
 2005570:	8d 10 8e 01 	SW         R1,$16(SP)     | LDI        $1,R1
 2005574:	8d 28 96 ff 	SW         R1,$40(SP)     | LDI        $-1,R2
 2005578:	95 2c 95 1c 	SW         R2,$44(SP)     | SW         R2,$28(SP)
 200557c:	78 83 f7 84 	BRA        @0x02004d04    // 2004d04 <_dtoa_r+0xc0c>
 2005580:	64 00 00 03 	CMP        $3,R12
 2005584:	78 8b ef 00 	BZ         @0x02004488    // 2004488 <_dtoa_r+0x390>
 2005588:	64 00 00 04 	CMP        $4,R12
 200558c:	78 b0 00 0c 	BGE        @0x0200559c    // 200559c <_dtoa_r+0x14a4>
 2005590:	64 00 00 02 	CMP        $2,R12
 2005594:	78 8b ee cc 	BZ         @0x02004464    // 2004464 <_dtoa_r+0x36c>
 2005598:	78 83 ff 94 	BRA        @0x02005530    // 2005530 <_dtoa_r+0x1438>
 200559c:	78 8b ee bc 	BZ         @0x0200445c    // 200445c <_dtoa_r+0x364>
 20055a0:	64 00 00 05 	CMP        $5,R12
 20055a4:	78 ab ff 88 	BNZ        @0x02005530    // 2005530 <_dtoa_r+0x1438>
 20055a8:	9e 01 9d 28 	LDI        $1,R3          | SW         R3,$40(SP)
 20055ac:	78 83 ee dc 	BRA        @0x0200448c    // 200448c <_dtoa_r+0x394>
 20055b0:	06 00 00 00 	CLR        R0
 20055b4:	04 c5 80 44 	SW         R0,$68(R6)
 20055b8:	96 00 8e 01 	CLR        R2             | LDI        $1,R1
 20055bc:	8d 2c 8d 1c 	SW         R1,$44(SP)     | SW         R1,$28(SP)
 20055c0:	0c c7 40 10 	SW         R1,$16(SP)
 20055c4:	78 83 ef 10 	BRA        @0x020044d8    // 20044d8 <_dtoa_r+0x3e0>
 20055c8:	8f 80 94 2c 	MOV        R0,R1          | LW         44(SP),R2
 20055cc:	14 03 ff ff 	CMP        $-1,R2
 20055d0:	0a 10 00 00 	LDI.LT     0x00000001,R1  // 1 <_rom+0x1>
 20055d4:	0a 50 00 01 
 20055d8:	e3 03 94 28 	CMP        $3,R12         | LW         40(SP),R2
 20055dc:	12 30 00 00 	LDI.GE     0x00000001,R2  // 1 <_rom+0x1>
 20055e0:	12 70 00 01 
 20055e4:	08 44 80 00 	AND        R2,R1
 20055e8:	78 ab fa 48 	BNZ        @0x02005034    // 2005034 <_dtoa_r+0xf3c>
 20055ec:	9c 2c 9d 1c 	LW         44(SP),R3      | SW         R3,$28(SP)
 20055f0:	78 83 fa c4 	BRA        @0x020050b8    // 20050b8 <_dtoa_r+0xfc0>
 20055f4:	06 00 00 00 	CLR        R0
 20055f8:	04 c5 80 44 	SW         R0,$68(R6)
 20055fc:	96 00 8f b0 	CLR        R2             | MOV        R6,R1
 2005600:	87 fa fc f8 	JSR        0x02007700     // 2007700 <_Balloc>
 2005604:	02 00 77 00 
 2005608:	0c c7 40 18 	SW         R1,$24(SP)
 200560c:	0c c5 80 40 	SW         R1,$64(R6)
 2005610:	e6 00 8e ff 	CLR        R12            | LDI        $-1,R1
 2005614:	8d 2c 96 01 	SW         R1,$44(SP)     | LDI        $1,R2
 2005618:	95 28 e5 10 	SW         R2,$40(SP)     | SW         R12,$16(SP)
 200561c:	0c c7 40 1c 	SW         R1,$28(SP)
 2005620:	78 83 f4 20 	BRA        @0x02004a44    // 2004a44 <_dtoa_r+0x94c>
 2005624:	9c 08 be 00 	LW         8(SP),R3       | CLR        R7
 2005628:	1c 00 00 00 	CMP        $0,R3
 200562c:	78 ab f8 a8 	BNZ        @0x02004ed8    // 2004ed8 <_dtoa_r+0xde0>
 2005630:	78 83 f8 64 	BRA        @0x02004e98    // 2004e98 <_dtoa_r+0xda0>
 2005634:	04 87 40 54 	LW         84(SP),R0
 2005638:	2c 87 40 58 	LW         88(SP),R5
 200563c:	34 87 40 5c 	LW         92(SP),R6
 2005640:	3c 87 40 60 	LW         96(SP),R7
 2005644:	44 87 40 64 	LW         100(SP),R8
 2005648:	4c 87 40 68 	LW         104(SP),R9
 200564c:	54 87 40 6c 	LW         108(SP),R10
 2005650:	5c 87 40 70 	LW         112(SP),R11
 2005654:	64 87 40 74 	LW         116(SP),R12
 2005658:	68 80 00 78 	ADD        $120,SP
 200565c:	7b 40 00 00 	RTN

02005660 <_fflush_r>:
 2005660:	e8 1c 85 00 	SUB        $28,SP         | SW         R0,(SP)
 2005664:	ad 04 b5 08 	SW         R5,$4(SP)      | SW         R6,$8(SP)
 2005668:	bd 0c c5 10 	SW         R7,$12(SP)     | SW         R8,$16(SP)
 200566c:	cd 14 d5 18 	SW         R9,$20(SP)     | SW         R10,$24(SP)
 2005670:	c7 88 b7 90 	MOV        R1,R8          | MOV        R2,R6
 2005674:	0c 00 00 00 	CMP        $0,R1
 2005678:	78 88 00 14 	BZ         @0x02005690    // 2005690 <_fflush_r+0x30>
 200567c:	14 84 40 38 	LW         56(R1),R2
 2005680:	14 00 00 00 	CMP        $0,R2
 2005684:	78 a8 00 08 	BNZ        @0x02005690    // 2005690 <_fflush_r+0x30>
 2005688:	87 fa fc f8 	JSR        0x0200622c     // 200622c <__sinit>
 200568c:	02 00 62 2c 
 2005690:	0d 05 80 0c 	LH         12(R6),R1
 2005694:	0c 00 00 00 	CMP        $0,R1
 2005698:	78 a8 00 08 	BNZ        @0x020056a4    // 20056a4 <_fflush_r+0x44>
 200569c:	0e 00 00 00 	CLR        R1
 20056a0:	78 80 02 7c 	BRA        @0x02005920    // 2005920 <_fflush_r+0x2c0>
 20056a4:	13 40 40 00 	MOV        R1,R2
 20056a8:	10 40 ff ff 	AND        $65535,R2
 20056ac:	9f 90 99 08 	MOV        R2,R3          | AND        $8,R3
 20056b0:	78 a8 01 bc 	BNZ        @0x02005870    // 2005870 <_fflush_r+0x210>
 20056b4:	08 c0 08 00 	OR         $2048,R1
 20056b8:	0d 45 80 0c 	SH         R1,$12(R6)
 20056bc:	14 85 80 04 	LW         4(R6),R2
 20056c0:	14 00 00 01 	CMP        $1,R2
 20056c4:	78 b0 00 0c 	BGE        @0x020056d4    // 20056d4 <_fflush_r+0x74>
 20056c8:	14 85 80 3c 	LW         60(R6),R2
 20056cc:	14 00 00 01 	CMP        $1,R2
 20056d0:	78 93 ff c8 	BLT        @0x0200569c    // 200569c <_fflush_r+0x3c>
 20056d4:	4c 85 80 28 	LW         40(R6),R9
 20056d8:	4c 00 00 00 	CMP        $0,R9
 20056dc:	78 8b ff bc 	BZ         @0x0200569c    // 200569c <_fflush_r+0x3c>
 20056e0:	d4 c0 86 00 	LW         (R8),R10       | CLR        R0
 20056e4:	04 c6 00 00 	SW         R0,(R8)
 20056e8:	08 40 ff ff 	AND        $65535,R1
 20056ec:	3b 40 40 00 	MOV        R1,R7
 20056f0:	38 40 10 00 	AND        $4096,R7
 20056f4:	3c 04 00 00 	CMP        R0,R7
 20056f8:	78 88 00 0c 	BZ         @0x02005708    // 2005708 <_fflush_r+0xa8>
 20056fc:	14 85 80 50 	LW         80(R6),R2
 2005700:	1c 85 80 54 	LW         84(R6),R3
 2005704:	78 80 00 80 	BRA        @0x02005788    // 2005788 <_fflush_r+0x128>
 2005708:	ae 01 9e 00 	LDI        $1,R5          | CLR        R3
 200570c:	26 00 00 00 	CLR        R4
 2005710:	14 85 80 1c 	LW         28(R6),R2
 2005714:	0b 42 00 00 	MOV        R8,R1
 2005718:	87 f9 ff c8 	JSR        R9
 200571c:	97 88 9f 90 	MOV        R1,R2          | MOV        R2,R3
 2005720:	14 03 ff ff 	CMP        $-1,R2
 2005724:	1c 0b ff ff 	CMP.Z      $-1,R3
 2005728:	78 a8 00 54 	BNZ        @0x02005780    // 2005780 <_fflush_r+0x120>
 200572c:	a4 c0 a3 00 	LW         (R8),R4        | CMP        $0,R4
 2005730:	78 a8 00 0c 	BNZ        @0x02005740    // 2005740 <_fflush_r+0xe0>
 2005734:	0d 05 80 0c 	LH         12(R6),R1
 2005738:	4c 85 80 28 	LW         40(R6),R9
 200573c:	78 80 00 48 	BRA        @0x02005788    // 2005788 <_fflush_r+0x128>
 2005740:	a3 1d 8f b8 	CMP        $29,R4         | MOV        R7,R1
 2005744:	0a 08 00 00 	LDI.Z      0x00000001,R1  // 1 <_rom+0x1>
 2005748:	0a 48 00 01 
 200574c:	a3 16 97 b8 	CMP        $22,R4         | MOV        R7,R2
 2005750:	12 08 00 00 	LDI.Z      0x00000001,R2  // 1 <_rom+0x1>
 2005754:	12 48 00 01 
 2005758:	08 c4 80 00 	OR         R2,R1
 200575c:	08 40 00 ff 	AND        $255,R1
 2005760:	78 88 00 08 	BZ         @0x0200576c    // 200576c <_fflush_r+0x10c>
 2005764:	d5 c0 8f b8 	SW         R10,(R8)       | MOV        R7,R1
 2005768:	78 80 01 b4 	BRA        @0x02005920    // 2005920 <_fflush_r+0x2c0>
 200576c:	0d 05 80 0c 	LH         12(R6),R1
 2005770:	08 c0 00 40 	OR         $64,R1
 2005774:	0d 45 80 0c 	SH         R1,$12(R6)
 2005778:	0e 7f ff ff 	LDI        $-1,R1
 200577c:	78 80 01 a0 	BRA        @0x02005920    // 2005920 <_fflush_r+0x2c0>
 2005780:	0d 05 80 0c 	LH         12(R6),R1
 2005784:	4c 85 80 28 	LW         40(R6),R9
 2005788:	08 40 00 04 	AND        $4,R1
 200578c:	78 88 00 3c 	BZ         @0x020057cc    // 20057cc <_fflush_r+0x16c>
 2005790:	0c 85 80 04 	LW         4(R6),R1
 2005794:	af 88 a7 88 	MOV        R1,R5          | MOV        R1,R4
 2005798:	21 c0 00 1f 	ASR        $31,R4
 200579c:	18 05 40 00 	SUB        R5,R3
 20057a0:	10 18 00 01 	SUB.C      $1,R2
 20057a4:	10 05 00 00 	SUB        R4,R2
 20057a8:	0c 85 80 30 	LW         48(R6),R1
 20057ac:	0c 00 00 00 	CMP        $0,R1
 20057b0:	78 88 00 18 	BZ         @0x020057cc    // 20057cc <_fflush_r+0x16c>
 20057b4:	0c 85 80 3c 	LW         60(R6),R1
 20057b8:	af 88 a7 88 	MOV        R1,R5          | MOV        R1,R4
 20057bc:	21 c0 00 1f 	ASR        $31,R4
 20057c0:	18 05 40 00 	SUB        R5,R3
 20057c4:	10 18 00 01 	SUB.C      $1,R2
 20057c8:	10 05 00 00 	SUB        R4,R2
 20057cc:	ae 00 9f 90 	CLR        R5             | MOV        R2,R3
 20057d0:	23 40 c0 00 	MOV        R3,R4
 20057d4:	14 85 80 1c 	LW         28(R6),R2
 20057d8:	0b 42 00 00 	MOV        R8,R1
 20057dc:	87 f9 ff c8 	JSR        R9
 20057e0:	9f 88 a7 90 	MOV        R1,R3          | MOV        R2,R4
 20057e4:	0c 03 ff ff 	CMP        $-1,R1
 20057e8:	14 0b ff ff 	CMP.Z      $-1,R2
 20057ec:	78 a8 01 0c 	BNZ        @0x020058fc    // 20058fc <_fflush_r+0x29c>
 20057f0:	ac c0 ab 1e 	LW         (R8),R5        | CMP        $30,R5
 20057f4:	78 b8 00 64 	BNC        @0x0200585c    // 200585c <_fflush_r+0x1fc>
 20057f8:	0a 00 02 04 	LDI        0x20400001,R1  // 20400001 <_top_of_stack+0x1d400001>
 20057fc:	0a 40 00 01 
 2005800:	09 45 40 00 	LSR        R5,R1
 2005804:	09 03 ff ff 	XOR        $-1,R1
 2005808:	08 40 00 01 	AND        $1,R1
 200580c:	78 88 00 c8 	BZ         @0x020058d8    // 20058d8 <_fflush_r+0x278>
 2005810:	78 80 00 48 	BRA        @0x0200585c    // 200585c <_fflush_r+0x1fc>
 2005814:	2c 00 00 00 	CMP        $0,R5
 2005818:	78 a8 00 08 	BNZ        @0x02005824    // 2005824 <_fflush_r+0x1c4>
 200581c:	1c c5 80 50 	SW         R3,$80(R6)
 2005820:	24 c5 80 54 	SW         R4,$84(R6)
 2005824:	54 c6 00 00 	SW         R10,(R8)
 2005828:	14 85 80 30 	LW         48(R6),R2
 200582c:	14 00 00 00 	CMP        $0,R2
 2005830:	78 8b fe 68 	BZ         @0x0200569c    // 200569c <_fflush_r+0x3c>
 2005834:	0b 41 80 00 	MOV        R6,R1
 2005838:	08 80 00 40 	ADD        $64,R1
 200583c:	14 04 40 00 	CMP        R1,R2
 2005840:	78 88 00 0c 	BZ         @0x02005850    // 2005850 <_fflush_r+0x1f0>
 2005844:	0b 42 00 00 	MOV        R8,R1
 2005848:	87 fa fc f8 	JSR        0x0200658c     // 200658c <_free_r>
 200584c:	02 00 65 8c 
 2005850:	0e 00 00 00 	CLR        R1
 2005854:	0c c5 80 30 	SW         R1,$48(R6)
 2005858:	78 80 00 c4 	BRA        @0x02005920    // 2005920 <_fflush_r+0x2c0>
 200585c:	0d 05 80 0c 	LH         12(R6),R1
 2005860:	08 c0 00 40 	OR         $64,R1
 2005864:	0d 45 80 0c 	SH         R1,$12(R6)
 2005868:	0e 7f ff ff 	LDI        $-1,R1
 200586c:	78 80 00 b0 	BRA        @0x02005920    // 2005920 <_fflush_r+0x2c0>
 2005870:	3c 85 80 10 	LW         16(R6),R7
 2005874:	3c 00 00 00 	CMP        $0,R7
 2005878:	78 8b fe 20 	BZ         @0x0200569c    // 200569c <_fflush_r+0x3c>
 200587c:	ac b0 a8 b8 	LW         (R6),R5        | SUB        R7,R5
 2005880:	bd b0 91 03 	SW         R7,(R6)        | AND        $3,R2
 2005884:	0c 8d 80 14 	LW.Z       20(R6),R1
 2005888:	0a 28 00 00 	CLR.NZ     $0,R1
 200588c:	0c c5 80 08 	SW         R1,$8(R6)
 2005890:	2c 00 00 01 	CMP        $1,R5
 2005894:	78 93 fe 04 	BLT        @0x0200569c    // 200569c <_fflush_r+0x3c>
 2005898:	a7 a8 9f b8 	MOV        R5,R4          | MOV        R7,R3
 200589c:	14 85 80 1c 	LW         28(R6),R2
 20058a0:	0b 42 00 00 	MOV        R8,R1
 20058a4:	03 43 c0 01 	IJSR       #36(R6)
 20058a8:	7c 85 80 24 
 20058ac:	0c 00 00 01 	CMP        $1,R1
 20058b0:	78 b0 00 14 	BGE        @0x020058c8    // 20058c8 <_fflush_r+0x268>
 20058b4:	0d 05 80 0c 	LH         12(R6),R1
 20058b8:	08 c0 00 40 	OR         $64,R1
 20058bc:	0d 45 80 0c 	SH         R1,$12(R6)
 20058c0:	0e 7f ff ff 	LDI        $-1,R1
 20058c4:	78 80 00 58 	BRA        @0x02005920    // 2005920 <_fflush_r+0x2c0>
 20058c8:	ba 88 a8 88 	ADD        R1,R7          | SUB        R1,R5
 20058cc:	2c 00 00 01 	CMP        $1,R5
 20058d0:	78 b3 ff c4 	BGE        @0x02005898    // 2005898 <_fflush_r+0x238>
 20058d4:	78 83 fd c4 	BRA        @0x0200569c    // 200569c <_fflush_r+0x3c>
 20058d8:	15 05 80 0c 	LH         12(R6),R2
 20058dc:	10 40 f7 ff 	AND        $63487,R2
 20058e0:	15 45 80 0c 	SH         R2,$12(R6)
 20058e4:	0c c5 80 04 	SW         R1,$4(R6)
 20058e8:	0c 85 80 10 	LW         16(R6),R1
 20058ec:	0c c5 80 00 	SW         R1,(R6)
 20058f0:	10 40 10 00 	AND        $4096,R2
 20058f4:	78 ab ff 1c 	BNZ        @0x02005814    // 2005814 <_fflush_r+0x1b4>
 20058f8:	78 83 ff 28 	BRA        @0x02005824    // 2005824 <_fflush_r+0x1c4>
 20058fc:	15 05 80 0c 	LH         12(R6),R2
 2005900:	10 40 f7 ff 	AND        $63487,R2
 2005904:	15 45 80 0c 	SH         R2,$12(R6)
 2005908:	2c c5 80 04 	SW         R5,$4(R6)
 200590c:	0c 85 80 10 	LW         16(R6),R1
 2005910:	0c c5 80 00 	SW         R1,(R6)
 2005914:	10 40 10 00 	AND        $4096,R2
 2005918:	78 8b ff 08 	BZ         @0x02005824    // 2005824 <_fflush_r+0x1c4>
 200591c:	78 83 fe fc 	BRA        @0x0200581c    // 200581c <_fflush_r+0x1bc>
 2005920:	84 00 ac 04 	LW         (SP),R0        | LW         4(SP),R5
 2005924:	b4 08 bc 0c 	LW         8(SP),R6       | LW         12(SP),R7
 2005928:	c4 10 cc 14 	LW         16(SP),R8      | LW         20(SP),R9
 200592c:	d4 18 ea 1c 	LW         24(SP),R10     | ADD        $28,SP
 2005930:	7b 40 00 00 	RTN

02005934 <__sflush_r>:
 2005934:	e8 1c 85 00 	SUB        $28,SP         | SW         R0,(SP)
 2005938:	ad 04 b5 08 	SW         R5,$4(SP)      | SW         R6,$8(SP)
 200593c:	bd 0c c5 10 	SW         R7,$12(SP)     | SW         R8,$16(SP)
 2005940:	cd 14 d5 18 	SW         R9,$20(SP)     | SW         R10,$24(SP)
 2005944:	c7 88 b7 90 	MOV        R1,R8          | MOV        R2,R6
 2005948:	0d 04 80 0c 	LH         12(R2),R1
 200594c:	13 40 40 00 	MOV        R1,R2
 2005950:	10 40 ff ff 	AND        $65535,R2
 2005954:	9f 90 99 08 	MOV        R2,R3          | AND        $8,R3
 2005958:	78 a8 01 c4 	BNZ        @0x02005b20    // 2005b20 <__sflush_r+0x1ec>
 200595c:	08 c0 08 00 	OR         $2048,R1
 2005960:	0d 45 80 0c 	SH         R1,$12(R6)
 2005964:	14 85 80 04 	LW         4(R6),R2
 2005968:	14 00 00 01 	CMP        $1,R2
 200596c:	78 b0 00 14 	BGE        @0x02005984    // 2005984 <__sflush_r+0x50>
 2005970:	14 85 80 3c 	LW         60(R6),R2
 2005974:	14 00 00 01 	CMP        $1,R2
 2005978:	78 b0 00 08 	BGE        @0x02005984    // 2005984 <__sflush_r+0x50>
 200597c:	0e 00 00 00 	CLR        R1
 2005980:	78 80 02 4c 	BRA        @0x02005bd0    // 2005bd0 <__sflush_r+0x29c>
 2005984:	4c 85 80 28 	LW         40(R6),R9
 2005988:	4c 00 00 00 	CMP        $0,R9
 200598c:	78 8b ff ec 	BZ         @0x0200597c    // 200597c <__sflush_r+0x48>
 2005990:	d4 c0 86 00 	LW         (R8),R10       | CLR        R0
 2005994:	04 c6 00 00 	SW         R0,(R8)
 2005998:	08 40 ff ff 	AND        $65535,R1
 200599c:	3b 40 40 00 	MOV        R1,R7
 20059a0:	38 40 10 00 	AND        $4096,R7
 20059a4:	3c 04 00 00 	CMP        R0,R7
 20059a8:	78 88 00 0c 	BZ         @0x020059b8    // 20059b8 <__sflush_r+0x84>
 20059ac:	14 85 80 50 	LW         80(R6),R2
 20059b0:	1c 85 80 54 	LW         84(R6),R3
 20059b4:	78 80 00 80 	BRA        @0x02005a38    // 2005a38 <__sflush_r+0x104>
 20059b8:	ae 01 9e 00 	LDI        $1,R5          | CLR        R3
 20059bc:	26 00 00 00 	CLR        R4
 20059c0:	14 85 80 1c 	LW         28(R6),R2
 20059c4:	0b 42 00 00 	MOV        R8,R1
 20059c8:	87 f9 ff c8 	JSR        R9
 20059cc:	97 88 9f 90 	MOV        R1,R2          | MOV        R2,R3
 20059d0:	14 03 ff ff 	CMP        $-1,R2
 20059d4:	1c 0b ff ff 	CMP.Z      $-1,R3
 20059d8:	78 a8 00 54 	BNZ        @0x02005a30    // 2005a30 <__sflush_r+0xfc>
 20059dc:	a4 c0 a3 00 	LW         (R8),R4        | CMP        $0,R4
 20059e0:	78 a8 00 0c 	BNZ        @0x020059f0    // 20059f0 <__sflush_r+0xbc>
 20059e4:	0d 05 80 0c 	LH         12(R6),R1
 20059e8:	4c 85 80 28 	LW         40(R6),R9
 20059ec:	78 80 00 48 	BRA        @0x02005a38    // 2005a38 <__sflush_r+0x104>
 20059f0:	a3 1d 8f b8 	CMP        $29,R4         | MOV        R7,R1
 20059f4:	0a 08 00 00 	LDI.Z      0x00000001,R1  // 1 <_rom+0x1>
 20059f8:	0a 48 00 01 
 20059fc:	a3 16 97 b8 	CMP        $22,R4         | MOV        R7,R2
 2005a00:	12 08 00 00 	LDI.Z      0x00000001,R2  // 1 <_rom+0x1>
 2005a04:	12 48 00 01 
 2005a08:	08 c4 80 00 	OR         R2,R1
 2005a0c:	08 40 00 ff 	AND        $255,R1
 2005a10:	78 88 00 08 	BZ         @0x02005a1c    // 2005a1c <__sflush_r+0xe8>
 2005a14:	d5 c0 8f b8 	SW         R10,(R8)       | MOV        R7,R1
 2005a18:	78 80 01 b4 	BRA        @0x02005bd0    // 2005bd0 <__sflush_r+0x29c>
 2005a1c:	0d 05 80 0c 	LH         12(R6),R1
 2005a20:	08 c0 00 40 	OR         $64,R1
 2005a24:	0d 45 80 0c 	SH         R1,$12(R6)
 2005a28:	0e 7f ff ff 	LDI        $-1,R1
 2005a2c:	78 80 01 a0 	BRA        @0x02005bd0    // 2005bd0 <__sflush_r+0x29c>
 2005a30:	0d 05 80 0c 	LH         12(R6),R1
 2005a34:	4c 85 80 28 	LW         40(R6),R9
 2005a38:	08 40 00 04 	AND        $4,R1
 2005a3c:	78 88 00 3c 	BZ         @0x02005a7c    // 2005a7c <__sflush_r+0x148>
 2005a40:	0c 85 80 04 	LW         4(R6),R1
 2005a44:	af 88 a7 88 	MOV        R1,R5          | MOV        R1,R4
 2005a48:	21 c0 00 1f 	ASR        $31,R4
 2005a4c:	18 05 40 00 	SUB        R5,R3
 2005a50:	10 18 00 01 	SUB.C      $1,R2
 2005a54:	10 05 00 00 	SUB        R4,R2
 2005a58:	0c 85 80 30 	LW         48(R6),R1
 2005a5c:	0c 00 00 00 	CMP        $0,R1
 2005a60:	78 88 00 18 	BZ         @0x02005a7c    // 2005a7c <__sflush_r+0x148>
 2005a64:	0c 85 80 3c 	LW         60(R6),R1
 2005a68:	af 88 a7 88 	MOV        R1,R5          | MOV        R1,R4
 2005a6c:	21 c0 00 1f 	ASR        $31,R4
 2005a70:	18 05 40 00 	SUB        R5,R3
 2005a74:	10 18 00 01 	SUB.C      $1,R2
 2005a78:	10 05 00 00 	SUB        R4,R2
 2005a7c:	ae 00 9f 90 	CLR        R5             | MOV        R2,R3
 2005a80:	23 40 c0 00 	MOV        R3,R4
 2005a84:	14 85 80 1c 	LW         28(R6),R2
 2005a88:	0b 42 00 00 	MOV        R8,R1
 2005a8c:	87 f9 ff c8 	JSR        R9
 2005a90:	9f 88 a7 90 	MOV        R1,R3          | MOV        R2,R4
 2005a94:	0c 03 ff ff 	CMP        $-1,R1
 2005a98:	14 0b ff ff 	CMP.Z      $-1,R2
 2005a9c:	78 a8 00 e8 	BNZ        @0x02005b88    // 2005b88 <__sflush_r+0x254>
 2005aa0:	ac c0 ab 1e 	LW         (R8),R5        | CMP        $30,R5
 2005aa4:	78 b8 00 64 	BNC        @0x02005b0c    // 2005b0c <__sflush_r+0x1d8>
 2005aa8:	0a 00 02 04 	LDI        0x20400001,R1  // 20400001 <_top_of_stack+0x1d400001>
 2005aac:	0a 40 00 01 
 2005ab0:	09 45 40 00 	LSR        R5,R1
 2005ab4:	09 03 ff ff 	XOR        $-1,R1
 2005ab8:	08 40 00 01 	AND        $1,R1
 2005abc:	78 88 00 ec 	BZ         @0x02005bac    // 2005bac <__sflush_r+0x278>
 2005ac0:	78 80 00 48 	BRA        @0x02005b0c    // 2005b0c <__sflush_r+0x1d8>
 2005ac4:	2c 00 00 00 	CMP        $0,R5
 2005ac8:	78 a8 00 08 	BNZ        @0x02005ad4    // 2005ad4 <__sflush_r+0x1a0>
 2005acc:	1c c5 80 50 	SW         R3,$80(R6)
 2005ad0:	24 c5 80 54 	SW         R4,$84(R6)
 2005ad4:	54 c6 00 00 	SW         R10,(R8)
 2005ad8:	14 85 80 30 	LW         48(R6),R2
 2005adc:	14 00 00 00 	CMP        $0,R2
 2005ae0:	78 8b fe 98 	BZ         @0x0200597c    // 200597c <__sflush_r+0x48>
 2005ae4:	0b 41 80 00 	MOV        R6,R1
 2005ae8:	08 80 00 40 	ADD        $64,R1
 2005aec:	14 04 40 00 	CMP        R1,R2
 2005af0:	78 88 00 0c 	BZ         @0x02005b00    // 2005b00 <__sflush_r+0x1cc>
 2005af4:	0b 42 00 00 	MOV        R8,R1
 2005af8:	87 fa fc f8 	JSR        0x0200658c     // 200658c <_free_r>
 2005afc:	02 00 65 8c 
 2005b00:	0e 00 00 00 	CLR        R1
 2005b04:	0c c5 80 30 	SW         R1,$48(R6)
 2005b08:	78 80 00 c4 	BRA        @0x02005bd0    // 2005bd0 <__sflush_r+0x29c>
 2005b0c:	0d 05 80 0c 	LH         12(R6),R1
 2005b10:	08 c0 00 40 	OR         $64,R1
 2005b14:	0d 45 80 0c 	SH         R1,$12(R6)
 2005b18:	0e 7f ff ff 	LDI        $-1,R1
 2005b1c:	78 80 00 b0 	BRA        @0x02005bd0    // 2005bd0 <__sflush_r+0x29c>
 2005b20:	3c 85 80 10 	LW         16(R6),R7
 2005b24:	3c 00 00 00 	CMP        $0,R7
 2005b28:	78 8b fe 50 	BZ         @0x0200597c    // 200597c <__sflush_r+0x48>
 2005b2c:	ac b0 a8 b8 	LW         (R6),R5        | SUB        R7,R5
 2005b30:	bd b0 91 03 	SW         R7,(R6)        | AND        $3,R2
 2005b34:	0c 8d 80 14 	LW.Z       20(R6),R1
 2005b38:	0a 28 00 00 	CLR.NZ     $0,R1
 2005b3c:	0c c5 80 08 	SW         R1,$8(R6)
 2005b40:	2c 00 00 01 	CMP        $1,R5
 2005b44:	78 93 fe 34 	BLT        @0x0200597c    // 200597c <__sflush_r+0x48>
 2005b48:	a7 a8 9f b8 	MOV        R5,R4          | MOV        R7,R3
 2005b4c:	14 85 80 1c 	LW         28(R6),R2
 2005b50:	0b 42 00 00 	MOV        R8,R1
 2005b54:	03 43 c0 01 	IJSR       #36(R6)
 2005b58:	7c 85 80 24 
 2005b5c:	0c 00 00 01 	CMP        $1,R1
 2005b60:	78 b0 00 14 	BGE        @0x02005b78    // 2005b78 <__sflush_r+0x244>
 2005b64:	0d 05 80 0c 	LH         12(R6),R1
 2005b68:	08 c0 00 40 	OR         $64,R1
 2005b6c:	0d 45 80 0c 	SH         R1,$12(R6)
 2005b70:	0e 7f ff ff 	LDI        $-1,R1
 2005b74:	78 80 00 58 	BRA        @0x02005bd0    // 2005bd0 <__sflush_r+0x29c>
 2005b78:	ba 88 a8 88 	ADD        R1,R7          | SUB        R1,R5
 2005b7c:	2c 00 00 01 	CMP        $1,R5
 2005b80:	78 b3 ff c4 	BGE        @0x02005b48    // 2005b48 <__sflush_r+0x214>
 2005b84:	78 83 fd f4 	BRA        @0x0200597c    // 200597c <__sflush_r+0x48>
 2005b88:	15 05 80 0c 	LH         12(R6),R2
 2005b8c:	10 40 f7 ff 	AND        $63487,R2
 2005b90:	15 45 80 0c 	SH         R2,$12(R6)
 2005b94:	2c c5 80 04 	SW         R5,$4(R6)
 2005b98:	0c 85 80 10 	LW         16(R6),R1
 2005b9c:	0c c5 80 00 	SW         R1,(R6)
 2005ba0:	10 40 10 00 	AND        $4096,R2
 2005ba4:	78 8b ff 2c 	BZ         @0x02005ad4    // 2005ad4 <__sflush_r+0x1a0>
 2005ba8:	78 83 ff 20 	BRA        @0x02005acc    // 2005acc <__sflush_r+0x198>
 2005bac:	15 05 80 0c 	LH         12(R6),R2
 2005bb0:	10 40 f7 ff 	AND        $63487,R2
 2005bb4:	15 45 80 0c 	SH         R2,$12(R6)
 2005bb8:	0c c5 80 04 	SW         R1,$4(R6)
 2005bbc:	0c 85 80 10 	LW         16(R6),R1
 2005bc0:	0c c5 80 00 	SW         R1,(R6)
 2005bc4:	10 40 10 00 	AND        $4096,R2
 2005bc8:	78 ab fe f8 	BNZ        @0x02005ac4    // 2005ac4 <__sflush_r+0x190>
 2005bcc:	78 83 ff 04 	BRA        @0x02005ad4    // 2005ad4 <__sflush_r+0x1a0>
 2005bd0:	84 00 ac 04 	LW         (SP),R0        | LW         4(SP),R5
 2005bd4:	b4 08 bc 0c 	LW         8(SP),R6       | LW         12(SP),R7
 2005bd8:	c4 10 cc 14 	LW         16(SP),R8      | LW         20(SP),R9
 2005bdc:	d4 18 ea 1c 	LW         24(SP),R10     | ADD        $28,SP
 2005be0:	7b 40 00 00 	RTN

02005be4 <fflush>:
 2005be4:	0c 00 00 00 	CMP        $0,R1
 2005be8:	78 a8 00 18 	BNZ        @0x02005c04    // 2005c04 <fflush+0x20>
 2005bec:	13 43 de 9c 	MOV        0x02005660,R2  // 2005660 <_fflush_r>
 2005bf0:	0a 03 00 40 	LDI        0x0200e3a4,R1  // 200e3a4 <_global_impure_ptr>
 2005bf4:	0a 40 e3 a4 
 2005bf8:	0c 84 40 00 	LW         (R1),R1
 2005bfc:	7c 87 c0 00 	LJMP       @0x02006e1c    // 2006e1c <_fwalk_reent>
 2005c00:	02 00 6e 1c 
 2005c04:	e8 1c 85 00 	SUB        $28,SP         | SW         R0,(SP)
 2005c08:	ad 04 b5 08 	SW         R5,$4(SP)      | SW         R6,$8(SP)
 2005c0c:	bd 0c c5 10 	SW         R7,$12(SP)     | SW         R8,$16(SP)
 2005c10:	cd 14 d5 18 	SW         R9,$20(SP)     | SW         R10,$24(SP)
 2005c14:	33 40 40 00 	MOV        R1,R6
 2005c18:	0a 03 00 40 	LDI        0x0200e78c,R1  // 200e78c <_impure_ptr>
 2005c1c:	0a 40 e7 8c 
 2005c20:	c4 88 c3 00 	LW         (R1),R8        | CMP        $0,R8
 2005c24:	78 88 00 18 	BZ         @0x02005c40    // 2005c40 <fflush+0x5c>
 2005c28:	0c 86 00 38 	LW         56(R8),R1
 2005c2c:	0c 00 00 00 	CMP        $0,R1
 2005c30:	78 a8 00 0c 	BNZ        @0x02005c40    // 2005c40 <fflush+0x5c>
 2005c34:	0b 42 00 00 	MOV        R8,R1
 2005c38:	87 fa fc f8 	JSR        0x0200622c     // 200622c <__sinit>
 2005c3c:	02 00 62 2c 
 2005c40:	0d 05 80 0c 	LH         12(R6),R1
 2005c44:	0c 00 00 00 	CMP        $0,R1
 2005c48:	78 a8 00 08 	BNZ        @0x02005c54    // 2005c54 <fflush+0x70>
 2005c4c:	0e 00 00 00 	CLR        R1
 2005c50:	78 80 02 7c 	BRA        @0x02005ed0    // 2005ed0 <fflush+0x2ec>
 2005c54:	13 40 40 00 	MOV        R1,R2
 2005c58:	10 40 ff ff 	AND        $65535,R2
 2005c5c:	9f 90 99 08 	MOV        R2,R3          | AND        $8,R3
 2005c60:	78 a8 01 bc 	BNZ        @0x02005e20    // 2005e20 <fflush+0x23c>
 2005c64:	08 c0 08 00 	OR         $2048,R1
 2005c68:	0d 45 80 0c 	SH         R1,$12(R6)
 2005c6c:	14 85 80 04 	LW         4(R6),R2
 2005c70:	14 00 00 01 	CMP        $1,R2
 2005c74:	78 b0 00 0c 	BGE        @0x02005c84    // 2005c84 <fflush+0xa0>
 2005c78:	14 85 80 3c 	LW         60(R6),R2
 2005c7c:	14 00 00 01 	CMP        $1,R2
 2005c80:	78 93 ff c8 	BLT        @0x02005c4c    // 2005c4c <fflush+0x68>
 2005c84:	4c 85 80 28 	LW         40(R6),R9
 2005c88:	4c 00 00 00 	CMP        $0,R9
 2005c8c:	78 8b ff bc 	BZ         @0x02005c4c    // 2005c4c <fflush+0x68>
 2005c90:	d4 c0 86 00 	LW         (R8),R10       | CLR        R0
 2005c94:	04 c6 00 00 	SW         R0,(R8)
 2005c98:	08 40 ff ff 	AND        $65535,R1
 2005c9c:	3b 40 40 00 	MOV        R1,R7
 2005ca0:	38 40 10 00 	AND        $4096,R7
 2005ca4:	3c 04 00 00 	CMP        R0,R7
 2005ca8:	78 88 00 0c 	BZ         @0x02005cb8    // 2005cb8 <fflush+0xd4>
 2005cac:	14 85 80 50 	LW         80(R6),R2
 2005cb0:	1c 85 80 54 	LW         84(R6),R3
 2005cb4:	78 80 00 80 	BRA        @0x02005d38    // 2005d38 <fflush+0x154>
 2005cb8:	ae 01 9e 00 	LDI        $1,R5          | CLR        R3
 2005cbc:	26 00 00 00 	CLR        R4
 2005cc0:	14 85 80 1c 	LW         28(R6),R2
 2005cc4:	0b 42 00 00 	MOV        R8,R1
 2005cc8:	87 f9 ff c8 	JSR        R9
 2005ccc:	97 88 9f 90 	MOV        R1,R2          | MOV        R2,R3
 2005cd0:	14 03 ff ff 	CMP        $-1,R2
 2005cd4:	1c 0b ff ff 	CMP.Z      $-1,R3
 2005cd8:	78 a8 00 54 	BNZ        @0x02005d30    // 2005d30 <fflush+0x14c>
 2005cdc:	a4 c0 a3 00 	LW         (R8),R4        | CMP        $0,R4
 2005ce0:	78 a8 00 0c 	BNZ        @0x02005cf0    // 2005cf0 <fflush+0x10c>
 2005ce4:	0d 05 80 0c 	LH         12(R6),R1
 2005ce8:	4c 85 80 28 	LW         40(R6),R9
 2005cec:	78 80 00 48 	BRA        @0x02005d38    // 2005d38 <fflush+0x154>
 2005cf0:	a3 1d 8f b8 	CMP        $29,R4         | MOV        R7,R1
 2005cf4:	0a 08 00 00 	LDI.Z      0x00000001,R1  // 1 <_rom+0x1>
 2005cf8:	0a 48 00 01 
 2005cfc:	a3 16 97 b8 	CMP        $22,R4         | MOV        R7,R2
 2005d00:	12 08 00 00 	LDI.Z      0x00000001,R2  // 1 <_rom+0x1>
 2005d04:	12 48 00 01 
 2005d08:	08 c4 80 00 	OR         R2,R1
 2005d0c:	08 40 00 ff 	AND        $255,R1
 2005d10:	78 88 00 08 	BZ         @0x02005d1c    // 2005d1c <fflush+0x138>
 2005d14:	d5 c0 8f b8 	SW         R10,(R8)       | MOV        R7,R1
 2005d18:	78 80 01 b4 	BRA        @0x02005ed0    // 2005ed0 <fflush+0x2ec>
 2005d1c:	0d 05 80 0c 	LH         12(R6),R1
 2005d20:	08 c0 00 40 	OR         $64,R1
 2005d24:	0d 45 80 0c 	SH         R1,$12(R6)
 2005d28:	0e 7f ff ff 	LDI        $-1,R1
 2005d2c:	78 80 01 a0 	BRA        @0x02005ed0    // 2005ed0 <fflush+0x2ec>
 2005d30:	0d 05 80 0c 	LH         12(R6),R1
 2005d34:	4c 85 80 28 	LW         40(R6),R9
 2005d38:	08 40 00 04 	AND        $4,R1
 2005d3c:	78 88 00 3c 	BZ         @0x02005d7c    // 2005d7c <fflush+0x198>
 2005d40:	0c 85 80 04 	LW         4(R6),R1
 2005d44:	af 88 a7 88 	MOV        R1,R5          | MOV        R1,R4
 2005d48:	21 c0 00 1f 	ASR        $31,R4
 2005d4c:	18 05 40 00 	SUB        R5,R3
 2005d50:	10 18 00 01 	SUB.C      $1,R2
 2005d54:	10 05 00 00 	SUB        R4,R2
 2005d58:	0c 85 80 30 	LW         48(R6),R1
 2005d5c:	0c 00 00 00 	CMP        $0,R1
 2005d60:	78 88 00 18 	BZ         @0x02005d7c    // 2005d7c <fflush+0x198>
 2005d64:	0c 85 80 3c 	LW         60(R6),R1
 2005d68:	af 88 a7 88 	MOV        R1,R5          | MOV        R1,R4
 2005d6c:	21 c0 00 1f 	ASR        $31,R4
 2005d70:	18 05 40 00 	SUB        R5,R3
 2005d74:	10 18 00 01 	SUB.C      $1,R2
 2005d78:	10 05 00 00 	SUB        R4,R2
 2005d7c:	ae 00 9f 90 	CLR        R5             | MOV        R2,R3
 2005d80:	23 40 c0 00 	MOV        R3,R4
 2005d84:	14 85 80 1c 	LW         28(R6),R2
 2005d88:	0b 42 00 00 	MOV        R8,R1
 2005d8c:	87 f9 ff c8 	JSR        R9
 2005d90:	9f 88 a7 90 	MOV        R1,R3          | MOV        R2,R4
 2005d94:	0c 03 ff ff 	CMP        $-1,R1
 2005d98:	14 0b ff ff 	CMP.Z      $-1,R2
 2005d9c:	78 a8 01 0c 	BNZ        @0x02005eac    // 2005eac <fflush+0x2c8>
 2005da0:	ac c0 ab 1e 	LW         (R8),R5        | CMP        $30,R5
 2005da4:	78 b8 00 64 	BNC        @0x02005e0c    // 2005e0c <fflush+0x228>
 2005da8:	0a 00 02 04 	LDI        0x20400001,R1  // 20400001 <_top_of_stack+0x1d400001>
 2005dac:	0a 40 00 01 
 2005db0:	09 45 40 00 	LSR        R5,R1
 2005db4:	09 03 ff ff 	XOR        $-1,R1
 2005db8:	08 40 00 01 	AND        $1,R1
 2005dbc:	78 88 00 c8 	BZ         @0x02005e88    // 2005e88 <fflush+0x2a4>
 2005dc0:	78 80 00 48 	BRA        @0x02005e0c    // 2005e0c <fflush+0x228>
 2005dc4:	2c 00 00 00 	CMP        $0,R5
 2005dc8:	78 a8 00 08 	BNZ        @0x02005dd4    // 2005dd4 <fflush+0x1f0>
 2005dcc:	1c c5 80 50 	SW         R3,$80(R6)
 2005dd0:	24 c5 80 54 	SW         R4,$84(R6)
 2005dd4:	54 c6 00 00 	SW         R10,(R8)
 2005dd8:	14 85 80 30 	LW         48(R6),R2
 2005ddc:	14 00 00 00 	CMP        $0,R2
 2005de0:	78 8b fe 68 	BZ         @0x02005c4c    // 2005c4c <fflush+0x68>
 2005de4:	0b 41 80 00 	MOV        R6,R1
 2005de8:	08 80 00 40 	ADD        $64,R1
 2005dec:	14 04 40 00 	CMP        R1,R2
 2005df0:	78 88 00 0c 	BZ         @0x02005e00    // 2005e00 <fflush+0x21c>
 2005df4:	0b 42 00 00 	MOV        R8,R1
 2005df8:	87 fa fc f8 	JSR        0x0200658c     // 200658c <_free_r>
 2005dfc:	02 00 65 8c 
 2005e00:	0e 00 00 00 	CLR        R1
 2005e04:	0c c5 80 30 	SW         R1,$48(R6)
 2005e08:	78 80 00 c4 	BRA        @0x02005ed0    // 2005ed0 <fflush+0x2ec>
 2005e0c:	0d 05 80 0c 	LH         12(R6),R1
 2005e10:	08 c0 00 40 	OR         $64,R1
 2005e14:	0d 45 80 0c 	SH         R1,$12(R6)
 2005e18:	0e 7f ff ff 	LDI        $-1,R1
 2005e1c:	78 80 00 b0 	BRA        @0x02005ed0    // 2005ed0 <fflush+0x2ec>
 2005e20:	3c 85 80 10 	LW         16(R6),R7
 2005e24:	3c 00 00 00 	CMP        $0,R7
 2005e28:	78 8b fe 20 	BZ         @0x02005c4c    // 2005c4c <fflush+0x68>
 2005e2c:	ac b0 a8 b8 	LW         (R6),R5        | SUB        R7,R5
 2005e30:	bd b0 91 03 	SW         R7,(R6)        | AND        $3,R2
 2005e34:	0c 8d 80 14 	LW.Z       20(R6),R1
 2005e38:	0a 28 00 00 	CLR.NZ     $0,R1
 2005e3c:	0c c5 80 08 	SW         R1,$8(R6)
 2005e40:	2c 00 00 01 	CMP        $1,R5
 2005e44:	78 93 fe 04 	BLT        @0x02005c4c    // 2005c4c <fflush+0x68>
 2005e48:	a7 a8 9f b8 	MOV        R5,R4          | MOV        R7,R3
 2005e4c:	14 85 80 1c 	LW         28(R6),R2
 2005e50:	0b 42 00 00 	MOV        R8,R1
 2005e54:	03 43 c0 01 	IJSR       #36(R6)
 2005e58:	7c 85 80 24 
 2005e5c:	0c 00 00 01 	CMP        $1,R1
 2005e60:	78 b0 00 14 	BGE        @0x02005e78    // 2005e78 <fflush+0x294>
 2005e64:	0d 05 80 0c 	LH         12(R6),R1
 2005e68:	08 c0 00 40 	OR         $64,R1
 2005e6c:	0d 45 80 0c 	SH         R1,$12(R6)
 2005e70:	0e 7f ff ff 	LDI        $-1,R1
 2005e74:	78 80 00 58 	BRA        @0x02005ed0    // 2005ed0 <fflush+0x2ec>
 2005e78:	ba 88 a8 88 	ADD        R1,R7          | SUB        R1,R5
 2005e7c:	2c 00 00 01 	CMP        $1,R5
 2005e80:	78 b3 ff c4 	BGE        @0x02005e48    // 2005e48 <fflush+0x264>
 2005e84:	78 83 fd c4 	BRA        @0x02005c4c    // 2005c4c <fflush+0x68>
 2005e88:	15 05 80 0c 	LH         12(R6),R2
 2005e8c:	10 40 f7 ff 	AND        $63487,R2
 2005e90:	15 45 80 0c 	SH         R2,$12(R6)
 2005e94:	0c c5 80 04 	SW         R1,$4(R6)
 2005e98:	0c 85 80 10 	LW         16(R6),R1
 2005e9c:	0c c5 80 00 	SW         R1,(R6)
 2005ea0:	10 40 10 00 	AND        $4096,R2
 2005ea4:	78 ab ff 1c 	BNZ        @0x02005dc4    // 2005dc4 <fflush+0x1e0>
 2005ea8:	78 83 ff 28 	BRA        @0x02005dd4    // 2005dd4 <fflush+0x1f0>
 2005eac:	15 05 80 0c 	LH         12(R6),R2
 2005eb0:	10 40 f7 ff 	AND        $63487,R2
 2005eb4:	15 45 80 0c 	SH         R2,$12(R6)
 2005eb8:	2c c5 80 04 	SW         R5,$4(R6)
 2005ebc:	0c 85 80 10 	LW         16(R6),R1
 2005ec0:	0c c5 80 00 	SW         R1,(R6)
 2005ec4:	10 40 10 00 	AND        $4096,R2
 2005ec8:	78 8b ff 08 	BZ         @0x02005dd4    // 2005dd4 <fflush+0x1f0>
 2005ecc:	78 83 fe fc 	BRA        @0x02005dcc    // 2005dcc <fflush+0x1e8>
 2005ed0:	84 00 ac 04 	LW         (SP),R0        | LW         4(SP),R5
 2005ed4:	b4 08 bc 0c 	LW         8(SP),R6       | LW         12(SP),R7
 2005ed8:	c4 10 cc 14 	LW         16(SP),R8      | LW         20(SP),R9
 2005edc:	d4 18 ea 1c 	LW         24(SP),R10     | ADD        $28,SP
 2005ee0:	7b 40 00 00 	RTN

02005ee4 <__fp_unlock>:
 2005ee4:	8e 00 ff 80 	CLR        R1             | RTN

02005ee8 <_cleanup_r>:
 2005ee8:	e8 04 85 00 	SUB        $4,SP          | SW         R0,(SP)
 2005eec:	12 01 00 40 	LDI        0x0200b624,R2  // 200b624 <_fclose_r>
 2005ef0:	12 40 b6 24 
 2005ef4:	84 00 ea 04 	LW         (SP),R0        | ADD        $4,SP
 2005ef8:	7c 87 c0 00 	LJMP       @0x02006e1c    // 2006e1c <_fwalk_reent>
 2005efc:	02 00 6e 1c 

02005f00 <__fp_lock>:
 2005f00:	8e 00 ff 80 	CLR        R1             | RTN

02005f04 <__sfmoreglue>:
 2005f04:	e8 10 85 00 	SUB        $16,SP         | SW         R0,(SP)
 2005f08:	ad 04 b5 08 	SW         R5,$4(SP)      | SW         R6,$8(SP)
 2005f0c:	bd 0c bf 90 	SW         R7,$12(SP)     | MOV        R2,R7
 2005f10:	b7 90 b2 7f 	MOV        R2,R6          | ADD        $-1,R6
 2005f14:	33 00 00 6c 	MPY        $108,R6
 2005f18:	13 41 80 00 	MOV        R6,R2
 2005f1c:	10 80 00 78 	ADD        $120,R2
 2005f20:	87 fa fc f8 	JSR        0x0200099c     // 200099c <_malloc_r>
 2005f24:	02 00 09 9c 
 2005f28:	af 88 8b 00 	MOV        R1,R5          | CMP        $0,R1
 2005f2c:	78 88 00 24 	BZ         @0x02005f54    // 2005f54 <__sfmoreglue+0x50>
 2005f30:	86 00 85 88 	CLR        R0             | SW         R0,(R1)
 2005f34:	3c c4 40 04 	SW         R7,$4(R1)
 2005f38:	0b 40 40 0c 	MOV        $12+R1,R1
 2005f3c:	0c c5 40 08 	SW         R1,$8(R5)
 2005f40:	1b 41 80 00 	MOV        R6,R3
 2005f44:	18 80 00 6c 	ADD        $108,R3
 2005f48:	16 00 00 00 	CLR        R2
 2005f4c:	87 fa fc f8 	JSR        0x02001524     // 2001524 <memset>
 2005f50:	02 00 15 24 
 2005f54:	8f a8 84 00 	MOV        R5,R1          | LW         (SP),R0
 2005f58:	ac 04 b4 08 	LW         4(SP),R5       | LW         8(SP),R6
 2005f5c:	bc 0c ea 10 	LW         12(SP),R7      | ADD        $16,SP
 2005f60:	7b 40 00 00 	RTN

02005f64 <__sfp>:
 2005f64:	e8 20 85 00 	SUB        $32,SP         | SW         R0,(SP)
 2005f68:	ad 04 b5 08 	SW         R5,$4(SP)      | SW         R6,$8(SP)
 2005f6c:	bd 0c c5 10 	SW         R7,$12(SP)     | SW         R8,$16(SP)
 2005f70:	cd 14 d5 18 	SW         R9,$20(SP)     | SW         R10,$24(SP)
 2005f74:	dd 1c bf 88 	SW         R11,$28(SP)    | MOV        R1,R7
 2005f78:	0a 03 00 40 	LDI        0x0200e3a4,R1  // 200e3a4 <_global_impure_ptr>
 2005f7c:	0a 40 e3 a4 
 2005f80:	34 84 40 00 	LW         (R1),R6
 2005f84:	2c 85 80 38 	LW         56(R6),R5
 2005f88:	2c 00 00 00 	CMP        $0,R5
 2005f8c:	78 a8 01 6c 	BNZ        @0x020060fc    // 20060fc <__sfp+0x198>
 2005f90:	03 43 df d5 	MOV        0x02005ee8,R0  // 2005ee8 <_cleanup_r>
 2005f94:	04 c5 80 3c 	SW         R0,$60(R6)
 2005f98:	2c c5 82 e0 	SW         R5,$736(R6)
 2005f9c:	0e 00 00 03 	LDI        $3,R1
 2005fa0:	0c c5 82 e4 	SW         R1,$740(R6)
 2005fa4:	0b 41 80 00 	MOV        R6,R1
 2005fa8:	08 80 02 ec 	ADD        $748,R1
 2005fac:	0c c5 82 e8 	SW         R1,$744(R6)
 2005fb0:	44 85 80 04 	LW         4(R6),R8
 2005fb4:	2c c6 00 00 	SW         R5,(R8)
 2005fb8:	2c c6 00 04 	SW         R5,$4(R8)
 2005fbc:	2c c6 00 08 	SW         R5,$8(R8)
 2005fc0:	2c c6 00 68 	SW         R5,$104(R8)
 2005fc4:	06 04 00 00 	LDI        $262144,R0
 2005fc8:	04 c6 00 0c 	SW         R0,$12(R8)
 2005fcc:	2c c6 00 10 	SW         R5,$16(R8)
 2005fd0:	2c c6 00 14 	SW         R5,$20(R8)
 2005fd4:	2c c6 00 18 	SW         R5,$24(R8)
 2005fd8:	9e 08 97 a8 	LDI        $8,R3          | MOV        R5,R2
 2005fdc:	0b 42 00 60 	MOV        $96+R8,R1
 2005fe0:	87 fa fc f8 	JSR        0x02001524     // 2001524 <memset>
 2005fe4:	02 00 15 24 
 2005fe8:	44 c6 00 1c 	SW         R8,$28(R8)
 2005fec:	0a 01 00 40 	LDI        0x020098fc,R1  // 20098fc <__sread>
 2005ff0:	0a 40 98 fc 
 2005ff4:	0c c6 00 20 	SW         R1,$32(R8)
 2005ff8:	02 01 00 40 	LDI        0x02009968,R0  // 2009968 <__swrite>
 2005ffc:	02 40 99 68 
 2006000:	04 c6 00 24 	SW         R0,$36(R8)
 2006004:	0a 01 00 40 	LDI        0x020099e0,R1  // 20099e0 <__sseek>
 2006008:	0a 40 99 e0 
 200600c:	0c c6 00 28 	SW         R1,$40(R8)
 2006010:	02 01 00 40 	LDI        0x02009a3c,R0  // 2009a3c <__sclose>
 2006014:	02 40 9a 3c 
 2006018:	04 c6 00 2c 	SW         R0,$44(R8)
 200601c:	44 85 80 08 	LW         8(R6),R8
 2006020:	2c c6 00 00 	SW         R5,(R8)
 2006024:	2c c6 00 04 	SW         R5,$4(R8)
 2006028:	2c c6 00 08 	SW         R5,$8(R8)
 200602c:	2c c6 00 68 	SW         R5,$104(R8)
 2006030:	0e 09 00 01 	LDI        $589825,R1
 2006034:	0c c6 00 0c 	SW         R1,$12(R8)
 2006038:	2c c6 00 10 	SW         R5,$16(R8)
 200603c:	2c c6 00 14 	SW         R5,$20(R8)
 2006040:	2c c6 00 18 	SW         R5,$24(R8)
 2006044:	9e 08 97 a8 	LDI        $8,R3          | MOV        R5,R2
 2006048:	0b 42 00 60 	MOV        $96+R8,R1
 200604c:	87 fa fc f8 	JSR        0x02001524     // 2001524 <memset>
 2006050:	02 00 15 24 
 2006054:	44 c6 00 1c 	SW         R8,$28(R8)
 2006058:	02 01 00 40 	LDI        0x020098fc,R0  // 20098fc <__sread>
 200605c:	02 40 98 fc 
 2006060:	04 c6 00 20 	SW         R0,$32(R8)
 2006064:	0a 01 00 40 	LDI        0x02009968,R1  // 2009968 <__swrite>
 2006068:	0a 40 99 68 
 200606c:	0c c6 00 24 	SW         R1,$36(R8)
 2006070:	02 01 00 40 	LDI        0x020099e0,R0  // 20099e0 <__sseek>
 2006074:	02 40 99 e0 
 2006078:	04 c6 00 28 	SW         R0,$40(R8)
 200607c:	0a 01 00 40 	LDI        0x02009a3c,R1  // 2009a3c <__sclose>
 2006080:	0a 40 9a 3c 
 2006084:	0c c6 00 2c 	SW         R1,$44(R8)
 2006088:	44 85 80 0c 	LW         12(R6),R8
 200608c:	2c c6 00 00 	SW         R5,(R8)
 2006090:	2c c6 00 04 	SW         R5,$4(R8)
 2006094:	2c c6 00 08 	SW         R5,$8(R8)
 2006098:	2c c6 00 68 	SW         R5,$104(R8)
 200609c:	06 12 00 02 	LDI        $1179650,R0
 20060a0:	04 c6 00 0c 	SW         R0,$12(R8)
 20060a4:	2c c6 00 10 	SW         R5,$16(R8)
 20060a8:	2c c6 00 14 	SW         R5,$20(R8)
 20060ac:	2c c6 00 18 	SW         R5,$24(R8)
 20060b0:	9e 08 97 a8 	LDI        $8,R3          | MOV        R5,R2
 20060b4:	0b 42 00 60 	MOV        $96+R8,R1
 20060b8:	87 fa fc f8 	JSR        0x02001524     // 2001524 <memset>
 20060bc:	02 00 15 24 
 20060c0:	44 c6 00 1c 	SW         R8,$28(R8)
 20060c4:	0a 01 00 40 	LDI        0x020098fc,R1  // 20098fc <__sread>
 20060c8:	0a 40 98 fc 
 20060cc:	0c c6 00 20 	SW         R1,$32(R8)
 20060d0:	02 01 00 40 	LDI        0x02009968,R0  // 2009968 <__swrite>
 20060d4:	02 40 99 68 
 20060d8:	04 c6 00 24 	SW         R0,$36(R8)
 20060dc:	0a 01 00 40 	LDI        0x020099e0,R1  // 20099e0 <__sseek>
 20060e0:	0a 40 99 e0 
 20060e4:	0c c6 00 28 	SW         R1,$40(R8)
 20060e8:	02 01 00 40 	LDI        0x02009a3c,R0  // 2009a3c <__sclose>
 20060ec:	02 40 9a 3c 
 20060f0:	04 c6 00 2c 	SW         R0,$44(R8)
 20060f4:	0e 00 00 01 	LDI        $1,R1
 20060f8:	0c c5 80 38 	SW         R1,$56(R6)
 20060fc:	30 80 02 e0 	ADD        $736,R6
 2006100:	46 00 01 bc 	LDI        $444,R8
 2006104:	56 00 01 b0 	LDI        $432,R10
 2006108:	4e 00 00 00 	CLR        R9
 200610c:	5c 85 80 08 	LW         8(R6),R11
 2006110:	14 85 80 04 	LW         4(R6),R2
 2006114:	10 83 ff ff 	ADD        $-1,R2
 2006118:	78 90 00 38 	BLT        @0x02006154    // 2006154 <__sfp+0x1f0>
 200611c:	0d 06 c0 0c 	LH         12(R11),R1
 2006120:	09 80 00 10 	LSL        $16,R1
 2006124:	09 c0 00 10 	ASR        $16,R1
 2006128:	0c 00 00 00 	CMP        $0,R1
 200612c:	78 a8 00 18 	BNZ        @0x02006148    // 2006148 <__sfp+0x1e4>
 2006130:	78 80 00 64 	BRA        @0x02006198    // 2006198 <__sfp+0x234>
 2006134:	0d 06 c0 0c 	LH         12(R11),R1
 2006138:	09 80 00 10 	LSL        $16,R1
 200613c:	09 c0 00 10 	ASR        $16,R1
 2006140:	0c 00 00 00 	CMP        $0,R1
 2006144:	78 88 00 50 	BZ         @0x02006198    // 2006198 <__sfp+0x234>
 2006148:	58 80 00 6c 	ADD        $108,R11
 200614c:	92 7f 93 7f 	ADD        $-1,R2         | CMP        $-1,R2
 2006150:	78 ab ff e0 	BNZ        @0x02006134    // 2006134 <__sfp+0x1d0>
 2006154:	ac b0 ab 00 	LW         (R6),R5        | CMP        $0,R5
 2006158:	78 a8 00 34 	BNZ        @0x02006190    // 2006190 <__sfp+0x22c>
 200615c:	97 c0 8f b8 	MOV        R8,R2          | MOV        R7,R1
 2006160:	87 fa fc f8 	JSR        0x0200099c     // 200099c <_malloc_r>
 2006164:	02 00 09 9c 
 2006168:	df 88 8b 00 	MOV        R1,R11         | CMP        $0,R1
 200616c:	78 88 00 78 	BZ         @0x020061e8    // 20061e8 <__sfp+0x284>
 2006170:	ad 88 86 04 	SW         R5,(R1)        | LDI        $4,R0
 2006174:	04 c4 40 04 	SW         R0,$4(R1)
 2006178:	0b 40 40 0c 	MOV        $12+R1,R1
 200617c:	0c c6 c0 08 	SW         R1,$8(R11)
 2006180:	9f d0 97 c8 	MOV        R10,R3         | MOV        R9,R2
 2006184:	87 fa fc f8 	JSR        0x02001524     // 2001524 <memset>
 2006188:	02 00 15 24 
 200618c:	af d8 dd b0 	MOV        R11,R5         | SW         R11,(R6)
 2006190:	33 41 40 00 	MOV        R5,R6
 2006194:	78 83 ff 74 	BRA        @0x0200610c    // 200610c <__sfp+0x1a8>
 2006198:	0e 01 ff ff 	LDI        $131071,R1
 200619c:	0c c6 c0 0c 	SW         R1,$12(R11)
 20061a0:	06 00 00 00 	CLR        R0
 20061a4:	04 c6 c0 68 	SW         R0,$104(R11)
 20061a8:	04 c6 c0 00 	SW         R0,(R11)
 20061ac:	04 c6 c0 08 	SW         R0,$8(R11)
 20061b0:	04 c6 c0 04 	SW         R0,$4(R11)
 20061b4:	04 c6 c0 10 	SW         R0,$16(R11)
 20061b8:	04 c6 c0 14 	SW         R0,$20(R11)
 20061bc:	04 c6 c0 18 	SW         R0,$24(R11)
 20061c0:	9e 08 96 00 	LDI        $8,R3          | CLR        R2
 20061c4:	0b 42 c0 60 	MOV        $96+R11,R1
 20061c8:	87 fa fc f8 	JSR        0x02001524     // 2001524 <memset>
 20061cc:	02 00 15 24 
 20061d0:	0e 00 00 00 	CLR        R1
 20061d4:	0c c6 c0 30 	SW         R1,$48(R11)
 20061d8:	0c c6 c0 34 	SW         R1,$52(R11)
 20061dc:	0c c6 c0 44 	SW         R1,$68(R11)
 20061e0:	0c c6 c0 48 	SW         R1,$72(R11)
 20061e4:	78 80 00 08 	BRA        @0x020061f0    // 20061f0 <__sfp+0x28c>
 20061e8:	8d b0 8e 0c 	SW         R1,(R6)        | LDI        $12,R1
 20061ec:	0c c5 c0 00 	SW         R1,(R7)
 20061f0:	8f d8 84 00 	MOV        R11,R1         | LW         (SP),R0
 20061f4:	ac 04 b4 08 	LW         4(SP),R5       | LW         8(SP),R6
 20061f8:	bc 0c c4 10 	LW         12(SP),R7      | LW         16(SP),R8
 20061fc:	cc 14 d4 18 	LW         20(SP),R9      | LW         24(SP),R10
 2006200:	dc 1c ea 20 	LW         28(SP),R11     | ADD        $32,SP
 2006204:	7b 40 00 00 	RTN

02006208 <_cleanup>:
 2006208:	e8 04 85 00 	SUB        $4,SP          | SW         R0,(SP)
 200620c:	12 01 00 40 	LDI        0x0200b624,R2  // 200b624 <_fclose_r>
 2006210:	12 40 b6 24 
 2006214:	0a 03 00 40 	LDI        0x0200e3a4,R1  // 200e3a4 <_global_impure_ptr>
 2006218:	0a 40 e3 a4 
 200621c:	8c 88 84 00 	LW         (R1),R1        | LW         (SP),R0
 2006220:	68 80 00 04 	ADD        $4,SP
 2006224:	7c 87 c0 00 	LJMP       @0x02006e1c    // 2006e1c <_fwalk_reent>
 2006228:	02 00 6e 1c 

0200622c <__sinit>:
 200622c:	e8 10 85 00 	SUB        $16,SP         | SW         R0,(SP)
 2006230:	ad 04 b5 08 	SW         R5,$4(SP)      | SW         R6,$8(SP)
 2006234:	3c c7 40 0c 	SW         R7,$12(SP)
 2006238:	2c 84 40 38 	LW         56(R1),R5
 200623c:	2c 00 00 00 	CMP        $0,R5
 2006240:	78 a8 01 70 	BNZ        @0x020063b4    // 20063b4 <__sinit+0x188>
 2006244:	33 40 40 00 	MOV        R1,R6
 2006248:	03 43 df 27 	MOV        0x02005ee8,R0  // 2005ee8 <_cleanup_r>
 200624c:	04 c4 40 3c 	SW         R0,$60(R1)
 2006250:	2c c4 42 e0 	SW         R5,$736(R1)
 2006254:	0e 00 00 03 	LDI        $3,R1
 2006258:	0c c5 82 e4 	SW         R1,$740(R6)
 200625c:	0b 41 80 00 	MOV        R6,R1
 2006260:	08 80 02 ec 	ADD        $748,R1
 2006264:	0c c5 82 e8 	SW         R1,$744(R6)
 2006268:	3c 85 80 04 	LW         4(R6),R7
 200626c:	2c c5 c0 00 	SW         R5,(R7)
 2006270:	2c c5 c0 04 	SW         R5,$4(R7)
 2006274:	2c c5 c0 08 	SW         R5,$8(R7)
 2006278:	2c c5 c0 68 	SW         R5,$104(R7)
 200627c:	06 04 00 00 	LDI        $262144,R0
 2006280:	04 c5 c0 0c 	SW         R0,$12(R7)
 2006284:	2c c5 c0 10 	SW         R5,$16(R7)
 2006288:	2c c5 c0 14 	SW         R5,$20(R7)
 200628c:	2c c5 c0 18 	SW         R5,$24(R7)
 2006290:	9e 08 97 a8 	LDI        $8,R3          | MOV        R5,R2
 2006294:	0b 41 c0 60 	MOV        $96+R7,R1
 2006298:	87 fa fc f8 	JSR        0x02001524     // 2001524 <memset>
 200629c:	02 00 15 24 
 20062a0:	3c c5 c0 1c 	SW         R7,$28(R7)
 20062a4:	0a 01 00 40 	LDI        0x020098fc,R1  // 20098fc <__sread>
 20062a8:	0a 40 98 fc 
 20062ac:	0c c5 c0 20 	SW         R1,$32(R7)
 20062b0:	02 01 00 40 	LDI        0x02009968,R0  // 2009968 <__swrite>
 20062b4:	02 40 99 68 
 20062b8:	04 c5 c0 24 	SW         R0,$36(R7)
 20062bc:	0a 01 00 40 	LDI        0x020099e0,R1  // 20099e0 <__sseek>
 20062c0:	0a 40 99 e0 
 20062c4:	0c c5 c0 28 	SW         R1,$40(R7)
 20062c8:	02 01 00 40 	LDI        0x02009a3c,R0  // 2009a3c <__sclose>
 20062cc:	02 40 9a 3c 
 20062d0:	04 c5 c0 2c 	SW         R0,$44(R7)
 20062d4:	3c 85 80 08 	LW         8(R6),R7
 20062d8:	2c c5 c0 00 	SW         R5,(R7)
 20062dc:	2c c5 c0 04 	SW         R5,$4(R7)
 20062e0:	2c c5 c0 08 	SW         R5,$8(R7)
 20062e4:	2c c5 c0 68 	SW         R5,$104(R7)
 20062e8:	0e 09 00 01 	LDI        $589825,R1
 20062ec:	0c c5 c0 0c 	SW         R1,$12(R7)
 20062f0:	2c c5 c0 10 	SW         R5,$16(R7)
 20062f4:	2c c5 c0 14 	SW         R5,$20(R7)
 20062f8:	2c c5 c0 18 	SW         R5,$24(R7)
 20062fc:	9e 08 97 a8 	LDI        $8,R3          | MOV        R5,R2
 2006300:	0b 41 c0 60 	MOV        $96+R7,R1
 2006304:	87 fa fc f8 	JSR        0x02001524     // 2001524 <memset>
 2006308:	02 00 15 24 
 200630c:	3c c5 c0 1c 	SW         R7,$28(R7)
 2006310:	02 01 00 40 	LDI        0x020098fc,R0  // 20098fc <__sread>
 2006314:	02 40 98 fc 
 2006318:	04 c5 c0 20 	SW         R0,$32(R7)
 200631c:	0a 01 00 40 	LDI        0x02009968,R1  // 2009968 <__swrite>
 2006320:	0a 40 99 68 
 2006324:	0c c5 c0 24 	SW         R1,$36(R7)
 2006328:	02 01 00 40 	LDI        0x020099e0,R0  // 20099e0 <__sseek>
 200632c:	02 40 99 e0 
 2006330:	04 c5 c0 28 	SW         R0,$40(R7)
 2006334:	0a 01 00 40 	LDI        0x02009a3c,R1  // 2009a3c <__sclose>
 2006338:	0a 40 9a 3c 
 200633c:	0c c5 c0 2c 	SW         R1,$44(R7)
 2006340:	3c 85 80 0c 	LW         12(R6),R7
 2006344:	2c c5 c0 00 	SW         R5,(R7)
 2006348:	2c c5 c0 04 	SW         R5,$4(R7)
 200634c:	2c c5 c0 08 	SW         R5,$8(R7)
 2006350:	2c c5 c0 68 	SW         R5,$104(R7)
 2006354:	06 12 00 02 	LDI        $1179650,R0
 2006358:	04 c5 c0 0c 	SW         R0,$12(R7)
 200635c:	2c c5 c0 10 	SW         R5,$16(R7)
 2006360:	2c c5 c0 14 	SW         R5,$20(R7)
 2006364:	2c c5 c0 18 	SW         R5,$24(R7)
 2006368:	9e 08 97 a8 	LDI        $8,R3          | MOV        R5,R2
 200636c:	0b 41 c0 60 	MOV        $96+R7,R1
 2006370:	87 fa fc f8 	JSR        0x02001524     // 2001524 <memset>
 2006374:	02 00 15 24 
 2006378:	3c c5 c0 1c 	SW         R7,$28(R7)
 200637c:	0a 01 00 40 	LDI        0x020098fc,R1  // 20098fc <__sread>
 2006380:	0a 40 98 fc 
 2006384:	0c c5 c0 20 	SW         R1,$32(R7)
 2006388:	0a 01 00 40 	LDI        0x02009968,R1  // 2009968 <__swrite>
 200638c:	0a 40 99 68 
 2006390:	0c c5 c0 24 	SW         R1,$36(R7)
 2006394:	0a 01 00 40 	LDI        0x020099e0,R1  // 20099e0 <__sseek>
 2006398:	0a 40 99 e0 
 200639c:	0c c5 c0 28 	SW         R1,$40(R7)
 20063a0:	0a 01 00 40 	LDI        0x02009a3c,R1  // 2009a3c <__sclose>
 20063a4:	0a 40 9a 3c 
 20063a8:	0c c5 c0 2c 	SW         R1,$44(R7)
 20063ac:	0e 00 00 01 	LDI        $1,R1
 20063b0:	0c c5 80 38 	SW         R1,$56(R6)
 20063b4:	84 00 ac 04 	LW         (SP),R0        | LW         4(SP),R5
 20063b8:	b4 08 bc 0c 	LW         8(SP),R6       | LW         12(SP),R7
 20063bc:	ea 10 ff 80 	ADD        $16,SP         | RTN

020063c0 <__sfp_lock_acquire>:
 20063c0:	7b 40 00 00 	RTN

020063c4 <__sfp_lock_release>:
 20063c4:	7b 40 00 00 	RTN

020063c8 <__sinit_lock_acquire>:
 20063c8:	7b 40 00 00 	RTN

020063cc <__sinit_lock_release>:
 20063cc:	7b 40 00 00 	RTN

020063d0 <__fp_lock_all>:
 20063d0:	e8 04 85 00 	SUB        $4,SP          | SW         R0,(SP)
 20063d4:	13 43 de ca 	MOV        0x02005f00,R2  // 2005f00 <__fp_lock>
 20063d8:	0a 03 00 40 	LDI        0x0200e78c,R1  // 200e78c <_impure_ptr>
 20063dc:	0a 40 e7 8c 
 20063e0:	8c 88 84 00 	LW         (R1),R1        | LW         (SP),R0
 20063e4:	68 80 00 04 	ADD        $4,SP
 20063e8:	7c 87 c0 00 	LJMP       @0x02006d94    // 2006d94 <_fwalk>
 20063ec:	02 00 6d 94 

020063f0 <__fp_unlock_all>:
 20063f0:	e8 04 85 00 	SUB        $4,SP          | SW         R0,(SP)
 20063f4:	13 43 de bb 	MOV        0x02005ee4,R2  // 2005ee4 <__fp_unlock>
 20063f8:	0a 03 00 40 	LDI        0x0200e78c,R1  // 200e78c <_impure_ptr>
 20063fc:	0a 40 e7 8c 
 2006400:	8c 88 84 00 	LW         (R1),R1        | LW         (SP),R0
 2006404:	68 80 00 04 	ADD        $4,SP
 2006408:	7c 87 c0 00 	LJMP       @0x02006d94    // 2006d94 <_fwalk>
 200640c:	02 00 6d 94 

02006410 <_malloc_trim_r>:
 2006410:	e8 24 85 00 	SUB        $36,SP         | SW         R0,(SP)
 2006414:	ad 04 b5 08 	SW         R5,$4(SP)      | SW         R6,$8(SP)
 2006418:	bd 0c c5 10 	SW         R7,$12(SP)     | SW         R8,$16(SP)
 200641c:	cd 14 d5 18 	SW         R9,$20(SP)     | SW         R10,$24(SP)
 2006420:	dd 1c e5 20 	SW         R11,$28(SP)    | SW         R12,$32(SP)
 2006424:	af 88 e7 90 	MOV        R1,R5          | MOV        R2,R12
 2006428:	87 fa fc f8 	JSR        0x02001770     // 2001770 <__malloc_lock>
 200642c:	02 00 17 70 
 2006430:	52 03 00 40 	LDI        0x0200ebcc,R10 // 200ebcc <__malloc_av_>
 2006434:	52 40 eb cc 
 2006438:	0c 86 80 08 	LW         8(R10),R1
 200643c:	5c 84 40 04 	LW         4(R1),R11
 2006440:	d9 7c cf d8 	AND        $-4,R11        | MOV        R11,R9
 2006444:	c6 00 bf e0 	CLR        R8             | MOV        R12,R7
 2006448:	b6 00 86 00 	CLR        R6             | CLR        R0
 200644c:	8f c8 88 b8 	MOV        R9,R1          | SUB        R7,R1
 2006450:	00 18 00 01 	SUB.C      $1,R0
 2006454:	80 b0 b7 80 	SUB        R6,R0          | MOV        R0,R6
 2006458:	bf 88 96 00 	MOV        R1,R7          | CLR        R2
 200645c:	1e 00 0f ef 	LDI        $4079,R3
 2006460:	38 84 c0 00 	ADD        R3,R7
 2006464:	30 98 00 01 	ADD.C      $1,R6
 2006468:	b2 90 8f b0 	ADD        R2,R6          | MOV        R6,R1
 200646c:	09 80 00 14 	LSL        $20,R1
 2006470:	1b 41 c0 00 	MOV        R7,R3
 2006474:	19 40 00 0c 	LSR        $12,R3
 2006478:	08 c4 c0 00 	OR         R3,R1
 200647c:	9f 88 97 b0 	MOV        R1,R3          | MOV        R6,R2
 2006480:	11 40 00 0c 	LSR        $12,R2
 2006484:	b6 ff be ff 	LDI        $-1,R6         | LDI        $-1,R7
 2006488:	18 85 c0 00 	ADD        R7,R3
 200648c:	10 98 00 01 	ADD.C      $1,R2
 2006490:	92 b0 8f 98 	ADD        R6,R2          | MOV        R3,R1
 2006494:	09 40 00 14 	LSR        $20,R1
 2006498:	33 40 80 00 	MOV        R2,R6
 200649c:	31 80 00 0c 	LSL        $12,R6
 20064a0:	08 c5 80 00 	OR         R6,R1
 20064a4:	b7 88 bf 98 	MOV        R1,R6          | MOV        R3,R7
 20064a8:	39 80 00 0c 	LSL        $12,R7
 20064ac:	34 00 00 00 	CMP        $0,R6
 20064b0:	78 90 00 0c 	BLT        @0x020064c0    // 20064c0 <_malloc_trim_r+0xb0>
 20064b4:	78 a8 00 1c 	BNZ        @0x020064d4    // 20064d4 <_malloc_trim_r+0xc4>
 20064b8:	3c 00 10 00 	CMP        $4096,R7
 20064bc:	78 b8 00 14 	BNC        @0x020064d4    // 20064d4 <_malloc_trim_r+0xc4>
 20064c0:	0b 41 40 00 	MOV        R5,R1
 20064c4:	87 fa fc f8 	JSR        0x02001774     // 2001774 <__malloc_unlock>
 20064c8:	02 00 17 74 
 20064cc:	0e 00 00 00 	CLR        R1
 20064d0:	78 80 00 a0 	BRA        @0x02006574    // 2006574 <_malloc_trim_r+0x164>
 20064d4:	97 c0 8f a8 	MOV        R8,R2          | MOV        R5,R1
 20064d8:	87 fa fc f8 	JSR        0x0200c8f8     // 200c8f8 <_sbrk_r>
 20064dc:	02 00 c8 f8 
 20064e0:	14 86 80 08 	LW         8(R10),R2
 20064e4:	92 d8 8b 90 	ADD        R11,R2         | CMP        R2,R1
 20064e8:	78 ab ff d4 	BNZ        @0x020064c0    // 20064c0 <_malloc_trim_r+0xb0>
 20064ec:	13 41 df ff 	MOV        $-1+R7,R2
 20064f0:	11 03 ff ff 	XOR        $-1,R2
 20064f4:	0b 41 40 00 	MOV        R5,R1
 20064f8:	87 fa fc f8 	JSR        0x0200c8f8     // 200c8f8 <_sbrk_r>
 20064fc:	02 00 c8 f8 
 2006500:	0c 03 ff ff 	CMP        $-1,R1
 2006504:	78 a8 00 40 	BNZ        @0x02006548    // 2006548 <_malloc_trim_r+0x138>
 2006508:	97 c0 8f a8 	MOV        R8,R2          | MOV        R5,R1
 200650c:	87 fa fc f8 	JSR        0x0200c8f8     // 200c8f8 <_sbrk_r>
 2006510:	02 00 c8 f8 
 2006514:	1c 86 80 08 	LW         8(R10),R3
 2006518:	97 88 90 98 	MOV        R1,R2          | SUB        R3,R2
 200651c:	14 00 00 10 	CMP        $16,R2
 2006520:	78 93 ff 9c 	BLT        @0x020064c0    // 20064c0 <_malloc_trim_r+0xb0>
 2006524:	22 03 00 40 	LDI        0x0200ebc0,R4  // 200ebc0 <__malloc_sbrk_base>
 2006528:	22 40 eb c0 
 200652c:	a4 a0 88 a0 	LW         (R4),R4        | SUB        R4,R1
 2006530:	22 03 20 40 	LDI        0x0204f16c,R4  // 204f16c <__malloc_current_mallinfo>
 2006534:	22 40 f1 6c 
 2006538:	0c c5 00 00 	SW         R1,(R4)
 200653c:	10 c0 00 01 	OR         $1,R2
 2006540:	14 c4 c0 04 	SW         R2,$4(R3)
 2006544:	78 83 ff 78 	BRA        @0x020064c0    // 20064c0 <_malloc_trim_r+0xb0>
 2006548:	0c 86 80 08 	LW         8(R10),R1
 200654c:	58 05 c0 00 	SUB        R7,R11
 2006550:	58 c0 00 01 	OR         $1,R11
 2006554:	5c c4 40 04 	SW         R11,$4(R1)
 2006558:	12 03 20 40 	LDI        0x0204f16c,R2  // 204f16c <__malloc_current_mallinfo>
 200655c:	12 40 f1 6c 
 2006560:	8c 90 88 b8 	LW         (R2),R1        | SUB        R7,R1
 2006564:	8d 90 8f a8 	SW         R1,(R2)        | MOV        R5,R1
 2006568:	87 fa fc f8 	JSR        0x02001774     // 2001774 <__malloc_unlock>
 200656c:	02 00 17 74 
 2006570:	0e 00 00 01 	LDI        $1,R1
 2006574:	84 00 ac 04 	LW         (SP),R0        | LW         4(SP),R5
 2006578:	b4 08 bc 0c 	LW         8(SP),R6       | LW         12(SP),R7
 200657c:	c4 10 cc 14 	LW         16(SP),R8      | LW         20(SP),R9
 2006580:	d4 18 dc 1c 	LW         24(SP),R10     | LW         28(SP),R11
 2006584:	e4 20 ea 24 	LW         32(SP),R12     | ADD        $36,SP
 2006588:	7b 40 00 00 	RTN

0200658c <_free_r>:
 200658c:	14 00 00 00 	CMP        $0,R2
 2006590:	78 88 03 6c 	BZ         @0x02006900    // 2006900 <_free_r+0x374>
 2006594:	78 80 03 6c 	BRA        @0x02006904    // 2006904 <_free_r+0x378>
 2006598:	e8 18 85 00 	SUB        $24,SP         | SW         R0,(SP)
 200659c:	ad 04 b5 08 	SW         R5,$4(SP)      | SW         R6,$8(SP)
 20065a0:	bd 0c c5 10 	SW         R7,$12(SP)     | SW         R8,$16(SP)
 20065a4:	cd 14 bf 88 	SW         R9,$20(SP)     | MOV        R1,R7
 20065a8:	43 40 80 00 	MOV        R2,R8
 20065ac:	87 fa fc f8 	JSR        0x02001770     // 2001770 <__malloc_lock>
 20065b0:	02 00 17 70 
 20065b4:	a7 c0 a2 78 	MOV        R8,R4          | ADD        $-8,R4
 20065b8:	8c c4 9f 88 	LW         -4(R8),R1      | MOV        R1,R3
 20065bc:	99 7e b7 a0 	AND        $-2,R3         | MOV        R4,R6
 20065c0:	30 84 c0 00 	ADD        R3,R6
 20065c4:	2c 85 80 04 	LW         4(R6),R5
 20065c8:	28 43 ff fc 	AND        $-4,R5
 20065cc:	4a 03 00 40 	LDI        0x0200ebcc,R9  // 200ebcc <__malloc_av_>
 20065d0:	4a 40 eb cc 
 20065d4:	14 86 40 08 	LW         8(R9),R2
 20065d8:	34 04 80 00 	CMP        R2,R6
 20065dc:	78 a8 00 84 	BNZ        @0x02006664    // 2006664 <_free_r+0xd8>
 20065e0:	9a a8 af 98 	ADD        R5,R3          | MOV        R3,R5
 20065e4:	08 40 00 01 	AND        $1,R1
 20065e8:	78 a8 00 18 	BNZ        @0x02006604    // 2006604 <_free_r+0x78>
 20065ec:	0c 86 3f f8 	LW         -8(R8),R1
 20065f0:	a0 88 aa 88 	SUB        R1,R4          | ADD        R1,R5
 20065f4:	0c 85 00 0c 	LW         12(R4),R1
 20065f8:	14 85 00 08 	LW         8(R4),R2
 20065fc:	0c c4 80 0c 	SW         R1,$12(R2)
 2006600:	14 c4 40 08 	SW         R2,$8(R1)
 2006604:	0b 41 40 00 	MOV        R5,R1
 2006608:	08 c0 00 01 	OR         $1,R1
 200660c:	0c c5 00 04 	SW         R1,$4(R4)
 2006610:	24 c6 40 08 	SW         R4,$8(R9)
 2006614:	9f a8 96 00 	MOV        R5,R3          | CLR        R2
 2006618:	0a 03 00 40 	LDI        0x0200ebc4,R1  // 200ebc4 <__malloc_trim_threshold>
 200661c:	0a 40 eb c4 
 2006620:	24 84 40 00 	LW         (R1),R4
 2006624:	2c 84 40 04 	LW         4(R1),R5
 2006628:	14 05 00 00 	CMP        R4,R2
 200662c:	1c 0d 40 00 	CMP.Z      R5,R3
 2006630:	78 98 00 18 	BC         @0x0200664c    // 200664c <_free_r+0xc0>
 2006634:	0a 03 20 40 	LDI        0x0204f1a4,R1  // 204f1a4 <__malloc_top_pad>
 2006638:	0a 40 f1 a4 
 200663c:	14 84 40 04 	LW         4(R1),R2
 2006640:	0b 41 c0 00 	MOV        R7,R1
 2006644:	87 fa fc f8 	JSR        0x02006410     // 2006410 <_malloc_trim_r>
 2006648:	02 00 64 10 
 200664c:	8f b8 84 00 	MOV        R7,R1          | LW         (SP),R0
 2006650:	ac 04 b4 08 	LW         4(SP),R5       | LW         8(SP),R6
 2006654:	bc 0c c4 10 	LW         12(SP),R7      | LW         16(SP),R8
 2006658:	cc 14 ea 18 	LW         20(SP),R9      | ADD        $24,SP
 200665c:	7c 87 c0 00 	LJMP       @0x02001774    // 2001774 <__malloc_unlock>
 2006660:	02 00 17 74 
 2006664:	2c c5 80 04 	SW         R5,$4(R6)
 2006668:	08 40 00 01 	AND        $1,R1
 200666c:	78 a8 01 f0 	BNZ        @0x02006860    // 2006860 <_free_r+0x2d4>
 2006670:	0c 86 3f f8 	LW         -8(R8),R1
 2006674:	a0 88 9a 88 	SUB        R1,R4          | ADD        R1,R3
 2006678:	0c 85 00 08 	LW         8(R4),R1
 200667c:	0c 06 40 08 	CMP        $8+R9,R1
 2006680:	78 88 02 18 	BZ         @0x0200689c    // 200689c <_free_r+0x310>
 2006684:	14 85 00 0c 	LW         12(R4),R2
 2006688:	14 c4 40 0c 	SW         R2,$12(R1)
 200668c:	0c c4 80 08 	SW         R1,$8(R2)
 2006690:	78 80 01 cc 	BRA        @0x02006860    // 2006860 <_free_r+0x2d4>
 2006694:	24 c6 40 14 	SW         R4,$20(R9)
 2006698:	24 c6 40 10 	SW         R4,$16(R9)
 200669c:	0c c5 00 0c 	SW         R1,$12(R4)
 20066a0:	0c c5 00 08 	SW         R1,$8(R4)
 20066a4:	0b 40 c0 00 	MOV        R3,R1
 20066a8:	08 c0 00 01 	OR         $1,R1
 20066ac:	0c c5 00 04 	SW         R1,$4(R4)
 20066b0:	a2 98 9d a0 	ADD        R3,R4          | SW         R3,(R4)
 20066b4:	78 83 ff 94 	BRA        @0x0200664c    // 200664c <_free_r+0xc0>
 20066b8:	1c 00 02 00 	CMP        $512,R3
 20066bc:	78 b8 00 54 	BNC        @0x02006714    // 2006714 <_free_r+0x188>
 20066c0:	19 40 00 03 	LSR        $3,R3
 20066c4:	0b 40 c0 00 	MOV        R3,R1
 20066c8:	09 c0 00 02 	ASR        $2,R1
 20066cc:	97 88 92 60 	MOV        R1,R2          | ADD        $-32,R2
 20066d0:	78 90 00 08 	BLT        @0x020066dc    // 20066dc <_free_r+0x150>
 20066d4:	16 00 00 00 	CLR        R2
 20066d8:	78 80 00 08 	BRA        @0x020066e4    // 20066e4 <_free_r+0x158>
 20066dc:	16 00 00 01 	LDI        $1,R2
 20066e0:	11 84 40 00 	LSL        R1,R2
 20066e4:	0c 86 40 04 	LW         4(R9),R1
 20066e8:	08 c4 80 00 	OR         R2,R1
 20066ec:	0c c6 40 04 	SW         R1,$4(R9)
 20066f0:	18 80 00 01 	ADD        $1,R3
 20066f4:	19 80 00 03 	LSL        $3,R3
 20066f8:	ca 98 8c c8 	ADD        R3,R9          | LW         (R9),R1
 20066fc:	97 c8 92 78 	MOV        R9,R2          | ADD        $-8,R2
 2006700:	14 c5 00 0c 	SW         R2,$12(R4)
 2006704:	0c c5 00 08 	SW         R1,$8(R4)
 2006708:	24 c6 40 00 	SW         R4,(R9)
 200670c:	24 c4 40 0c 	SW         R4,$12(R1)
 2006710:	78 83 ff 38 	BRA        @0x0200664c    // 200664c <_free_r+0xc0>
 2006714:	0b 40 c0 00 	MOV        R3,R1
 2006718:	09 40 00 09 	LSR        $9,R1
 200671c:	0c 00 00 05 	CMP        $5,R1
 2006720:	78 b8 00 18 	BNC        @0x0200673c    // 200673c <_free_r+0x1b0>
 2006724:	0b 40 c0 00 	MOV        R3,R1
 2006728:	09 40 00 06 	LSR        $6,R1
 200672c:	af 88 aa 38 	MOV        R1,R5          | ADD        $56,R5
 2006730:	08 80 00 39 	ADD        $57,R1
 2006734:	09 80 00 03 	LSL        $3,R1
 2006738:	78 80 00 90 	BRA        @0x020067cc    // 20067cc <_free_r+0x240>
 200673c:	0c 00 00 15 	CMP        $21,R1
 2006740:	78 b8 00 14 	BNC        @0x02006758    // 2006758 <_free_r+0x1cc>
 2006744:	2b 40 40 00 	MOV        R1,R5
 2006748:	28 80 00 5b 	ADD        $91,R5
 200674c:	08 80 00 5c 	ADD        $92,R1
 2006750:	09 80 00 03 	LSL        $3,R1
 2006754:	78 80 00 74 	BRA        @0x020067cc    // 20067cc <_free_r+0x240>
 2006758:	0c 00 00 55 	CMP        $85,R1
 200675c:	78 b8 00 1c 	BNC        @0x0200677c    // 200677c <_free_r+0x1f0>
 2006760:	0b 40 c0 00 	MOV        R3,R1
 2006764:	09 40 00 0c 	LSR        $12,R1
 2006768:	2b 40 40 00 	MOV        R1,R5
 200676c:	28 80 00 6e 	ADD        $110,R5
 2006770:	08 80 00 6f 	ADD        $111,R1
 2006774:	09 80 00 03 	LSL        $3,R1
 2006778:	78 80 00 50 	BRA        @0x020067cc    // 20067cc <_free_r+0x240>
 200677c:	0c 00 01 55 	CMP        $341,R1
 2006780:	78 b8 00 1c 	BNC        @0x020067a0    // 20067a0 <_free_r+0x214>
 2006784:	0b 40 c0 00 	MOV        R3,R1
 2006788:	09 40 00 0f 	LSR        $15,R1
 200678c:	2b 40 40 00 	MOV        R1,R5
 2006790:	28 80 00 77 	ADD        $119,R5
 2006794:	08 80 00 78 	ADD        $120,R1
 2006798:	09 80 00 03 	LSL        $3,R1
 200679c:	78 80 00 2c 	BRA        @0x020067cc    // 20067cc <_free_r+0x240>
 20067a0:	0c 00 05 55 	CMP        $1365,R1
 20067a4:	78 b8 00 1c 	BNC        @0x020067c4    // 20067c4 <_free_r+0x238>
 20067a8:	0b 40 c0 00 	MOV        R3,R1
 20067ac:	09 40 00 12 	LSR        $18,R1
 20067b0:	2b 40 40 00 	MOV        R1,R5
 20067b4:	28 80 00 7c 	ADD        $124,R5
 20067b8:	08 80 00 7d 	ADD        $125,R1
 20067bc:	09 80 00 03 	LSL        $3,R1
 20067c0:	78 80 00 08 	BRA        @0x020067cc    // 20067cc <_free_r+0x240>
 20067c4:	0e 00 03 f8 	LDI        $1016,R1
 20067c8:	2e 00 00 7e 	LDI        $126,R5
 20067cc:	97 c8 92 88 	MOV        R9,R2          | ADD        R1,R2
 20067d0:	8f 90 8a 78 	MOV        R2,R1          | ADD        $-8,R1
 20067d4:	94 90 8b 90 	LW         (R2),R2        | CMP        R2,R1
 20067d8:	78 a8 00 40 	BNZ        @0x0200681c    // 200681c <_free_r+0x290>
 20067dc:	29 c0 00 02 	ASR        $2,R5
 20067e0:	9f a8 9a 60 	MOV        R5,R3          | ADD        $-32,R3
 20067e4:	78 90 00 08 	BLT        @0x020067f0    // 20067f0 <_free_r+0x264>
 20067e8:	2e 00 00 00 	CLR        R5
 20067ec:	78 80 00 0c 	BRA        @0x020067fc    // 20067fc <_free_r+0x270>
 20067f0:	1e 00 00 01 	LDI        $1,R3
 20067f4:	19 85 40 00 	LSL        R5,R3
 20067f8:	2b 40 c0 00 	MOV        R3,R5
 20067fc:	1c 86 40 04 	LW         4(R9),R3
 2006800:	18 c5 40 00 	OR         R5,R3
 2006804:	1c c6 40 04 	SW         R3,$4(R9)
 2006808:	9f 88 8f 90 	MOV        R1,R3          | MOV        R2,R1
 200680c:	78 80 00 20 	BRA        @0x02006830    // 2006830 <_free_r+0x2a4>
 2006810:	14 84 80 08 	LW         8(R2),R2
 2006814:	0c 04 80 00 	CMP        R2,R1
 2006818:	78 88 00 10 	BZ         @0x0200682c    // 200682c <_free_r+0x2a0>
 200681c:	2c 84 80 04 	LW         4(R2),R5
 2006820:	a9 7c 9b a8 	AND        $-4,R5         | CMP        R5,R3
 2006824:	78 9b ff e8 	BC         @0x02006810    // 2006810 <_free_r+0x284>
 2006828:	0b 40 80 00 	MOV        R2,R1
 200682c:	1c 84 40 0c 	LW         12(R1),R3
 2006830:	1c c5 00 0c 	SW         R3,$12(R4)
 2006834:	0c c5 00 08 	SW         R1,$8(R4)
 2006838:	24 c4 c0 08 	SW         R4,$8(R3)
 200683c:	24 c4 40 0c 	SW         R4,$12(R1)
 2006840:	78 83 fe 08 	BRA        @0x0200664c    // 200664c <_free_r+0xc0>
 2006844:	18 85 40 00 	ADD        R5,R3
 2006848:	0c 85 80 08 	LW         8(R6),R1
 200684c:	12 03 00 40 	LDI        0x0200ebd4,R2  // 200ebd4 <__malloc_av_+0x8>
 2006850:	12 40 eb d4 
 2006854:	0c 04 80 00 	CMP        R2,R1
 2006858:	78 a8 00 80 	BNZ        @0x020068dc    // 20068dc <_free_r+0x350>
 200685c:	78 83 fe 34 	BRA        @0x02006694    // 2006694 <_free_r+0x108>
 2006860:	8f b0 8a a8 	MOV        R6,R1          | ADD        R5,R1
 2006864:	0c 84 40 04 	LW         4(R1),R1
 2006868:	08 40 00 01 	AND        $1,R1
 200686c:	78 a8 00 40 	BNZ        @0x020068b0    // 20068b0 <_free_r+0x324>
 2006870:	78 83 ff d0 	BRA        @0x02006844    // 2006844 <_free_r+0x2b8>
 2006874:	28 84 c0 00 	ADD        R3,R5
 2006878:	14 85 80 08 	LW         8(R6),R2
 200687c:	0c 85 80 0c 	LW         12(R6),R1
 2006880:	0c c4 80 0c 	SW         R1,$12(R2)
 2006884:	14 c4 40 08 	SW         R2,$8(R1)
 2006888:	0b 41 40 00 	MOV        R5,R1
 200688c:	08 c0 00 01 	OR         $1,R1
 2006890:	0c c5 00 04 	SW         R1,$4(R4)
 2006894:	a2 a8 ad a0 	ADD        R5,R4          | SW         R5,(R4)
 2006898:	78 83 fd b0 	BRA        @0x0200664c    // 200664c <_free_r+0xc0>
 200689c:	8f b0 8a a8 	MOV        R6,R1          | ADD        R5,R1
 20068a0:	0c 84 40 04 	LW         4(R1),R1
 20068a4:	08 40 00 01 	AND        $1,R1
 20068a8:	78 8b ff c8 	BZ         @0x02006874    // 2006874 <_free_r+0x2e8>
 20068ac:	78 80 00 18 	BRA        @0x020068c8    // 20068c8 <_free_r+0x33c>
 20068b0:	0b 40 c0 00 	MOV        R3,R1
 20068b4:	08 c0 00 01 	OR         $1,R1
 20068b8:	0c c5 00 04 	SW         R1,$4(R4)
 20068bc:	8f a0 8a 98 	MOV        R4,R1          | ADD        R3,R1
 20068c0:	1c c4 40 00 	SW         R3,(R1)
 20068c4:	78 83 fd f0 	BRA        @0x020066b8    // 20066b8 <_free_r+0x12c>
 20068c8:	0b 40 c0 00 	MOV        R3,R1
 20068cc:	08 c0 00 01 	OR         $1,R1
 20068d0:	0c c5 00 04 	SW         R1,$4(R4)
 20068d4:	1c c5 80 00 	SW         R3,(R6)
 20068d8:	78 83 fd 70 	BRA        @0x0200664c    // 200664c <_free_r+0xc0>
 20068dc:	14 85 80 0c 	LW         12(R6),R2
 20068e0:	14 c4 40 0c 	SW         R2,$12(R1)
 20068e4:	0c c4 80 08 	SW         R1,$8(R2)
 20068e8:	0b 40 c0 00 	MOV        R3,R1
 20068ec:	08 c0 00 01 	OR         $1,R1
 20068f0:	0c c5 00 04 	SW         R1,$4(R4)
 20068f4:	8f a0 8a 98 	MOV        R4,R1          | ADD        R3,R1
 20068f8:	1c c4 40 00 	SW         R3,(R1)
 20068fc:	78 83 fd b8 	BRA        @0x020066b8    // 20066b8 <_free_r+0x12c>
 2006900:	7b 40 00 00 	RTN
 2006904:	78 83 fc 90 	BRA        @0x02006598    // 2006598 <_free_r+0xc>

02006908 <__sfvwrite_r>:
 2006908:	24 84 c0 08 	LW         8(R3),R4
 200690c:	24 00 00 00 	CMP        $0,R4
 2006910:	78 a8 00 0c 	BNZ        @0x02006920    // 2006920 <__sfvwrite_r+0x18>
 2006914:	78 80 04 78 	BRA        @0x02006d90    // 2006d90 <__sfvwrite_r+0x488>
 2006918:	0e 00 00 00 	CLR        R1
 200691c:	78 80 04 58 	BRA        @0x02006d78    // 2006d78 <__sfvwrite_r+0x470>
 2006920:	e8 28 85 04 	SUB        $40,SP         | SW         R0,$4(SP)
 2006924:	ad 08 b5 0c 	SW         R5,$8(SP)      | SW         R6,$12(SP)
 2006928:	bd 10 c5 14 	SW         R7,$16(SP)     | SW         R8,$20(SP)
 200692c:	cd 18 d5 1c 	SW         R9,$24(SP)     | SW         R10,$28(SP)
 2006930:	dd 20 e5 24 	SW         R11,$32(SP)    | SW         R12,$36(SP)
 2006934:	bf 98 af 90 	MOV        R3,R7          | MOV        R2,R5
 2006938:	0c c7 40 00 	SW         R1,(SP)
 200693c:	05 04 80 0c 	LH         12(R2),R0
 2006940:	5b 40 00 00 	MOV        R0,R11
 2006944:	58 40 ff ff 	AND        $65535,R11
 2006948:	8f d8 89 08 	MOV        R11,R1         | AND        $8,R1
 200694c:	78 88 00 0c 	BZ         @0x0200695c    // 200695c <__sfvwrite_r+0x54>
 2006950:	0c 84 80 10 	LW         16(R2),R1
 2006954:	0c 00 00 00 	CMP        $0,R1
 2006958:	78 a8 00 20 	BNZ        @0x0200697c    // 200697c <__sfvwrite_r+0x74>
 200695c:	97 a8 8c 00 	MOV        R5,R2          | LW         (SP),R1
 2006960:	87 fa fc f8 	JSR        0x02003b98     // 2003b98 <__swsetup_r>
 2006964:	02 00 3b 98 
 2006968:	0c 00 00 00 	CMP        $0,R1
 200696c:	78 a8 04 04 	BNZ        @0x02006d74    // 2006d74 <__sfvwrite_r+0x46c>
 2006970:	05 05 40 0c 	LH         12(R5),R0
 2006974:	5b 40 00 00 	MOV        R0,R11
 2006978:	58 40 ff ff 	AND        $65535,R11
 200697c:	b4 b8 d7 d8 	LW         (R7),R6        | MOV        R11,R10
 2006980:	50 40 00 02 	AND        $2,R10
 2006984:	78 88 00 64 	BZ         @0x020069ec    // 20069ec <__sfvwrite_r+0xe4>
 2006988:	ce 00 c6 00 	CLR        R9             | CLR        R8
 200698c:	52 01 ff fe 	LDI        0x7ffffc00,R10 // 7ffffc00 <_top_of_stack+0x7cfffc00>
 2006990:	52 40 fc 00 
 2006994:	78 80 00 0c 	BRA        @0x020069a4    // 20069a4 <__sfvwrite_r+0x9c>
 2006998:	4c 85 80 00 	LW         (R6),R9
 200699c:	44 85 80 04 	LW         4(R6),R8
 20069a0:	30 80 00 08 	ADD        $8,R6
 20069a4:	44 00 00 00 	CMP        $0,R8
 20069a8:	78 8b ff ec 	BZ         @0x02006998    // 2006998 <__sfvwrite_r+0x90>
 20069ac:	a7 c0 d3 a0 	MOV        R8,R4          | CMP        R4,R10
 20069b0:	23 5a 80 00 	MOV.C      R10,R4
 20069b4:	1b 42 40 00 	MOV        R9,R3
 20069b8:	14 85 40 1c 	LW         28(R5),R2
 20069bc:	0c 87 40 00 	LW         (SP),R1
 20069c0:	03 43 c0 01 	IJSR       #36(R5)
 20069c4:	7c 85 40 24 
 20069c8:	0c 00 00 01 	CMP        $1,R1
 20069cc:	78 90 03 90 	BLT        @0x02006d60    // 2006d60 <__sfvwrite_r+0x458>
 20069d0:	ca 88 c0 88 	ADD        R1,R9          | SUB        R1,R8
 20069d4:	14 85 c0 08 	LW         8(R7),R2
 20069d8:	10 04 40 00 	SUB        R1,R2
 20069dc:	14 c5 c0 08 	SW         R2,$8(R7)
 20069e0:	14 00 00 00 	CMP        $0,R2
 20069e4:	78 ab ff bc 	BNZ        @0x020069a4    // 20069a4 <__sfvwrite_r+0x9c>
 20069e8:	78 83 ff 2c 	BRA        @0x02006918    // 2006918 <__sfvwrite_r+0x10>
 20069ec:	58 40 00 01 	AND        $1,R11
 20069f0:	78 a8 02 30 	BNZ        @0x02006c24    // 2006c24 <__sfvwrite_r+0x31c>
 20069f4:	53 42 c0 00 	MOV        R11,R10
 20069f8:	78 80 00 0c 	BRA        @0x02006a08    // 2006a08 <__sfvwrite_r+0x100>
 20069fc:	5c 85 80 00 	LW         (R6),R11
 2006a00:	54 85 80 04 	LW         4(R6),R10
 2006a04:	30 80 00 08 	ADD        $8,R6
 2006a08:	54 00 00 00 	CMP        $0,R10
 2006a0c:	78 8b ff ec 	BZ         @0x020069fc    // 20069fc <__sfvwrite_r+0xf4>
 2006a10:	4c 85 40 08 	LW         8(R5),R9
 2006a14:	00 40 ff ff 	AND        $65535,R0
 2006a18:	0b 40 00 00 	MOV        R0,R1
 2006a1c:	08 40 02 00 	AND        $512,R1
 2006a20:	78 88 01 24 	BZ         @0x02006b48    // 2006b48 <__sfvwrite_r+0x240>
 2006a24:	e7 c8 d3 c8 	MOV        R9,R12         | CMP        R9,R10
 2006a28:	78 98 00 f0 	BC         @0x02006b1c    // 2006b1c <__sfvwrite_r+0x214>
 2006a2c:	0b 40 00 00 	MOV        R0,R1
 2006a30:	08 40 04 80 	AND        $1152,R1
 2006a34:	78 a8 00 08 	BNZ        @0x02006a40    // 2006a40 <__sfvwrite_r+0x138>
 2006a38:	8c a8 c7 d0 	LW         (R5),R1        | MOV        R10,R8
 2006a3c:	78 80 00 e4 	BRA        @0x02006b24    // 2006b24 <__sfvwrite_r+0x21c>
 2006a40:	14 85 40 10 	LW         16(R5),R2
 2006a44:	e4 a8 e0 90 	LW         (R5),R12       | SUB        R2,R12
 2006a48:	1c 85 40 14 	LW         20(R5),R3
 2006a4c:	8f 98 8a 98 	MOV        R3,R1          | ADD        R3,R1
 2006a50:	8a 98 c7 88 	ADD        R3,R1          | MOV        R1,R8
 2006a54:	41 40 00 1f 	LSR        $31,R8
 2006a58:	40 84 40 00 	ADD        R1,R8
 2006a5c:	41 c0 00 01 	ASR        $1,R8
 2006a60:	8f e0 8a 01 	MOV        R12,R1         | ADD        $1,R1
 2006a64:	8a d0 9f c0 	ADD        R10,R1         | MOV        R8,R3
 2006a68:	44 04 40 00 	CMP        R1,R8
 2006a6c:	43 58 40 00 	MOV.C      R1,R8
 2006a70:	1b 5a 00 00 	MOV.C      R8,R3
 2006a74:	00 40 04 00 	AND        $1024,R0
 2006a78:	78 88 00 48 	BZ         @0x02006ac4    // 2006ac4 <__sfvwrite_r+0x1bc>
 2006a7c:	97 98 8c 00 	MOV        R3,R2          | LW         (SP),R1
 2006a80:	87 fa fc f8 	JSR        0x0200099c     // 200099c <_malloc_r>
 2006a84:	02 00 09 9c 
 2006a88:	cf 88 8b 00 	MOV        R1,R9          | CMP        $0,R1
 2006a8c:	78 a8 00 10 	BNZ        @0x02006aa0    // 2006aa0 <__sfvwrite_r+0x198>
 2006a90:	96 0c 8c 00 	LDI        $12,R2         | LW         (SP),R1
 2006a94:	14 c4 40 00 	SW         R2,(R1)
 2006a98:	0d 05 40 0c 	LH         12(R5),R1
 2006a9c:	78 80 02 c4 	BRA        @0x02006d64    // 2006d64 <__sfvwrite_r+0x45c>
 2006aa0:	1b 43 00 00 	MOV        R12,R3
 2006aa4:	14 85 40 10 	LW         16(R5),R2
 2006aa8:	87 fa fc f8 	JSR        0x02001354     // 2001354 <memcpy>
 2006aac:	02 00 13 54 
 2006ab0:	05 05 40 0c 	LH         12(R5),R0
 2006ab4:	00 40 fb 7f 	AND        $64383,R0
 2006ab8:	00 c0 00 80 	OR         $128,R0
 2006abc:	05 45 40 0c 	SH         R0,$12(R5)
 2006ac0:	78 80 00 38 	BRA        @0x02006afc    // 2006afc <__sfvwrite_r+0x1f4>
 2006ac4:	0c 87 40 00 	LW         (SP),R1
 2006ac8:	87 fa fc f8 	JSR        0x02009354     // 2009354 <_realloc_r>
 2006acc:	02 00 93 54 
 2006ad0:	cf 88 8b 00 	MOV        R1,R9          | CMP        $0,R1
 2006ad4:	78 a8 00 24 	BNZ        @0x02006afc    // 2006afc <__sfvwrite_r+0x1f4>
 2006ad8:	14 85 40 10 	LW         16(R5),R2
 2006adc:	0c 87 40 00 	LW         (SP),R1
 2006ae0:	87 fa fc f8 	JSR        0x0200658c     // 200658c <_free_r>
 2006ae4:	02 00 65 8c 
 2006ae8:	0d 05 40 0c 	LH         12(R5),R1
 2006aec:	08 40 ff 7f 	AND        $65407,R1
 2006af0:	96 0c 9c 00 	LDI        $12,R2         | LW         (SP),R3
 2006af4:	14 c4 c0 00 	SW         R2,(R3)
 2006af8:	78 80 02 68 	BRA        @0x02006d64    // 2006d64 <__sfvwrite_r+0x45c>
 2006afc:	4c c5 40 10 	SW         R9,$16(R5)
 2006b00:	8f c8 8a e0 	MOV        R9,R1          | ADD        R12,R1
 2006b04:	0c c5 40 00 	SW         R1,(R5)
 2006b08:	44 c5 40 14 	SW         R8,$20(R5)
 2006b0c:	cf d0 c0 e0 	MOV        R10,R9         | SUB        R12,R8
 2006b10:	44 c5 40 08 	SW         R8,$8(R5)
 2006b14:	c7 d0 e7 d0 	MOV        R10,R8         | MOV        R10,R12
 2006b18:	78 80 00 08 	BRA        @0x02006b24    // 2006b24 <__sfvwrite_r+0x21c>
 2006b1c:	cf d0 c7 d0 	MOV        R10,R9         | MOV        R10,R8
 2006b20:	8c a8 e7 d0 	LW         (R5),R1        | MOV        R10,R12
 2006b24:	9f e0 97 d8 	MOV        R12,R3         | MOV        R11,R2
 2006b28:	87 fa fc f8 	JSR        0x020074d8     // 20074d8 <memmove>
 2006b2c:	02 00 74 d8 
 2006b30:	0c 85 40 08 	LW         8(R5),R1
 2006b34:	08 06 40 00 	SUB        R9,R1
 2006b38:	0c c5 40 08 	SW         R1,$8(R5)
 2006b3c:	8c a8 8a e0 	LW         (R5),R1        | ADD        R12,R1
 2006b40:	0c c5 40 00 	SW         R1,(R5)
 2006b44:	78 80 00 ac 	BRA        @0x02006bf4    // 2006bf4 <__sfvwrite_r+0x2ec>
 2006b48:	0c 85 40 00 	LW         (R5),R1
 2006b4c:	04 85 40 10 	LW         16(R5),R0
 2006b50:	04 04 40 00 	CMP        R1,R0
 2006b54:	78 98 00 0c 	BC         @0x02006b64    // 2006b64 <__sfvwrite_r+0x25c>
 2006b58:	04 85 40 14 	LW         20(R5),R0
 2006b5c:	54 04 00 00 	CMP        R0,R10
 2006b60:	78 b8 00 54 	BNC        @0x02006bb8    // 2006bb8 <__sfvwrite_r+0x2b0>
 2006b64:	54 06 40 00 	CMP        R9,R10
 2006b68:	4b 5a 80 00 	MOV.C      R10,R9
 2006b6c:	9f c8 97 d8 	MOV        R9,R3          | MOV        R11,R2
 2006b70:	87 fa fc f8 	JSR        0x020074d8     // 20074d8 <memmove>
 2006b74:	02 00 74 d8 
 2006b78:	0c 85 40 08 	LW         8(R5),R1
 2006b7c:	08 06 40 00 	SUB        R9,R1
 2006b80:	0c c5 40 08 	SW         R1,$8(R5)
 2006b84:	94 a8 92 c8 	LW         (R5),R2        | ADD        R9,R2
 2006b88:	95 a8 c7 c8 	SW         R2,(R5)        | MOV        R9,R8
 2006b8c:	0c 00 00 00 	CMP        $0,R1
 2006b90:	78 a8 00 60 	BNZ        @0x02006bf4    // 2006bf4 <__sfvwrite_r+0x2ec>
 2006b94:	97 a8 8c 00 	MOV        R5,R2          | LW         (SP),R1
 2006b98:	87 fa fc f8 	JSR        0x02005660     // 2005660 <_fflush_r>
 2006b9c:	02 00 56 60 
 2006ba0:	0c 00 00 00 	CMP        $0,R1
 2006ba4:	78 a8 00 08 	BNZ        @0x02006bb0    // 2006bb0 <__sfvwrite_r+0x2a8>
 2006ba8:	43 42 40 00 	MOV        R9,R8
 2006bac:	78 80 00 44 	BRA        @0x02006bf4    // 2006bf4 <__sfvwrite_r+0x2ec>
 2006bb0:	0d 05 40 0c 	LH         12(R5),R1
 2006bb4:	78 80 01 ac 	BRA        @0x02006d64    // 2006d64 <__sfvwrite_r+0x45c>
 2006bb8:	22 03 ff fe 	BREV       $-2,R4
 2006bbc:	54 05 00 00 	CMP        R4,R10
 2006bc0:	23 5a 80 00 	MOV.C      R10,R4
 2006bc4:	23 c4 00 00 	DIVS       R0,R4
 2006bc8:	23 04 00 00 	MPY        R0,R4
 2006bcc:	1b 42 c0 00 	MOV        R11,R3
 2006bd0:	14 85 40 1c 	LW         28(R5),R2
 2006bd4:	0c 87 40 00 	LW         (SP),R1
 2006bd8:	03 43 c0 01 	IJSR       #36(R5)
 2006bdc:	7c 85 40 24 
 2006be0:	0c 00 00 01 	CMP        $1,R1
 2006be4:	78 b0 00 08 	BGE        @0x02006bf0    // 2006bf0 <__sfvwrite_r+0x2e8>
 2006be8:	0d 05 40 0c 	LH         12(R5),R1
 2006bec:	78 80 01 74 	BRA        @0x02006d64    // 2006d64 <__sfvwrite_r+0x45c>
 2006bf0:	43 40 40 00 	MOV        R1,R8
 2006bf4:	da c0 d0 c0 	ADD        R8,R11         | SUB        R8,R10
 2006bf8:	0c 85 c0 08 	LW         8(R7),R1
 2006bfc:	08 06 00 00 	SUB        R8,R1
 2006c00:	0c c5 c0 08 	SW         R1,$8(R7)
 2006c04:	78 8b fd 10 	BZ         @0x02006918    // 2006918 <__sfvwrite_r+0x10>
 2006c08:	05 05 40 0c 	LH         12(R5),R0
 2006c0c:	78 83 fd f8 	BRA        @0x02006a08    // 2006a08 <__sfvwrite_r+0x100>
 2006c10:	5c 85 80 00 	LW         (R6),R11
 2006c14:	4c 85 80 04 	LW         4(R6),R9
 2006c18:	b2 08 cb 00 	ADD        $8,R6          | CMP        $0,R9
 2006c1c:	78 8b ff f0 	BZ         @0x02006c10    // 2006c10 <__sfvwrite_r+0x308>
 2006c20:	78 80 00 18 	BRA        @0x02006c3c    // 2006c3c <__sfvwrite_r+0x334>
 2006c24:	8f d0 df d0 	MOV        R10,R1         | MOV        R10,R11
 2006c28:	4b 42 80 00 	MOV        R10,R9
 2006c2c:	4c 00 00 00 	CMP        $0,R9
 2006c30:	78 8b ff dc 	BZ         @0x02006c10    // 2006c10 <__sfvwrite_r+0x308>
 2006c34:	0c 00 00 00 	CMP        $0,R1
 2006c38:	78 a8 00 28 	BNZ        @0x02006c64    // 2006c64 <__sfvwrite_r+0x35c>
 2006c3c:	9f c8 96 0a 	MOV        R9,R3          | LDI        $10,R2
 2006c40:	0b 42 c0 00 	MOV        R11,R1
 2006c44:	87 fa fc f8 	JSR        0x02007354     // 2007354 <memchr>
 2006c48:	02 00 73 54 
 2006c4c:	0c 00 00 00 	CMP        $0,R1
 2006c50:	78 88 00 0c 	BZ         @0x02006c60    // 2006c60 <__sfvwrite_r+0x358>
 2006c54:	8a 01 d7 88 	ADD        $1,R1          | MOV        R1,R10
 2006c58:	50 06 c0 00 	SUB        R11,R10
 2006c5c:	78 80 00 04 	BRA        @0x02006c64    // 2006c64 <__sfvwrite_r+0x35c>
 2006c60:	d7 c8 d2 01 	MOV        R9,R10         | ADD        $1,R10
 2006c64:	9f d0 cb 98 	MOV        R10,R3         | CMP        R3,R9
 2006c68:	1b 5a 40 00 	MOV.C      R9,R3
 2006c6c:	43 40 c0 00 	MOV        R3,R8
 2006c70:	24 85 40 14 	LW         20(R5),R4
 2006c74:	04 85 40 08 	LW         8(R5),R0
 2006c78:	e7 a0 e2 80 	MOV        R4,R12         | ADD        R0,R12
 2006c7c:	0c 85 40 00 	LW         (R5),R1
 2006c80:	04 85 40 10 	LW         16(R5),R0
 2006c84:	83 88 86 00 	CMP        R1,R0          | CLR        R0
 2006c88:	02 58 00 01 	LDILO.C    $1,R0
 2006c8c:	e3 98 96 00 	CMP        R3,R12         | CLR        R2
 2006c90:	12 50 00 01 	LDILO.LT   $1,R2
 2006c94:	00 44 80 00 	AND        R2,R0
 2006c98:	78 88 00 30 	BZ         @0x02006ccc    // 2006ccc <__sfvwrite_r+0x3c4>
 2006c9c:	9f e0 97 d8 	MOV        R12,R3         | MOV        R11,R2
 2006ca0:	87 fa fc f8 	JSR        0x020074d8     // 20074d8 <memmove>
 2006ca4:	02 00 74 d8 
 2006ca8:	84 a8 82 e0 	LW         (R5),R0        | ADD        R12,R0
 2006cac:	85 a8 97 a8 	SW         R0,(R5)        | MOV        R5,R2
 2006cb0:	0c 87 40 00 	LW         (SP),R1
 2006cb4:	87 fa fc f8 	JSR        0x02005660     // 2005660 <_fflush_r>
 2006cb8:	02 00 56 60 
 2006cbc:	0c 00 00 00 	CMP        $0,R1
 2006cc0:	78 88 00 58 	BZ         @0x02006d1c    // 2006d1c <__sfvwrite_r+0x414>
 2006cc4:	0d 05 40 0c 	LH         12(R5),R1
 2006cc8:	78 80 00 98 	BRA        @0x02006d64    // 2006d64 <__sfvwrite_r+0x45c>
 2006ccc:	1c 05 00 00 	CMP        R4,R3
 2006cd0:	78 90 00 24 	BLT        @0x02006cf8    // 2006cf8 <__sfvwrite_r+0x3f0>
 2006cd4:	1b 42 c0 00 	MOV        R11,R3
 2006cd8:	14 85 40 1c 	LW         28(R5),R2
 2006cdc:	0c 87 40 00 	LW         (SP),R1
 2006ce0:	03 43 c0 01 	IJSR       #36(R5)
 2006ce4:	7c 85 40 24 
 2006ce8:	c7 88 8b 01 	MOV        R1,R8          | CMP        $1,R1
 2006cec:	78 b0 00 30 	BGE        @0x02006d20    // 2006d20 <__sfvwrite_r+0x418>
 2006cf0:	0d 05 40 0c 	LH         12(R5),R1
 2006cf4:	78 80 00 6c 	BRA        @0x02006d64    // 2006d64 <__sfvwrite_r+0x45c>
 2006cf8:	13 42 c0 00 	MOV        R11,R2
 2006cfc:	87 fa fc f8 	JSR        0x020074d8     // 20074d8 <memmove>
 2006d00:	02 00 74 d8 
 2006d04:	0c 85 40 08 	LW         8(R5),R1
 2006d08:	08 06 00 00 	SUB        R8,R1
 2006d0c:	0c c5 40 08 	SW         R1,$8(R5)
 2006d10:	8c a8 8a c0 	LW         (R5),R1        | ADD        R8,R1
 2006d14:	0c c5 40 00 	SW         R1,(R5)
 2006d18:	78 80 00 04 	BRA        @0x02006d20    // 2006d20 <__sfvwrite_r+0x418>
 2006d1c:	43 43 00 00 	MOV        R12,R8
 2006d20:	50 06 00 00 	SUB        R8,R10
 2006d24:	78 a8 00 1c 	BNZ        @0x02006d44    // 2006d44 <__sfvwrite_r+0x43c>
 2006d28:	97 a8 8c 00 	MOV        R5,R2          | LW         (SP),R1
 2006d2c:	87 fa fc f8 	JSR        0x02005660     // 2005660 <_fflush_r>
 2006d30:	02 00 56 60 
 2006d34:	0c 00 00 00 	CMP        $0,R1
 2006d38:	78 88 00 0c 	BZ         @0x02006d48    // 2006d48 <__sfvwrite_r+0x440>
 2006d3c:	0d 05 40 0c 	LH         12(R5),R1
 2006d40:	78 80 00 20 	BRA        @0x02006d64    // 2006d64 <__sfvwrite_r+0x45c>
 2006d44:	0e 00 00 01 	LDI        $1,R1
 2006d48:	da c0 c8 c0 	ADD        R8,R11         | SUB        R8,R9
 2006d4c:	14 85 c0 08 	LW         8(R7),R2
 2006d50:	10 06 00 00 	SUB        R8,R2
 2006d54:	14 c5 c0 08 	SW         R2,$8(R7)
 2006d58:	78 ab fe d0 	BNZ        @0x02006c2c    // 2006c2c <__sfvwrite_r+0x324>
 2006d5c:	78 83 fb b8 	BRA        @0x02006918    // 2006918 <__sfvwrite_r+0x10>
 2006d60:	0d 05 40 0c 	LH         12(R5),R1
 2006d64:	08 c0 00 40 	OR         $64,R1
 2006d68:	0d 45 40 0c 	SH         R1,$12(R5)
 2006d6c:	0e 7f ff ff 	LDI        $-1,R1
 2006d70:	78 80 00 04 	BRA        @0x02006d78    // 2006d78 <__sfvwrite_r+0x470>
 2006d74:	0e 7f ff ff 	LDI        $-1,R1
 2006d78:	84 04 ac 08 	LW         4(SP),R0       | LW         8(SP),R5
 2006d7c:	b4 0c bc 10 	LW         12(SP),R6      | LW         16(SP),R7
 2006d80:	c4 14 cc 18 	LW         20(SP),R8      | LW         24(SP),R9
 2006d84:	d4 1c dc 20 	LW         28(SP),R10     | LW         32(SP),R11
 2006d88:	e4 24 ea 28 	LW         36(SP),R12     | ADD        $40,SP
 2006d8c:	7b 40 00 00 	RTN
 2006d90:	8e 00 ff 80 	CLR        R1             | RTN

02006d94 <_fwalk>:
 2006d94:	e8 18 85 00 	SUB        $24,SP         | SW         R0,(SP)
 2006d98:	ad 04 b5 08 	SW         R5,$4(SP)      | SW         R6,$8(SP)
 2006d9c:	bd 0c c5 10 	SW         R7,$12(SP)     | SW         R8,$16(SP)
 2006da0:	cd 14 bf 88 	SW         R9,$20(SP)     | MOV        R1,R7
 2006da4:	38 80 02 e0 	ADD        $736,R7
 2006da8:	78 88 00 58 	BZ         @0x02006e04    // 2006e04 <_fwalk+0x70>
 2006dac:	c7 90 ce 00 	MOV        R2,R8          | CLR        R9
 2006db0:	2c 85 c0 08 	LW         8(R7),R5
 2006db4:	34 85 c0 04 	LW         4(R7),R6
 2006db8:	30 83 ff ff 	ADD        $-1,R6
 2006dbc:	78 90 00 38 	BLT        @0x02006df8    // 2006df8 <_fwalk+0x64>
 2006dc0:	0d 05 40 0c 	LH         12(R5),R1
 2006dc4:	0c 00 00 02 	CMP        $2,R1
 2006dc8:	78 98 00 20 	BC         @0x02006dec    // 2006dec <_fwalk+0x58>
 2006dcc:	0d 05 40 0e 	LH         14(R5),R1
 2006dd0:	09 80 00 10 	LSL        $16,R1
 2006dd4:	09 c0 00 10 	ASR        $16,R1
 2006dd8:	0c 03 ff ff 	CMP        $-1,R1
 2006ddc:	78 88 00 0c 	BZ         @0x02006dec    // 2006dec <_fwalk+0x58>
 2006de0:	0b 41 40 00 	MOV        R5,R1
 2006de4:	87 f9 ff c0 	JSR        R8
 2006de8:	48 c4 40 00 	OR         R1,R9
 2006dec:	28 80 00 6c 	ADD        $108,R5
 2006df0:	b2 7f b3 7f 	ADD        $-1,R6         | CMP        $-1,R6
 2006df4:	78 ab ff c8 	BNZ        @0x02006dc0    // 2006dc0 <_fwalk+0x2c>
 2006df8:	bc b8 bb 00 	LW         (R7),R7        | CMP        $0,R7
 2006dfc:	78 ab ff b0 	BNZ        @0x02006db0    // 2006db0 <_fwalk+0x1c>
 2006e00:	78 80 00 04 	BRA        @0x02006e08    // 2006e08 <_fwalk+0x74>
 2006e04:	4b 41 c0 00 	MOV        R7,R9
 2006e08:	8f c8 84 00 	MOV        R9,R1          | LW         (SP),R0
 2006e0c:	ac 04 b4 08 	LW         4(SP),R5       | LW         8(SP),R6
 2006e10:	bc 0c c4 10 	LW         12(SP),R7      | LW         16(SP),R8
 2006e14:	cc 14 ea 18 	LW         20(SP),R9      | ADD        $24,SP
 2006e18:	7b 40 00 00 	RTN

02006e1c <_fwalk_reent>:
 2006e1c:	e8 1c 85 00 	SUB        $28,SP         | SW         R0,(SP)
 2006e20:	ad 04 b5 08 	SW         R5,$4(SP)      | SW         R6,$8(SP)
 2006e24:	bd 0c c5 10 	SW         R7,$12(SP)     | SW         R8,$16(SP)
 2006e28:	cd 14 d5 18 	SW         R9,$20(SP)     | SW         R10,$24(SP)
 2006e2c:	3b 40 40 00 	MOV        R1,R7
 2006e30:	38 80 02 e0 	ADD        $736,R7
 2006e34:	78 88 00 5c 	BZ         @0x02006e94    // 2006e94 <_fwalk_reent+0x78>
 2006e38:	cf 90 c7 88 	MOV        R2,R9          | MOV        R1,R8
 2006e3c:	56 00 00 00 	CLR        R10
 2006e40:	2c 85 c0 08 	LW         8(R7),R5
 2006e44:	34 85 c0 04 	LW         4(R7),R6
 2006e48:	30 83 ff ff 	ADD        $-1,R6
 2006e4c:	78 90 00 38 	BLT        @0x02006e88    // 2006e88 <_fwalk_reent+0x6c>
 2006e50:	0d 05 40 0c 	LH         12(R5),R1
 2006e54:	0c 00 00 02 	CMP        $2,R1
 2006e58:	78 98 00 20 	BC         @0x02006e7c    // 2006e7c <_fwalk_reent+0x60>
 2006e5c:	1d 05 40 0e 	LH         14(R5),R3
 2006e60:	19 80 00 10 	LSL        $16,R3
 2006e64:	19 c0 00 10 	ASR        $16,R3
 2006e68:	1c 03 ff ff 	CMP        $-1,R3
 2006e6c:	78 88 00 0c 	BZ         @0x02006e7c    // 2006e7c <_fwalk_reent+0x60>
 2006e70:	97 a8 8f c0 	MOV        R5,R2          | MOV        R8,R1
 2006e74:	87 f9 ff c8 	JSR        R9
 2006e78:	50 c4 40 00 	OR         R1,R10
 2006e7c:	28 80 00 6c 	ADD        $108,R5
 2006e80:	b2 7f b3 7f 	ADD        $-1,R6         | CMP        $-1,R6
 2006e84:	78 ab ff c8 	BNZ        @0x02006e50    // 2006e50 <_fwalk_reent+0x34>
 2006e88:	bc b8 bb 00 	LW         (R7),R7        | CMP        $0,R7
 2006e8c:	78 ab ff b0 	BNZ        @0x02006e40    // 2006e40 <_fwalk_reent+0x24>
 2006e90:	78 80 00 04 	BRA        @0x02006e98    // 2006e98 <_fwalk_reent+0x7c>
 2006e94:	53 41 c0 00 	MOV        R7,R10
 2006e98:	8f d0 84 00 	MOV        R10,R1         | LW         (SP),R0
 2006e9c:	ac 04 b4 08 	LW         4(SP),R5       | LW         8(SP),R6
 2006ea0:	bc 0c c4 10 	LW         12(SP),R7      | LW         16(SP),R8
 2006ea4:	cc 14 d4 18 	LW         20(SP),R9      | LW         24(SP),R10
 2006ea8:	ea 1c ff 80 	ADD        $28,SP         | RTN

02006eac <__localeconv_l>:
 2006eac:	08 80 00 f0 	ADD        $240,R1
 2006eb0:	7b 40 00 00 	RTN

02006eb4 <_localeconv_r>:
 2006eb4:	0a 03 00 40 	LDI        0x0200e78c,R1  // 200e78c <_impure_ptr>
 2006eb8:	0a 40 e7 8c 
 2006ebc:	0c 84 40 00 	LW         (R1),R1
 2006ec0:	0c 84 40 34 	LW         52(R1),R1
 2006ec4:	0c 00 00 00 	CMP        $0,R1
 2006ec8:	0a 0b 00 40 	LDI.Z      0x0200efd4,R1  // 200efd4 <__global_locale>
 2006ecc:	0a 48 ef d4 
 2006ed0:	08 80 00 f0 	ADD        $240,R1
 2006ed4:	7b 40 00 00 	RTN

02006ed8 <localeconv>:
 2006ed8:	0a 03 00 40 	LDI        0x0200e78c,R1  // 200e78c <_impure_ptr>
 2006edc:	0a 40 e7 8c 
 2006ee0:	0c 84 40 00 	LW         (R1),R1
 2006ee4:	0c 84 40 34 	LW         52(R1),R1
 2006ee8:	0c 00 00 00 	CMP        $0,R1
 2006eec:	0a 0b 00 40 	LDI.Z      0x0200efd4,R1  // 200efd4 <__global_locale>
 2006ef0:	0a 48 ef d4 
 2006ef4:	08 80 00 f0 	ADD        $240,R1
 2006ef8:	7b 40 00 00 	RTN

02006efc <_setlocale_r>:
 2006efc:	1c 00 00 00 	CMP        $0,R3
 2006f00:	78 88 00 78 	BZ         @0x02006f7c    // 2006f7c <_setlocale_r+0x80>
 2006f04:	78 80 00 80 	BRA        @0x02006f88    // 2006f88 <_setlocale_r+0x8c>
 2006f08:	e8 08 85 00 	SUB        $8,SP          | SW         R0,(SP)
 2006f0c:	ad 04 af 98 	SW         R5,$4(SP)      | MOV        R3,R5
 2006f10:	12 03 00 40 	LDI        0x0200e424,R2  // 200e424 <blanks.4493+0x24>
 2006f14:	12 40 e4 24 
 2006f18:	0b 40 c0 00 	MOV        R3,R1
 2006f1c:	87 fa fc f8 	JSR        0x02009a58     // 2009a58 <strcmp>
 2006f20:	02 00 9a 58 
 2006f24:	0c 00 00 00 	CMP        $0,R1
 2006f28:	78 88 00 38 	BZ         @0x02006f64    // 2006f64 <_setlocale_r+0x68>
 2006f2c:	12 03 00 40 	LDI        0x0200e420,R2  // 200e420 <blanks.4493+0x20>
 2006f30:	12 40 e4 20 
 2006f34:	0b 41 40 00 	MOV        R5,R1
 2006f38:	87 fa fc f8 	JSR        0x02009a58     // 2009a58 <strcmp>
 2006f3c:	02 00 9a 58 
 2006f40:	0c 00 00 00 	CMP        $0,R1
 2006f44:	78 88 00 1c 	BZ         @0x02006f64    // 2006f64 <_setlocale_r+0x68>
 2006f48:	12 03 00 40 	LDI        0x0200e224,R2  // 200e224 <__errno+0x4c>
 2006f4c:	12 40 e2 24 
 2006f50:	0b 41 40 00 	MOV        R5,R1
 2006f54:	87 fa fc f8 	JSR        0x02009a58     // 2009a58 <strcmp>
 2006f58:	02 00 9a 58 
 2006f5c:	0c 00 00 00 	CMP        $0,R1
 2006f60:	78 a8 00 0c 	BNZ        @0x02006f70    // 2006f70 <_setlocale_r+0x74>
 2006f64:	0a 03 00 40 	LDI        0x0200e420,R1  // 200e420 <blanks.4493+0x20>
 2006f68:	0a 40 e4 20 
 2006f6c:	78 80 00 04 	BRA        @0x02006f74    // 2006f74 <_setlocale_r+0x78>
 2006f70:	0e 00 00 00 	CLR        R1
 2006f74:	84 00 ac 04 	LW         (SP),R0        | LW         4(SP),R5
 2006f78:	ea 08 ff 80 	ADD        $8,SP          | RTN
 2006f7c:	0a 03 00 40 	LDI        0x0200e420,R1  // 200e420 <blanks.4493+0x20>
 2006f80:	0a 40 e4 20 
 2006f84:	7b 40 00 00 	RTN
 2006f88:	78 83 ff 7c 	BRA        @0x02006f08    // 2006f08 <_setlocale_r+0xc>

02006f8c <__locale_mb_cur_max>:
 2006f8c:	0a 03 00 40 	LDI        0x0200e78c,R1  // 200e78c <_impure_ptr>
 2006f90:	0a 40 e7 8c 
 2006f94:	0c 84 40 00 	LW         (R1),R1
 2006f98:	0c 84 40 34 	LW         52(R1),R1
 2006f9c:	0c 00 00 00 	CMP        $0,R1
 2006fa0:	0a 0b 00 40 	LDI.Z      0x0200efd4,R1  // 200efd4 <__global_locale>
 2006fa4:	0a 48 ef d4 
 2006fa8:	0d 84 41 28 	LB         296(R1),R1
 2006fac:	7b 40 00 00 	RTN

02006fb0 <__locale_ctype_ptr_l>:
 2006fb0:	0c 84 40 ec 	LW         236(R1),R1
 2006fb4:	7b 40 00 00 	RTN

02006fb8 <__locale_ctype_ptr>:
 2006fb8:	0a 03 00 40 	LDI        0x0200e78c,R1  // 200e78c <_impure_ptr>
 2006fbc:	0a 40 e7 8c 
 2006fc0:	0c 84 40 00 	LW         (R1),R1
 2006fc4:	0c 84 40 34 	LW         52(R1),R1
 2006fc8:	0c 00 00 00 	CMP        $0,R1
 2006fcc:	0a 0b 00 40 	LDI.Z      0x0200efd4,R1  // 200efd4 <__global_locale>
 2006fd0:	0a 48 ef d4 
 2006fd4:	0c 84 40 ec 	LW         236(R1),R1
 2006fd8:	7b 40 00 00 	RTN

02006fdc <setlocale>:
 2006fdc:	14 00 00 00 	CMP        $0,R2
 2006fe0:	78 88 00 78 	BZ         @0x0200705c    // 200705c <setlocale+0x80>
 2006fe4:	78 80 00 80 	BRA        @0x02007068    // 2007068 <setlocale+0x8c>
 2006fe8:	e8 08 85 00 	SUB        $8,SP          | SW         R0,(SP)
 2006fec:	ad 04 af 90 	SW         R5,$4(SP)      | MOV        R2,R5
 2006ff0:	12 03 00 40 	LDI        0x0200e424,R2  // 200e424 <blanks.4493+0x24>
 2006ff4:	12 40 e4 24 
 2006ff8:	0b 41 40 00 	MOV        R5,R1
 2006ffc:	87 fa fc f8 	JSR        0x02009a58     // 2009a58 <strcmp>
 2007000:	02 00 9a 58 
 2007004:	0c 00 00 00 	CMP        $0,R1
 2007008:	78 88 00 38 	BZ         @0x02007044    // 2007044 <setlocale+0x68>
 200700c:	12 03 00 40 	LDI        0x0200e420,R2  // 200e420 <blanks.4493+0x20>
 2007010:	12 40 e4 20 
 2007014:	0b 41 40 00 	MOV        R5,R1
 2007018:	87 fa fc f8 	JSR        0x02009a58     // 2009a58 <strcmp>
 200701c:	02 00 9a 58 
 2007020:	0c 00 00 00 	CMP        $0,R1
 2007024:	78 88 00 1c 	BZ         @0x02007044    // 2007044 <setlocale+0x68>
 2007028:	12 03 00 40 	LDI        0x0200e224,R2  // 200e224 <__errno+0x4c>
 200702c:	12 40 e2 24 
 2007030:	0b 41 40 00 	MOV        R5,R1
 2007034:	87 fa fc f8 	JSR        0x02009a58     // 2009a58 <strcmp>
 2007038:	02 00 9a 58 
 200703c:	0c 00 00 00 	CMP        $0,R1
 2007040:	78 a8 00 0c 	BNZ        @0x02007050    // 2007050 <setlocale+0x74>
 2007044:	0a 03 00 40 	LDI        0x0200e420,R1  // 200e420 <blanks.4493+0x20>
 2007048:	0a 40 e4 20 
 200704c:	78 80 00 04 	BRA        @0x02007054    // 2007054 <setlocale+0x78>
 2007050:	0e 00 00 00 	CLR        R1
 2007054:	84 00 ac 04 	LW         (SP),R0        | LW         4(SP),R5
 2007058:	ea 08 ff 80 	ADD        $8,SP          | RTN
 200705c:	0a 03 00 40 	LDI        0x0200e420,R1  // 200e420 <blanks.4493+0x20>
 2007060:	0a 40 e4 20 
 2007064:	7b 40 00 00 	RTN
 2007068:	78 83 ff 7c 	BRA        @0x02006fe8    // 2006fe8 <setlocale+0xc>

0200706c <__smakebuf_r>:
 200706c:	68 00 00 80 	SUB        $128,SP
 2007070:	04 c7 40 68 	SW         R0,$104(SP)
 2007074:	2c c7 40 6c 	SW         R5,$108(SP)
 2007078:	34 c7 40 70 	SW         R6,$112(SP)
 200707c:	3c c7 40 74 	SW         R7,$116(SP)
 2007080:	44 c7 40 78 	SW         R8,$120(SP)
 2007084:	4c c7 40 7c 	SW         R9,$124(SP)
 2007088:	1d 04 80 0c 	LH         12(R2),R3
 200708c:	b7 98 b1 02 	MOV        R3,R6          | AND        $2,R6
 2007090:	78 88 00 1c 	BZ         @0x020070b0    // 20070b0 <__smakebuf_r+0x44>
 2007094:	0b 40 80 00 	MOV        R2,R1
 2007098:	08 80 00 43 	ADD        $67,R1
 200709c:	0c c4 80 00 	SW         R1,(R2)
 20070a0:	0c c4 80 10 	SW         R1,$16(R2)
 20070a4:	0e 00 00 01 	LDI        $1,R1
 20070a8:	0c c4 80 14 	SW         R1,$20(R2)
 20070ac:	78 80 01 28 	BRA        @0x020071d8    // 20071d8 <__smakebuf_r+0x16c>
 20070b0:	c7 88 af 90 	MOV        R1,R8          | MOV        R2,R5
 20070b4:	15 04 80 0e 	LH         14(R2),R2
 20070b8:	11 80 00 10 	LSL        $16,R2
 20070bc:	11 c0 00 10 	ASR        $16,R2
 20070c0:	14 00 00 00 	CMP        $0,R2
 20070c4:	78 90 00 18 	BLT        @0x020070e0    // 20070e0 <__smakebuf_r+0x74>
 20070c8:	1b 43 40 00 	MOV        SP,R3
 20070cc:	87 fa fc f8 	JSR        0x0200c5d4     // 200c5d4 <_fstat_r>
 20070d0:	02 00 c5 d4 
 20070d4:	0c 00 00 00 	CMP        $0,R1
 20070d8:	78 b0 00 18 	BGE        @0x020070f4    // 20070f4 <__smakebuf_r+0x88>
 20070dc:	1d 05 40 0c 	LH         12(R5),R3
 20070e0:	18 40 00 80 	AND        $128,R3
 20070e4:	78 88 00 30 	BZ         @0x02007118    // 2007118 <__smakebuf_r+0xac>
 20070e8:	be 00 ce 40 	CLR        R7             | LDI        $64,R9
 20070ec:	b6 00 97 c8 	CLR        R6             | MOV        R9,R2
 20070f0:	78 80 00 30 	BRA        @0x02007124    // 2007124 <__smakebuf_r+0xb8>
 20070f4:	0c 87 40 04 	LW         4(SP),R1
 20070f8:	08 40 f0 00 	AND        $61440,R1
 20070fc:	0c 00 20 00 	CMP        $8192,R1
 2007100:	32 08 00 00 	LDI.Z      0x00000001,R6  // 1 <_rom+0x1>
 2007104:	32 48 00 01 
 2007108:	3e 00 08 00 	LDI        $2048,R7
 200710c:	4e 00 04 00 	LDI        $1024,R9
 2007110:	13 42 40 00 	MOV        R9,R2
 2007114:	78 80 00 0c 	BRA        @0x02007124    // 2007124 <__smakebuf_r+0xb8>
 2007118:	3b 40 c0 00 	MOV        R3,R7
 200711c:	4e 00 04 00 	LDI        $1024,R9
 2007120:	b7 98 97 c8 	MOV        R3,R6          | MOV        R9,R2
 2007124:	0b 42 00 00 	MOV        R8,R1
 2007128:	87 fa fc f8 	JSR        0x0200099c     // 200099c <_malloc_r>
 200712c:	02 00 09 9c 
 2007130:	0c 00 00 00 	CMP        $0,R1
 2007134:	78 a8 00 38 	BNZ        @0x02007170    // 2007170 <__smakebuf_r+0x104>
 2007138:	0d 05 40 0c 	LH         12(R5),R1
 200713c:	13 40 40 00 	MOV        R1,R2
 2007140:	10 40 02 00 	AND        $512,R2
 2007144:	78 a8 00 90 	BNZ        @0x020071d8    // 20071d8 <__smakebuf_r+0x16c>
 2007148:	08 43 ff fc 	AND        $-4,R1
 200714c:	08 c0 00 02 	OR         $2,R1
 2007150:	0d 45 40 0c 	SH         R1,$12(R5)
 2007154:	0b 41 40 00 	MOV        R5,R1
 2007158:	08 80 00 43 	ADD        $67,R1
 200715c:	0c c5 40 00 	SW         R1,(R5)
 2007160:	0c c5 40 10 	SW         R1,$16(R5)
 2007164:	16 00 00 01 	LDI        $1,R2
 2007168:	14 c5 40 14 	SW         R2,$20(R5)
 200716c:	78 80 00 68 	BRA        @0x020071d8    // 20071d8 <__smakebuf_r+0x16c>
 2007170:	12 02 00 40 	LDI        0x02005ee8,R2  // 2005ee8 <_cleanup_r>
 2007174:	12 40 5e e8 
 2007178:	14 c6 00 3c 	SW         R2,$60(R8)
 200717c:	15 05 40 0c 	LH         12(R5),R2
 2007180:	10 c0 00 80 	OR         $128,R2
 2007184:	15 45 40 0c 	SH         R2,$12(R5)
 2007188:	0c c5 40 00 	SW         R1,(R5)
 200718c:	0c c5 40 10 	SW         R1,$16(R5)
 2007190:	4c c5 40 14 	SW         R9,$20(R5)
 2007194:	34 00 00 00 	CMP        $0,R6
 2007198:	78 88 00 34 	BZ         @0x020071d0    // 20071d0 <__smakebuf_r+0x164>
 200719c:	15 05 40 0e 	LH         14(R5),R2
 20071a0:	11 80 00 10 	LSL        $16,R2
 20071a4:	11 c0 00 10 	ASR        $16,R2
 20071a8:	0b 42 00 00 	MOV        R8,R1
 20071ac:	87 fa fc f8 	JSR        0x0200c600     // 200c600 <_isatty_r>
 20071b0:	02 00 c6 00 
 20071b4:	0c 00 00 00 	CMP        $0,R1
 20071b8:	78 a8 00 08 	BNZ        @0x020071c4    // 20071c4 <__smakebuf_r+0x158>
 20071bc:	15 05 40 0c 	LH         12(R5),R2
 20071c0:	78 80 00 0c 	BRA        @0x020071d0    // 20071d0 <__smakebuf_r+0x164>
 20071c4:	15 05 40 0c 	LH         12(R5),R2
 20071c8:	10 40 ff fc 	AND        $65532,R2
 20071cc:	10 c0 00 01 	OR         $1,R2
 20071d0:	38 c4 80 00 	OR         R2,R7
 20071d4:	3d 45 40 0c 	SH         R7,$12(R5)
 20071d8:	04 87 40 68 	LW         104(SP),R0
 20071dc:	2c 87 40 6c 	LW         108(SP),R5
 20071e0:	34 87 40 70 	LW         112(SP),R6
 20071e4:	3c 87 40 74 	LW         116(SP),R7
 20071e8:	44 87 40 78 	LW         120(SP),R8
 20071ec:	4c 87 40 7c 	LW         124(SP),R9
 20071f0:	68 80 00 80 	ADD        $128,SP
 20071f4:	7b 40 00 00 	RTN

020071f8 <__swhatbuf_r>:
 20071f8:	68 00 00 78 	SUB        $120,SP
 20071fc:	04 c7 40 68 	SW         R0,$104(SP)
 2007200:	2c c7 40 6c 	SW         R5,$108(SP)
 2007204:	34 c7 40 70 	SW         R6,$112(SP)
 2007208:	3c c7 40 74 	SW         R7,$116(SP)
 200720c:	af 90 b7 98 	MOV        R2,R5          | MOV        R3,R6
 2007210:	3b 41 00 00 	MOV        R4,R7
 2007214:	15 04 80 0e 	LH         14(R2),R2
 2007218:	11 80 00 10 	LSL        $16,R2
 200721c:	11 c0 00 10 	ASR        $16,R2
 2007220:	14 00 00 00 	CMP        $0,R2
 2007224:	78 b0 00 14 	BGE        @0x0200723c    // 200723c <__swhatbuf_r+0x44>
 2007228:	8e 00 8d b8 	CLR        R1             | SW         R1,(R7)
 200722c:	0d 05 40 0c 	LH         12(R5),R1
 2007230:	08 40 00 80 	AND        $128,R1
 2007234:	78 a8 00 1c 	BNZ        @0x02007254    // 2007254 <__swhatbuf_r+0x5c>
 2007238:	78 80 00 24 	BRA        @0x02007260    // 2007260 <__swhatbuf_r+0x68>
 200723c:	1b 43 40 00 	MOV        SP,R3
 2007240:	87 fa fc f8 	JSR        0x0200c5d4     // 200c5d4 <_fstat_r>
 2007244:	02 00 c5 d4 
 2007248:	0c 00 00 00 	CMP        $0,R1
 200724c:	78 b0 00 1c 	BGE        @0x0200726c    // 200726c <__swhatbuf_r+0x74>
 2007250:	78 83 ff d4 	BRA        @0x02007228    // 2007228 <__swhatbuf_r+0x30>
 2007254:	96 40 95 b0 	LDI        $64,R2         | SW         R2,(R6)
 2007258:	0e 00 00 00 	CLR        R1
 200725c:	78 80 00 30 	BRA        @0x02007290    // 2007290 <__swhatbuf_r+0x98>
 2007260:	16 00 04 00 	LDI        $1024,R2
 2007264:	14 c5 80 00 	SW         R2,(R6)
 2007268:	78 80 00 24 	BRA        @0x02007290    // 2007290 <__swhatbuf_r+0x98>
 200726c:	0c 87 40 04 	LW         4(SP),R1
 2007270:	08 40 f0 00 	AND        $61440,R1
 2007274:	0c 00 20 00 	CMP        $8192,R1
 2007278:	0e 00 00 00 	CLR        R1
 200727c:	0a 48 00 01 	LDILO.Z    $1,R1
 2007280:	0c c5 c0 00 	SW         R1,(R7)
 2007284:	0e 00 04 00 	LDI        $1024,R1
 2007288:	0c c5 80 00 	SW         R1,(R6)
 200728c:	0e 00 08 00 	LDI        $2048,R1
 2007290:	04 87 40 68 	LW         104(SP),R0
 2007294:	2c 87 40 6c 	LW         108(SP),R5
 2007298:	34 87 40 70 	LW         112(SP),R6
 200729c:	3c 87 40 74 	LW         116(SP),R7
 20072a0:	68 80 00 78 	ADD        $120,SP
 20072a4:	7b 40 00 00 	RTN

020072a8 <_mbtowc_r>:
 20072a8:	e8 0c 85 00 	SUB        $12,SP         | SW         R0,(SP)
 20072ac:	ad 04 b5 08 	SW         R5,$4(SP)      | SW         R6,$8(SP)
 20072b0:	32 03 00 40 	LDI        0x0200e78c,R6  // 200e78c <_impure_ptr>
 20072b4:	32 40 e7 8c 
 20072b8:	34 85 80 00 	LW         (R6),R6
 20072bc:	34 85 80 34 	LW         52(R6),R6
 20072c0:	34 00 00 00 	CMP        $0,R6
 20072c4:	32 0b 00 40 	LDI.Z      0x0200efd4,R6  // 200efd4 <__global_locale>
 20072c8:	32 48 ef d4 
 20072cc:	03 43 c0 01 	IJSR       #228(R6)
 20072d0:	7c 85 80 e4 
 20072d4:	84 00 ac 04 	LW         (SP),R0        | LW         4(SP),R5
 20072d8:	b4 08 ea 0c 	LW         8(SP),R6       | ADD        $12,SP
 20072dc:	7b 40 00 00 	RTN

020072e0 <__ascii_mbtowc>:
 20072e0:	14 00 00 00 	CMP        $0,R2
 20072e4:	78 a8 00 38 	BNZ        @0x02007320    // 2007320 <__ascii_mbtowc+0x40>
 20072e8:	78 80 00 64 	BRA        @0x02007350    // 2007350 <__ascii_mbtowc+0x70>
 20072ec:	68 00 00 04 	SUB        $4,SP
 20072f0:	8f 98 9b 00 	MOV        R3,R1          | CMP        $0,R3
 20072f4:	78 88 00 24 	BZ         @0x0200731c    // 200731c <__ascii_mbtowc+0x3c>
 20072f8:	24 00 00 00 	CMP        $0,R4
 20072fc:	78 88 00 18 	BZ         @0x02007318    // 2007318 <__ascii_mbtowc+0x38>
 2007300:	0d 84 c0 00 	LB         (R3),R1
 2007304:	0c c7 40 00 	SW         R1,(SP)
 2007308:	0d 84 c0 00 	LB         (R3),R1
 200730c:	8b 00 8e 00 	CMP        $0,R1          | CLR        R1
 2007310:	0a 68 00 01 	LDILO.NZ   $1,R1
 2007314:	78 80 00 04 	BRA        @0x0200731c    // 200731c <__ascii_mbtowc+0x3c>
 2007318:	0e 7f ff fe 	LDI        $-2,R1
 200731c:	ea 04 ff 80 	ADD        $4,SP          | RTN
 2007320:	1c 00 00 00 	CMP        $0,R3
 2007324:	78 88 00 20 	BZ         @0x02007348    // 2007348 <__ascii_mbtowc+0x68>
 2007328:	24 00 00 00 	CMP        $0,R4
 200732c:	78 88 00 1c 	BZ         @0x0200734c    // 200734c <__ascii_mbtowc+0x6c>
 2007330:	0d 84 c0 00 	LB         (R3),R1
 2007334:	0c c4 80 00 	SW         R1,(R2)
 2007338:	0d 84 c0 00 	LB         (R3),R1
 200733c:	8b 00 8e 00 	CMP        $0,R1          | CLR        R1
 2007340:	0a 68 00 01 	LDILO.NZ   $1,R1
 2007344:	7b 40 00 00 	RTN
 2007348:	8f 98 ff 80 	MOV        R3,R1          | RTN
 200734c:	8e fe ff 80 	LDI        $-2,R1         | RTN
 2007350:	78 83 ff 98 	BRA        @0x020072ec    // 20072ec <__ascii_mbtowc+0xc>

02007354 <memchr>:
 2007354:	e8 1c ad 00 	SUB        $28,SP         | SW         R5,(SP)
 2007358:	b5 04 bd 08 	SW         R6,$4(SP)      | SW         R7,$8(SP)
 200735c:	c5 0c cd 10 	SW         R8,$12(SP)     | SW         R9,$16(SP)
 2007360:	d5 14 dd 18 	SW         R10,$20(SP)    | SW         R11,$24(SP)
 2007364:	2b 40 80 00 	MOV        R2,R5
 2007368:	28 40 00 ff 	AND        $255,R5
 200736c:	a7 88 a1 07 	MOV        R1,R4          | AND        $7,R4
 2007370:	78 88 00 40 	BZ         @0x020073b4    // 20073b4 <memchr+0x60>
 2007374:	a7 98 a2 7f 	MOV        R3,R4          | ADD        $-1,R4
 2007378:	1c 00 00 00 	CMP        $0,R3
 200737c:	78 88 01 28 	BZ         @0x020074a8    // 20074a8 <memchr+0x154>
 2007380:	1d 84 40 00 	LB         (R1),R3
 2007384:	1c 05 40 00 	CMP        R5,R3
 2007388:	78 88 01 38 	BZ         @0x020074c4    // 20074c4 <memchr+0x170>
 200738c:	78 80 00 14 	BRA        @0x020073a4    // 20073a4 <memchr+0x50>
 2007390:	a2 7f a3 7f 	ADD        $-1,R4         | CMP        $-1,R4
 2007394:	78 88 01 18 	BZ         @0x020074b0    // 20074b0 <memchr+0x15c>
 2007398:	1d 84 40 00 	LB         (R1),R3
 200739c:	1c 05 40 00 	CMP        R5,R3
 20073a0:	78 88 01 14 	BZ         @0x020074b8    // 20074b8 <memchr+0x164>
 20073a4:	8a 01 9f 88 	ADD        $1,R1          | MOV        R1,R3
 20073a8:	18 40 00 07 	AND        $7,R3
 20073ac:	78 ab ff e0 	BNZ        @0x02007390    // 2007390 <memchr+0x3c>
 20073b0:	78 80 00 04 	BRA        @0x020073b8    // 20073b8 <memchr+0x64>
 20073b4:	23 40 c0 00 	MOV        R3,R4
 20073b8:	24 00 00 08 	CMP        $8,R4
 20073bc:	78 b8 00 20 	BNC        @0x020073e0    // 20073e0 <memchr+0x8c>
 20073c0:	24 00 00 00 	CMP        $0,R4
 20073c4:	78 a8 00 04 	BNZ        @0x020073cc    // 20073cc <memchr+0x78>
 20073c8:	78 80 00 f0 	BRA        @0x020074bc    // 20074bc <memchr+0x168>
 20073cc:	15 84 40 00 	LB         (R1),R2
 20073d0:	14 05 40 00 	CMP        R5,R2
 20073d4:	78 88 00 ec 	BZ         @0x020074c4    // 20074c4 <memchr+0x170>
 20073d8:	9f 88 9a a0 	MOV        R1,R3          | ADD        R4,R3
 20073dc:	78 80 00 b8 	BRA        @0x02007498    // 2007498 <memchr+0x144>
 20073e0:	1b 40 80 00 	MOV        R2,R3
 20073e4:	19 80 00 08 	LSL        $8,R3
 20073e8:	18 40 ff ff 	AND        $65535,R3
 20073ec:	10 40 00 ff 	AND        $255,R2
 20073f0:	18 c4 80 00 	OR         R2,R3
 20073f4:	cf 98 c7 98 	MOV        R3,R9          | MOV        R3,R8
 20073f8:	41 c0 00 1f 	ASR        $31,R8
 20073fc:	33 40 c0 00 	MOV        R3,R6
 2007400:	31 40 00 10 	LSR        $16,R6
 2007404:	13 42 00 00 	MOV        R8,R2
 2007408:	11 80 00 10 	LSL        $16,R2
 200740c:	30 c4 80 00 	OR         R2,R6
 2007410:	13 41 80 00 	MOV        R6,R2
 2007414:	19 80 00 10 	LSL        $16,R3
 2007418:	48 c4 c0 00 	OR         R3,R9
 200741c:	40 c4 80 00 	OR         R2,R8
 2007420:	97 c8 9e 00 	MOV        R9,R2          | CLR        R3
 2007424:	48 c4 c0 00 	OR         R3,R9
 2007428:	40 c4 80 00 	OR         R2,R8
 200742c:	52 01 7f 7f 	LDI        0xfefefefe,R10 // fefefefe <_top_of_stack+0xfbfefefe>
 2007430:	52 40 fe fe 
 2007434:	5b 42 80 01 	MOV        $1+R10,R11
 2007438:	14 84 40 00 	LW         (R1),R2
 200743c:	1c 84 40 04 	LW         4(R1),R3
 2007440:	19 06 40 00 	XOR        R9,R3
 2007444:	11 06 00 00 	XOR        R8,R2
 2007448:	b7 90 bf 98 	MOV        R2,R6          | MOV        R3,R7
 200744c:	38 86 c0 00 	ADD        R11,R7
 2007450:	30 98 00 01 	ADD.C      $1,R6
 2007454:	30 86 80 00 	ADD        R10,R6
 2007458:	19 03 ff ff 	XOR        $-1,R3
 200745c:	11 03 ff ff 	XOR        $-1,R2
 2007460:	99 b8 91 b0 	AND        R7,R3          | AND        R6,R2
 2007464:	32 01 01 01 	LDI        0x80808080,R6  // 80808080 <_top_of_stack+0x7d808080>
 2007468:	32 40 80 80 
 200746c:	bf b0 99 b8 	MOV        R6,R7          | AND        R7,R3
 2007470:	91 b0 93 00 	AND        R6,R2          | CMP        $0,R2
 2007474:	1c 08 00 00 	CMP.Z      $0,R3
 2007478:	78 ab ff 50 	BNZ        @0x020073cc    // 20073cc <memchr+0x78>
 200747c:	a2 78 8a 08 	ADD        $-8,R4         | ADD        $8,R1
 2007480:	24 00 00 08 	CMP        $8,R4
 2007484:	78 bb ff b0 	BNC        @0x02007438    // 2007438 <memchr+0xe4>
 2007488:	78 83 ff 34 	BRA        @0x020073c0    // 20073c0 <memchr+0x6c>
 200748c:	15 84 40 00 	LB         (R1),R2
 2007490:	14 05 40 00 	CMP        R5,R2
 2007494:	78 88 00 2c 	BZ         @0x020074c4    // 20074c4 <memchr+0x170>
 2007498:	8a 01 8b 98 	ADD        $1,R1          | CMP        R3,R1
 200749c:	78 ab ff ec 	BNZ        @0x0200748c    // 200748c <memchr+0x138>
 20074a0:	0e 00 00 00 	CLR        R1
 20074a4:	78 80 00 1c 	BRA        @0x020074c4    // 20074c4 <memchr+0x170>
 20074a8:	0b 40 c0 00 	MOV        R3,R1
 20074ac:	78 80 00 14 	BRA        @0x020074c4    // 20074c4 <memchr+0x170>
 20074b0:	0e 00 00 00 	CLR        R1
 20074b4:	78 80 00 0c 	BRA        @0x020074c4    // 20074c4 <memchr+0x170>
 20074b8:	78 80 00 08 	BRA        @0x020074c4    // 20074c4 <memchr+0x170>
 20074bc:	0b 41 00 00 	MOV        R4,R1
 20074c0:	78 80 00 00 	BRA        @0x020074c4    // 20074c4 <memchr+0x170>
 20074c4:	ac 00 b4 04 	LW         (SP),R5        | LW         4(SP),R6
 20074c8:	bc 08 c4 0c 	LW         8(SP),R7       | LW         12(SP),R8
 20074cc:	cc 10 d4 14 	LW         16(SP),R9      | LW         20(SP),R10
 20074d0:	dc 18 ea 1c 	LW         24(SP),R11     | ADD        $28,SP
 20074d4:	7b 40 00 00 	RTN

020074d8 <memmove>:
 20074d8:	e8 1c ad 00 	SUB        $28,SP         | SW         R5,(SP)
 20074dc:	b5 04 bd 08 	SW         R6,$4(SP)      | SW         R7,$8(SP)
 20074e0:	c5 0c cd 10 	SW         R8,$12(SP)     | SW         R9,$16(SP)
 20074e4:	d5 14 dd 18 	SW         R10,$20(SP)    | SW         R11,$24(SP)
 20074e8:	14 04 40 00 	CMP        R1,R2
 20074ec:	78 b8 00 30 	BNC        @0x02007520    // 2007520 <memmove+0x48>
 20074f0:	a7 90 a2 98 	MOV        R2,R4          | ADD        R3,R4
 20074f4:	0c 05 00 00 	CMP        R4,R1
 20074f8:	78 b8 00 24 	BNC        @0x02007520    // 2007520 <memmove+0x48>
 20074fc:	af 88 aa 98 	MOV        R1,R5          | ADD        R3,R5
 2007500:	1c 00 00 00 	CMP        $0,R3
 2007504:	78 88 01 e4 	BZ         @0x020076ec    // 20076ec <memmove+0x214>
 2007508:	aa 7f a2 7f 	ADD        $-1,R5         | ADD        $-1,R4
 200750c:	1d 85 00 00 	LB         (R4),R3
 2007510:	1d c5 40 00 	SB         R3,(R5)
 2007514:	14 05 00 00 	CMP        R4,R2
 2007518:	78 ab ff ec 	BNZ        @0x02007508    // 2007508 <memmove+0x30>
 200751c:	78 80 01 cc 	BRA        @0x020076ec    // 20076ec <memmove+0x214>
 2007520:	a7 88 9b 20 	MOV        R1,R4          | CMP        $32,R3
 2007524:	78 98 00 08 	BC         @0x02007530    // 2007530 <memmove+0x58>
 2007528:	78 80 00 14 	BRA        @0x02007540    // 2007540 <memmove+0x68>
 200752c:	1b 41 80 00 	MOV        R6,R3
 2007530:	bf 98 ba 7f 	MOV        R3,R7          | ADD        $-1,R7
 2007534:	1c 00 00 00 	CMP        $0,R3
 2007538:	78 a8 00 d4 	BNZ        @0x02007610    // 2007610 <memmove+0x138>
 200753c:	78 80 01 ac 	BRA        @0x020076ec    // 20076ec <memmove+0x214>
 2007540:	23 40 80 00 	MOV        R2,R4
 2007544:	20 c4 40 00 	OR         R1,R4
 2007548:	20 40 00 07 	AND        $7,R4
 200754c:	78 a8 01 90 	BNZ        @0x020076e0    // 20076e0 <memmove+0x208>
 2007550:	af 90 a7 88 	MOV        R2,R5          | MOV        R1,R4
 2007554:	33 40 c0 00 	MOV        R3,R6
 2007558:	3c 85 40 00 	LW         (R5),R7
 200755c:	44 85 40 04 	LW         4(R5),R8
 2007560:	3c c5 00 00 	SW         R7,(R4)
 2007564:	44 c5 00 04 	SW         R8,$4(R4)
 2007568:	3c 85 40 08 	LW         8(R5),R7
 200756c:	44 85 40 0c 	LW         12(R5),R8
 2007570:	3c c5 00 08 	SW         R7,$8(R4)
 2007574:	44 c5 00 0c 	SW         R8,$12(R4)
 2007578:	3c 85 40 10 	LW         16(R5),R7
 200757c:	44 85 40 14 	LW         20(R5),R8
 2007580:	3c c5 00 10 	SW         R7,$16(R4)
 2007584:	44 c5 00 14 	SW         R8,$20(R4)
 2007588:	a2 20 aa 20 	ADD        $32,R4         | ADD        $32,R5
 200758c:	3c 85 7f f8 	LW         -8(R5),R7
 2007590:	44 85 7f fc 	LW         -4(R5),R8
 2007594:	3c c5 3f f8 	SW         R7,$-8(R4)
 2007598:	c5 a4 b2 60 	SW         R8,$-4(R4)     | ADD        $-32,R6
 200759c:	34 00 00 20 	CMP        $32,R6
 20075a0:	78 bb ff b4 	BNC        @0x02007558    // 2007558 <memmove+0x80>
 20075a4:	af 98 aa 60 	MOV        R3,R5          | ADD        $-32,R5
 20075a8:	a9 60 aa 20 	AND        $-32,R5        | ADD        $32,R5
 20075ac:	a7 88 a2 a8 	MOV        R1,R4          | ADD        R5,R4
 20075b0:	92 a8 b7 98 	ADD        R5,R2          | MOV        R3,R6
 20075b4:	b1 1f b3 08 	AND        $31,R6         | CMP        $8,R6
 20075b8:	78 9b ff 70 	BC         @0x0200752c    // 200752c <memmove+0x54>
 20075bc:	3c 84 80 00 	LW         (R2),R7
 20075c0:	44 84 80 04 	LW         4(R2),R8
 20075c4:	3c c5 00 00 	SW         R7,(R4)
 20075c8:	44 c5 00 04 	SW         R8,$4(R4)
 20075cc:	af b0 aa 78 	MOV        R6,R5          | ADD        $-8,R5
 20075d0:	2c 00 00 08 	CMP        $8,R5
 20075d4:	78 98 00 28 	BC         @0x02007600    // 2007600 <memmove+0x128>
 20075d8:	3c 84 80 08 	LW         8(R2),R7
 20075dc:	44 84 80 0c 	LW         12(R2),R8
 20075e0:	3c c5 00 08 	SW         R7,$8(R4)
 20075e4:	44 c5 00 0c 	SW         R8,$12(R4)
 20075e8:	b2 70 b3 08 	ADD        $-16,R6        | CMP        $8,R6
 20075ec:	78 98 00 10 	BC         @0x02007600    // 2007600 <memmove+0x128>
 20075f0:	34 84 80 10 	LW         16(R2),R6
 20075f4:	3c 84 80 14 	LW         20(R2),R7
 20075f8:	34 c5 00 10 	SW         R6,$16(R4)
 20075fc:	3c c5 00 14 	SW         R7,$20(R4)
 2007600:	a9 78 aa 08 	AND        $-8,R5         | ADD        $8,R5
 2007604:	99 07 92 a8 	AND        $7,R3          | ADD        R5,R2
 2007608:	20 85 40 00 	ADD        R5,R4
 200760c:	78 83 ff 20 	BRA        @0x02007530    // 2007530 <memmove+0x58>
 2007610:	af a0 aa 04 	MOV        R4,R5          | ADD        $4,R5
 2007614:	93 a8 ae 00 	CMP        R5,R2          | CLR        R5
 2007618:	2a 78 00 01 	LDILO.NC   $1,R5
 200761c:	b7 90 b2 04 	MOV        R2,R6          | ADD        $4,R6
 2007620:	24 05 80 00 	CMP        R6,R4
 2007624:	28 f8 00 01 	OR.NC      $1,R5
 2007628:	b7 a8 9b 0a 	MOV        R5,R6          | CMP        $10,R3
 200762c:	2e 00 00 00 	CLR        R5
 2007630:	2a 78 00 01 	LDILO.NC   $1,R5
 2007634:	a9 b0 b7 a8 	AND        R6,R5          | MOV        R5,R6
 2007638:	2b 41 00 00 	MOV        R4,R5
 200763c:	28 c4 80 00 	OR         R2,R5
 2007640:	a9 03 ae 00 	AND        $3,R5          | CLR        R5
 2007644:	2a 48 00 01 	LDILO.Z    $1,R5
 2007648:	28 45 80 00 	AND        R6,R5
 200764c:	78 88 00 70 	BZ         @0x020076c0    // 20076c0 <memmove+0x1e8>
 2007650:	af 98 aa 7c 	MOV        R3,R5          | ADD        $-4,R5
 2007654:	29 40 00 02 	LSR        $2,R5
 2007658:	aa 01 d7 a8 	ADD        $1,R5          | MOV        R5,R10
 200765c:	51 80 00 02 	LSL        $2,R10
 2007660:	3c 00 00 03 	CMP        $3,R7
 2007664:	78 98 00 34 	BC         @0x0200769c    // 200769c <memmove+0x1c4>
 2007668:	cf 90 c7 a0 	MOV        R2,R9          | MOV        R4,R8
 200766c:	36 00 00 00 	CLR        R6
 2007670:	dc c8 dd c0 	LW         (R9),R11       | SW         R11,(R8)
 2007674:	b2 01 ca 04 	ADD        $1,R6          | ADD        $4,R9
 2007678:	c2 04 b3 a8 	ADD        $4,R8          | CMP        R5,R6
 200767c:	78 9b ff f0 	BC         @0x02007670    // 2007670 <memmove+0x198>
 2007680:	78 80 00 0c 	BRA        @0x02007690    // 2007690 <memmove+0x1b8>
 2007684:	15 84 80 02 	LB         2(R2),R2
 2007688:	15 c5 00 02 	SB         R2,$2(R4)
 200768c:	78 80 00 5c 	BRA        @0x020076ec    // 20076ec <memmove+0x214>
 2007690:	a2 d0 92 d0 	ADD        R10,R4         | ADD        R10,R2
 2007694:	b8 d0 d3 98 	SUB        R10,R7         | CMP        R3,R10
 2007698:	78 88 00 50 	BZ         @0x020076ec    // 20076ec <memmove+0x214>
 200769c:	1d 84 80 00 	LB         (R2),R3
 20076a0:	1d c5 00 00 	SB         R3,(R4)
 20076a4:	3c 00 00 00 	CMP        $0,R7
 20076a8:	78 88 00 40 	BZ         @0x020076ec    // 20076ec <memmove+0x214>
 20076ac:	2d 84 80 01 	LB         1(R2),R5
 20076b0:	2d c5 00 01 	SB         R5,$1(R4)
 20076b4:	3c 00 00 01 	CMP        $1,R7
 20076b8:	78 ab ff c8 	BNZ        @0x02007684    // 2007684 <memmove+0x1ac>
 20076bc:	78 80 00 2c 	BRA        @0x020076ec    // 20076ec <memmove+0x214>
 20076c0:	b7 a0 b2 98 	MOV        R4,R6          | ADD        R3,R6
 20076c4:	1b 41 80 00 	MOV        R6,R3
 20076c8:	a2 01 92 01 	ADD        $1,R4          | ADD        $1,R2
 20076cc:	3d 84 bf ff 	LB         -1(R2),R7
 20076d0:	3d c5 3f ff 	SB         R7,$-1(R4)
 20076d4:	24 04 c0 00 	CMP        R3,R4
 20076d8:	78 ab ff ec 	BNZ        @0x020076c8    // 20076c8 <memmove+0x1f0>
 20076dc:	78 80 00 0c 	BRA        @0x020076ec    // 20076ec <memmove+0x214>
 20076e0:	bf 98 ba 7f 	MOV        R3,R7          | ADD        $-1,R7
 20076e4:	23 40 40 00 	MOV        R1,R4
 20076e8:	78 83 ff 24 	BRA        @0x02007610    // 2007610 <memmove+0x138>
 20076ec:	ac 00 b4 04 	LW         (SP),R5        | LW         4(SP),R6
 20076f0:	bc 08 c4 0c 	LW         8(SP),R7       | LW         12(SP),R8
 20076f4:	cc 10 d4 14 	LW         16(SP),R9      | LW         20(SP),R10
 20076f8:	dc 18 ea 1c 	LW         24(SP),R11     | ADD        $28,SP
 20076fc:	7b 40 00 00 	RTN

02007700 <_Balloc>:
 2007700:	e8 10 85 00 	SUB        $16,SP         | SW         R0,(SP)
 2007704:	ad 04 b5 08 	SW         R5,$4(SP)      | SW         R6,$8(SP)
 2007708:	bd 0c af 88 	SW         R7,$12(SP)     | MOV        R1,R5
 200770c:	33 40 80 00 	MOV        R2,R6
 2007710:	14 84 40 4c 	LW         76(R1),R2
 2007714:	14 00 00 00 	CMP        $0,R2
 2007718:	78 a8 00 20 	BNZ        @0x0200773c    // 200773c <_Balloc+0x3c>
 200771c:	9e 21 96 04 	LDI        $33,R3         | LDI        $4,R2
 2007720:	87 fa fc f8 	JSR        0x0200b588     // 200b588 <_calloc_r>
 2007724:	02 00 b5 88 
 2007728:	0c c5 40 4c 	SW         R1,$76(R5)
 200772c:	97 88 8b 00 	MOV        R1,R2          | CMP        $0,R1
 2007730:	78 a8 00 08 	BNZ        @0x0200773c    // 200773c <_Balloc+0x3c>
 2007734:	0e 00 00 00 	CLR        R1
 2007738:	78 80 00 54 	BRA        @0x02007790    // 2007790 <_Balloc+0x90>
 200773c:	0b 41 80 00 	MOV        R6,R1
 2007740:	09 80 00 02 	LSL        $2,R1
 2007744:	92 88 8c 90 	ADD        R1,R2          | LW         (R2),R1
 2007748:	0c 00 00 00 	CMP        $0,R1
 200774c:	78 88 00 08 	BZ         @0x02007758    // 2007758 <_Balloc+0x58>
 2007750:	9c 88 9d 90 	LW         (R1),R3        | SW         R3,(R2)
 2007754:	78 80 00 2c 	BRA        @0x02007784    // 2007784 <_Balloc+0x84>
 2007758:	96 01 be 01 	LDI        $1,R2          | LDI        $1,R7
 200775c:	39 85 80 00 	LSL        R6,R7
 2007760:	9f b8 9a 05 	MOV        R7,R3          | ADD        $5,R3
 2007764:	19 80 00 02 	LSL        $2,R3
 2007768:	0b 41 40 00 	MOV        R5,R1
 200776c:	87 fa fc f8 	JSR        0x0200b588     // 200b588 <_calloc_r>
 2007770:	02 00 b5 88 
 2007774:	0c 00 00 00 	CMP        $0,R1
 2007778:	78 8b ff b8 	BZ         @0x02007734    // 2007734 <_Balloc+0x34>
 200777c:	34 c4 40 04 	SW         R6,$4(R1)
 2007780:	3c c4 40 08 	SW         R7,$8(R1)
 2007784:	16 00 00 00 	CLR        R2
 2007788:	14 c4 40 10 	SW         R2,$16(R1)
 200778c:	14 c4 40 0c 	SW         R2,$12(R1)
 2007790:	84 00 ac 04 	LW         (SP),R0        | LW         4(SP),R5
 2007794:	b4 08 bc 0c 	LW         8(SP),R6       | LW         12(SP),R7
 2007798:	ea 10 ff 80 	ADD        $16,SP         | RTN

0200779c <_Bfree>:
 200779c:	14 00 00 00 	CMP        $0,R2
 20077a0:	7b 48 00 00 	RTN.Z
 20077a4:	1c 84 80 04 	LW         4(R2),R3
 20077a8:	19 80 00 02 	LSL        $2,R3
 20077ac:	0c 84 40 4c 	LW         76(R1),R1
 20077b0:	8a 98 9c 88 	ADD        R3,R1          | LW         (R1),R3
 20077b4:	9d 90 95 88 	SW         R3,(R2)        | SW         R2,(R1)
 20077b8:	7b 40 00 00 	RTN

020077bc <__multadd>:
 20077bc:	e8 20 85 00 	SUB        $32,SP         | SW         R0,(SP)
 20077c0:	ad 04 b5 08 	SW         R5,$4(SP)      | SW         R6,$8(SP)
 20077c4:	bd 0c c5 10 	SW         R7,$12(SP)     | SW         R8,$16(SP)
 20077c8:	cd 14 d5 18 	SW         R9,$20(SP)     | SW         R10,$24(SP)
 20077cc:	dd 1c bf 88 	SW         R11,$28(SP)    | MOV        R1,R7
 20077d0:	33 40 80 00 	MOV        R2,R6
 20077d4:	44 84 80 10 	LW         16(R2),R8
 20077d8:	13 40 80 14 	MOV        $20+R2,R2
 20077dc:	2e 00 00 00 	CLR        R5
 20077e0:	8c 90 d7 88 	LW         (R2),R1        | MOV        R1,R10
 20077e4:	50 40 ff ff 	AND        $65535,R10
 20077e8:	53 04 c0 00 	MPY        R3,R10
 20077ec:	50 85 00 00 	ADD        R4,R10
 20077f0:	09 40 00 10 	LSR        $16,R1
 20077f4:	0b 04 c0 00 	MPY        R3,R1
 20077f8:	23 42 80 00 	MOV        R10,R4
 20077fc:	21 40 00 10 	LSR        $16,R4
 2007800:	8a a0 cf 88 	ADD        R4,R1          | MOV        R1,R9
 2007804:	49 40 00 10 	LSR        $16,R9
 2007808:	a7 c8 92 04 	MOV        R9,R4          | ADD        $4,R2
 200780c:	09 80 00 10 	LSL        $16,R1
 2007810:	50 40 ff ff 	AND        $65535,R10
 2007814:	8a d0 8d 94 	ADD        R10,R1         | SW         R1,$-4(R2)
 2007818:	aa 01 ab c0 	ADD        $1,R5          | CMP        R8,R5
 200781c:	78 93 ff c0 	BLT        @0x020077e0    // 20077e0 <__multadd+0x24>
 2007820:	4c 00 00 00 	CMP        $0,R9
 2007824:	78 88 00 e0 	BZ         @0x02007908    // 2007908 <__multadd+0x14c>
 2007828:	0c 85 80 08 	LW         8(R6),R1
 200782c:	44 04 40 00 	CMP        R1,R8
 2007830:	78 90 00 c0 	BLT        @0x020078f4    // 20078f4 <__multadd+0x138>
 2007834:	54 85 80 04 	LW         4(R6),R10
 2007838:	50 80 00 01 	ADD        $1,R10
 200783c:	0c 85 c0 4c 	LW         76(R7),R1
 2007840:	0c 00 00 00 	CMP        $0,R1
 2007844:	78 a8 00 24 	BNZ        @0x0200786c    // 200786c <__multadd+0xb0>
 2007848:	9e 21 96 04 	LDI        $33,R3         | LDI        $4,R2
 200784c:	0b 41 c0 00 	MOV        R7,R1
 2007850:	87 fa fc f8 	JSR        0x0200b588     // 200b588 <_calloc_r>
 2007854:	02 00 b5 88 
 2007858:	0c c5 c0 4c 	SW         R1,$76(R7)
 200785c:	0c 00 00 00 	CMP        $0,R1
 2007860:	78 a8 00 08 	BNZ        @0x0200786c    // 200786c <__multadd+0xb0>
 2007864:	2e 00 00 00 	CLR        R5
 2007868:	78 80 00 54 	BRA        @0x020078c0    // 20078c0 <__multadd+0x104>
 200786c:	13 42 80 00 	MOV        R10,R2
 2007870:	11 80 00 02 	LSL        $2,R2
 2007874:	8a 90 ac 88 	ADD        R2,R1          | LW         (R1),R5
 2007878:	2c 00 00 00 	CMP        $0,R5
 200787c:	78 88 00 08 	BZ         @0x02007888    // 2007888 <__multadd+0xcc>
 2007880:	84 a8 85 88 	LW         (R5),R0        | SW         R0,(R1)
 2007884:	78 80 00 2c 	BRA        @0x020078b4    // 20078b4 <__multadd+0xf8>
 2007888:	96 01 de 01 	LDI        $1,R2          | LDI        $1,R11
 200788c:	59 86 80 00 	LSL        R10,R11
 2007890:	9f d8 9a 05 	MOV        R11,R3         | ADD        $5,R3
 2007894:	19 80 00 02 	LSL        $2,R3
 2007898:	0b 41 c0 00 	MOV        R7,R1
 200789c:	87 fa fc f8 	JSR        0x0200b588     // 200b588 <_calloc_r>
 20078a0:	02 00 b5 88 
 20078a4:	af 88 8b 00 	MOV        R1,R5          | CMP        $0,R1
 20078a8:	78 8b ff b8 	BZ         @0x02007864    // 2007864 <__multadd+0xa8>
 20078ac:	54 c4 40 04 	SW         R10,$4(R1)
 20078b0:	5c c4 40 08 	SW         R11,$8(R1)
 20078b4:	16 00 00 00 	CLR        R2
 20078b8:	14 c5 40 10 	SW         R2,$16(R5)
 20078bc:	14 c5 40 0c 	SW         R2,$12(R5)
 20078c0:	1c 85 80 10 	LW         16(R6),R3
 20078c4:	18 80 00 02 	ADD        $2,R3
 20078c8:	19 80 00 02 	LSL        $2,R3
 20078cc:	13 41 80 0c 	MOV        $12+R6,R2
 20078d0:	0b 41 40 0c 	MOV        $12+R5,R1
 20078d4:	87 fa fc f8 	JSR        0x02001354     // 2001354 <memcpy>
 20078d8:	02 00 13 54 
 20078dc:	14 85 80 04 	LW         4(R6),R2
 20078e0:	11 80 00 02 	LSL        $2,R2
 20078e4:	0c 85 c0 4c 	LW         76(R7),R1
 20078e8:	8a 90 94 88 	ADD        R2,R1          | LW         (R1),R2
 20078ec:	95 b0 b5 88 	SW         R2,(R6)        | SW         R6,(R1)
 20078f0:	33 41 40 00 	MOV        R5,R6
 20078f4:	8f c0 8a 05 	MOV        R8,R1          | ADD        $5,R1
 20078f8:	09 80 00 02 	LSL        $2,R1
 20078fc:	97 b0 92 88 	MOV        R6,R2          | ADD        R1,R2
 2007900:	cd 90 c2 01 	SW         R9,(R2)        | ADD        $1,R8
 2007904:	44 c5 80 10 	SW         R8,$16(R6)
 2007908:	8f b0 84 00 	MOV        R6,R1          | LW         (SP),R0
 200790c:	ac 04 b4 08 	LW         4(SP),R5       | LW         8(SP),R6
 2007910:	bc 0c c4 10 	LW         12(SP),R7      | LW         16(SP),R8
 2007914:	cc 14 d4 18 	LW         20(SP),R9      | LW         24(SP),R10
 2007918:	dc 1c ea 20 	LW         28(SP),R11     | ADD        $32,SP
 200791c:	7b 40 00 00 	RTN

02007920 <__s2b>:
 2007920:	e8 34 85 10 	SUB        $52,SP         | SW         R0,$16(SP)
 2007924:	ad 14 b5 18 	SW         R5,$20(SP)     | SW         R6,$24(SP)
 2007928:	bd 1c c5 20 	SW         R7,$28(SP)     | SW         R8,$32(SP)
 200792c:	cd 24 d5 28 	SW         R9,$36(SP)     | SW         R10,$40(SP)
 2007930:	dd 2c e5 30 	SW         R11,$44(SP)    | SW         R12,$48(SP)
 2007934:	d7 88 c7 90 	MOV        R1,R10         | MOV        R2,R8
 2007938:	e7 98 a5 04 	MOV        R3,R12         | SW         R4,$4(SP)
 200793c:	97 a0 92 08 	MOV        R4,R2          | ADD        $8,R2
 2007940:	13 c0 00 09 	DIVS       $9,R2
 2007944:	b6 00 93 02 	CLR        R6             | CMP        $2,R2
 2007948:	78 90 00 14 	BLT        @0x02007960    // 2007960 <__s2b+0x40>
 200794c:	8e 01 b6 00 	LDI        $1,R1          | CLR        R6
 2007950:	8a 88 b2 01 	ADD        R1,R1          | ADD        $1,R6
 2007954:	0c 04 80 00 	CMP        R2,R1
 2007958:	78 93 ff f4 	BLT        @0x02007950    // 2007950 <__s2b+0x30>
 200795c:	78 80 00 00 	BRA        @0x02007960    // 2007960 <__s2b+0x40>
 2007960:	0c 86 80 4c 	LW         76(R10),R1
 2007964:	0c 00 00 00 	CMP        $0,R1
 2007968:	78 a8 00 1c 	BNZ        @0x02007988    // 2007988 <__s2b+0x68>
 200796c:	9e 21 96 04 	LDI        $33,R3         | LDI        $4,R2
 2007970:	0b 42 80 00 	MOV        R10,R1
 2007974:	87 fa fc f8 	JSR        0x0200b588     // 200b588 <_calloc_r>
 2007978:	02 00 b5 88 
 200797c:	0c c6 80 4c 	SW         R1,$76(R10)
 2007980:	0c 00 00 00 	CMP        $0,R1
 2007984:	78 88 03 60 	BZ         @0x02007ce8    // 2007ce8 <__s2b+0x3c8>
 2007988:	13 41 80 00 	MOV        R6,R2
 200798c:	11 80 00 02 	LSL        $2,R2
 2007990:	8a 90 bc 88 	ADD        R2,R1          | LW         (R1),R7
 2007994:	3c 00 00 00 	CMP        $0,R7
 2007998:	78 88 00 08 	BZ         @0x020079a4    // 20079a4 <__s2b+0x84>
 200799c:	94 b8 95 88 	LW         (R7),R2        | SW         R2,(R1)
 20079a0:	78 80 00 2c 	BRA        @0x020079d0    // 20079d0 <__s2b+0xb0>
 20079a4:	96 01 ce 01 	LDI        $1,R2          | LDI        $1,R9
 20079a8:	49 85 80 00 	LSL        R6,R9
 20079ac:	9f c8 9a 05 	MOV        R9,R3          | ADD        $5,R3
 20079b0:	19 80 00 02 	LSL        $2,R3
 20079b4:	0b 42 80 00 	MOV        R10,R1
 20079b8:	87 fa fc f8 	JSR        0x0200b588     // 200b588 <_calloc_r>
 20079bc:	02 00 b5 88 
 20079c0:	bf 88 8b 00 	MOV        R1,R7          | CMP        $0,R1
 20079c4:	78 88 03 20 	BZ         @0x02007ce8    // 2007ce8 <__s2b+0x3c8>
 20079c8:	34 c4 40 04 	SW         R6,$4(R1)
 20079cc:	4c c4 40 08 	SW         R9,$8(R1)
 20079d0:	0e 00 00 00 	CLR        R1
 20079d4:	0c c5 c0 0c 	SW         R1,$12(R7)
 20079d8:	2c c5 c0 14 	SW         R5,$20(R7)
 20079dc:	16 00 00 01 	LDI        $1,R2
 20079e0:	14 c5 c0 10 	SW         R2,$16(R7)
 20079e4:	64 00 00 0a 	CMP        $10,R12
 20079e8:	78 90 01 90 	BLT        @0x02007b7c    // 2007b7c <__s2b+0x25c>
 20079ec:	8f c0 8a 09 	MOV        R8,R1          | ADD        $9,R1
 20079f0:	8d 08 c2 e0 	SW         R1,$8(SP)      | ADD        R12,R8
 20079f4:	cf 88 b7 90 	MOV        R1,R9          | MOV        R2,R6
 20079f8:	e5 0c e7 d0 	SW         R12,$12(SP)    | MOV        R10,R12
 20079fc:	48 80 00 01 	ADD        $1,R9
 2007a00:	5d 86 7f ff 	LB         -1(R9),R11
 2007a04:	da 50 9f b8 	ADD        $-48,R11       | MOV        R7,R3
 2007a08:	9a 14 d6 00 	ADD        $20,R3         | CLR        R10
 2007a0c:	8c 98 a7 88 	LW         (R3),R1        | MOV        R1,R4
 2007a10:	20 40 ff ff 	AND        $65535,R4
 2007a14:	13 41 00 00 	MOV        R4,R2
 2007a18:	11 80 00 02 	LSL        $2,R2
 2007a1c:	92 a0 92 90 	ADD        R4,R2          | ADD        R2,R2
 2007a20:	92 d8 a7 88 	ADD        R11,R2         | MOV        R1,R4
 2007a24:	21 40 00 10 	LSR        $16,R4
 2007a28:	0b 41 00 00 	MOV        R4,R1
 2007a2c:	09 80 00 02 	LSL        $2,R1
 2007a30:	8a a0 8a 88 	ADD        R4,R1          | ADD        R1,R1
 2007a34:	23 40 80 00 	MOV        R2,R4
 2007a38:	21 40 00 10 	LSR        $16,R4
 2007a3c:	8a a0 af 88 	ADD        R4,R1          | MOV        R1,R5
 2007a40:	29 40 00 10 	LSR        $16,R5
 2007a44:	df a8 9a 04 	MOV        R5,R11         | ADD        $4,R3
 2007a48:	09 80 00 10 	LSL        $16,R1
 2007a4c:	10 40 ff ff 	AND        $65535,R2
 2007a50:	8a 90 8d 9c 	ADD        R2,R1          | SW         R1,$-4(R3)
 2007a54:	d2 01 d3 b0 	ADD        $1,R10         | CMP        R6,R10
 2007a58:	78 93 ff b0 	BLT        @0x02007a0c    // 2007a0c <__s2b+0xec>
 2007a5c:	2c 00 00 00 	CMP        $0,R5
 2007a60:	78 88 00 e8 	BZ         @0x02007b4c    // 2007b4c <__s2b+0x22c>
 2007a64:	0c 85 c0 08 	LW         8(R7),R1
 2007a68:	34 04 40 00 	CMP        R1,R6
 2007a6c:	78 90 00 c8 	BLT        @0x02007b38    // 2007b38 <__s2b+0x218>
 2007a70:	54 85 c0 04 	LW         4(R7),R10
 2007a74:	50 80 00 01 	ADD        $1,R10
 2007a78:	0c 87 00 4c 	LW         76(R12),R1
 2007a7c:	0c 00 00 00 	CMP        $0,R1
 2007a80:	78 a8 00 24 	BNZ        @0x02007aa8    // 2007aa8 <__s2b+0x188>
 2007a84:	9e 21 96 04 	LDI        $33,R3         | LDI        $4,R2
 2007a88:	0b 43 00 00 	MOV        R12,R1
 2007a8c:	87 fa fc f8 	JSR        0x0200b588     // 200b588 <_calloc_r>
 2007a90:	02 00 b5 88 
 2007a94:	0c c7 00 4c 	SW         R1,$76(R12)
 2007a98:	0c 00 00 00 	CMP        $0,R1
 2007a9c:	78 a8 00 08 	BNZ        @0x02007aa8    // 2007aa8 <__s2b+0x188>
 2007aa0:	5e 00 00 00 	CLR        R11
 2007aa4:	78 80 00 5c 	BRA        @0x02007b04    // 2007b04 <__s2b+0x1e4>
 2007aa8:	13 42 80 00 	MOV        R10,R2
 2007aac:	11 80 00 02 	LSL        $2,R2
 2007ab0:	8a 90 dc 88 	ADD        R2,R1          | LW         (R1),R11
 2007ab4:	5c 00 00 00 	CMP        $0,R11
 2007ab8:	78 88 00 08 	BZ         @0x02007ac4    // 2007ac4 <__s2b+0x1a4>
 2007abc:	94 d8 95 88 	LW         (R11),R2       | SW         R2,(R1)
 2007ac0:	78 80 00 34 	BRA        @0x02007af8    // 2007af8 <__s2b+0x1d8>
 2007ac4:	26 00 00 01 	LDI        $1,R4
 2007ac8:	21 86 80 00 	LSL        R10,R4
 2007acc:	9f a0 9a 05 	MOV        R4,R3          | ADD        $5,R3
 2007ad0:	19 80 00 02 	LSL        $2,R3
 2007ad4:	96 01 8f e0 	LDI        $1,R2          | MOV        R12,R1
 2007ad8:	24 c7 40 00 	SW         R4,(SP)
 2007adc:	87 fa fc f8 	JSR        0x0200b588     // 200b588 <_calloc_r>
 2007ae0:	02 00 b5 88 
 2007ae4:	df 88 8b 00 	MOV        R1,R11         | CMP        $0,R1
 2007ae8:	24 87 40 00 	LW         (SP),R4
 2007aec:	78 8b ff b0 	BZ         @0x02007aa0    // 2007aa0 <__s2b+0x180>
 2007af0:	54 c4 40 04 	SW         R10,$4(R1)
 2007af4:	24 c4 40 08 	SW         R4,$8(R1)
 2007af8:	06 00 00 00 	CLR        R0
 2007afc:	04 c6 c0 10 	SW         R0,$16(R11)
 2007b00:	04 c6 c0 0c 	SW         R0,$12(R11)
 2007b04:	1c 85 c0 10 	LW         16(R7),R3
 2007b08:	18 80 00 02 	ADD        $2,R3
 2007b0c:	19 80 00 02 	LSL        $2,R3
 2007b10:	13 41 c0 0c 	MOV        $12+R7,R2
 2007b14:	0b 42 c0 0c 	MOV        $12+R11,R1
 2007b18:	87 fa fc f8 	JSR        0x02001354     // 2001354 <memcpy>
 2007b1c:	02 00 13 54 
 2007b20:	14 85 c0 04 	LW         4(R7),R2
 2007b24:	11 80 00 02 	LSL        $2,R2
 2007b28:	0c 87 00 4c 	LW         76(R12),R1
 2007b2c:	8a 90 94 88 	ADD        R2,R1          | LW         (R1),R2
 2007b30:	95 b8 bd 88 	SW         R2,(R7)        | SW         R7,(R1)
 2007b34:	3b 42 c0 00 	MOV        R11,R7
 2007b38:	8f b0 8a 05 	MOV        R6,R1          | ADD        $5,R1
 2007b3c:	09 80 00 02 	LSL        $2,R1
 2007b40:	97 b8 92 88 	MOV        R7,R2          | ADD        R1,R2
 2007b44:	ad 90 b2 01 	SW         R5,(R2)        | ADD        $1,R6
 2007b48:	34 c5 c0 10 	SW         R6,$16(R7)
 2007b4c:	44 06 40 00 	CMP        R9,R8
 2007b50:	78 88 00 08 	BZ         @0x02007b5c    // 2007b5c <__s2b+0x23c>
 2007b54:	34 85 c0 10 	LW         16(R7),R6
 2007b58:	78 83 fe a0 	BRA        @0x020079fc    // 20079fc <__s2b+0xdc>
 2007b5c:	d7 e0 e4 0c 	MOV        R12,R10        | LW         12(SP),R12
 2007b60:	8f e0 8a 78 	MOV        R12,R1         | ADD        $-8,R1
 2007b64:	c4 08 c2 88 	LW         8(SP),R8       | ADD        R1,R8
 2007b68:	8c 04 a7 88 	LW         4(SP),R1       | MOV        R1,R4
 2007b6c:	a0 e0 df c0 	SUB        R12,R4         | MOV        R8,R11
 2007b70:	da a0 e3 88 	ADD        R4,R11         | CMP        R1,R12
 2007b74:	78 90 00 0c 	BLT        @0x02007b84    // 2007b84 <__s2b+0x264>
 2007b78:	78 80 01 78 	BRA        @0x02007cf4    // 2007cf4 <__s2b+0x3d4>
 2007b7c:	c2 0a e6 09 	ADD        $10,R8         | LDI        $9,R12
 2007b80:	78 83 ff e4 	BRA        @0x02007b68    // 2007b68 <__s2b+0x248>
 2007b84:	40 80 00 01 	ADD        $1,R8
 2007b88:	4d 86 3f ff 	LB         -1(R8),R9
 2007b8c:	48 83 ff d0 	ADD        $-48,R9
 2007b90:	2c 85 c0 10 	LW         16(R7),R5
 2007b94:	9f b8 9a 14 	MOV        R7,R3          | ADD        $20,R3
 2007b98:	26 00 00 00 	CLR        R4
 2007b9c:	8c 98 b7 88 	LW         (R3),R1        | MOV        R1,R6
 2007ba0:	30 40 ff ff 	AND        $65535,R6
 2007ba4:	13 41 80 00 	MOV        R6,R2
 2007ba8:	11 80 00 02 	LSL        $2,R2
 2007bac:	92 b0 92 90 	ADD        R6,R2          | ADD        R2,R2
 2007bb0:	92 c8 b7 88 	ADD        R9,R2          | MOV        R1,R6
 2007bb4:	31 40 00 10 	LSR        $16,R6
 2007bb8:	0b 41 80 00 	MOV        R6,R1
 2007bbc:	09 80 00 02 	LSL        $2,R1
 2007bc0:	8a b0 8a 88 	ADD        R6,R1          | ADD        R1,R1
 2007bc4:	33 40 80 00 	MOV        R2,R6
 2007bc8:	31 40 00 10 	LSR        $16,R6
 2007bcc:	8a b0 b7 88 	ADD        R6,R1          | MOV        R1,R6
 2007bd0:	31 40 00 10 	LSR        $16,R6
 2007bd4:	cf b0 9a 04 	MOV        R6,R9          | ADD        $4,R3
 2007bd8:	09 80 00 10 	LSL        $16,R1
 2007bdc:	10 40 ff ff 	AND        $65535,R2
 2007be0:	8a 90 8d 9c 	ADD        R2,R1          | SW         R1,$-4(R3)
 2007be4:	a2 01 a3 a8 	ADD        $1,R4          | CMP        R5,R4
 2007be8:	78 93 ff b0 	BLT        @0x02007b9c    // 2007b9c <__s2b+0x27c>
 2007bec:	34 00 00 00 	CMP        $0,R6
 2007bf0:	78 88 00 e8 	BZ         @0x02007cdc    // 2007cdc <__s2b+0x3bc>
 2007bf4:	0c 85 c0 08 	LW         8(R7),R1
 2007bf8:	2c 04 40 00 	CMP        R1,R5
 2007bfc:	78 90 00 c8 	BLT        @0x02007cc8    // 2007cc8 <__s2b+0x3a8>
 2007c00:	64 85 c0 04 	LW         4(R7),R12
 2007c04:	60 80 00 01 	ADD        $1,R12
 2007c08:	0c 86 80 4c 	LW         76(R10),R1
 2007c0c:	0c 00 00 00 	CMP        $0,R1
 2007c10:	78 a8 00 24 	BNZ        @0x02007c38    // 2007c38 <__s2b+0x318>
 2007c14:	9e 21 96 04 	LDI        $33,R3         | LDI        $4,R2
 2007c18:	0b 42 80 00 	MOV        R10,R1
 2007c1c:	87 fa fc f8 	JSR        0x0200b588     // 200b588 <_calloc_r>
 2007c20:	02 00 b5 88 
 2007c24:	0c c6 80 4c 	SW         R1,$76(R10)
 2007c28:	0c 00 00 00 	CMP        $0,R1
 2007c2c:	78 a8 00 08 	BNZ        @0x02007c38    // 2007c38 <__s2b+0x318>
 2007c30:	4e 00 00 00 	CLR        R9
 2007c34:	78 80 00 5c 	BRA        @0x02007c94    // 2007c94 <__s2b+0x374>
 2007c38:	13 43 00 00 	MOV        R12,R2
 2007c3c:	11 80 00 02 	LSL        $2,R2
 2007c40:	8a 90 cc 88 	ADD        R2,R1          | LW         (R1),R9
 2007c44:	4c 00 00 00 	CMP        $0,R9
 2007c48:	78 88 00 08 	BZ         @0x02007c54    // 2007c54 <__s2b+0x334>
 2007c4c:	94 c8 95 88 	LW         (R9),R2        | SW         R2,(R1)
 2007c50:	78 80 00 34 	BRA        @0x02007c88    // 2007c88 <__s2b+0x368>
 2007c54:	26 00 00 01 	LDI        $1,R4
 2007c58:	21 87 00 00 	LSL        R12,R4
 2007c5c:	9f a0 9a 05 	MOV        R4,R3          | ADD        $5,R3
 2007c60:	19 80 00 02 	LSL        $2,R3
 2007c64:	96 01 8f d0 	LDI        $1,R2          | MOV        R10,R1
 2007c68:	24 c7 40 00 	SW         R4,(SP)
 2007c6c:	87 fa fc f8 	JSR        0x0200b588     // 200b588 <_calloc_r>
 2007c70:	02 00 b5 88 
 2007c74:	cf 88 8b 00 	MOV        R1,R9          | CMP        $0,R1
 2007c78:	24 87 40 00 	LW         (SP),R4
 2007c7c:	78 8b ff b0 	BZ         @0x02007c30    // 2007c30 <__s2b+0x310>
 2007c80:	64 c4 40 04 	SW         R12,$4(R1)
 2007c84:	24 c4 40 08 	SW         R4,$8(R1)
 2007c88:	06 00 00 00 	CLR        R0
 2007c8c:	04 c6 40 10 	SW         R0,$16(R9)
 2007c90:	04 c6 40 0c 	SW         R0,$12(R9)
 2007c94:	1c 85 c0 10 	LW         16(R7),R3
 2007c98:	18 80 00 02 	ADD        $2,R3
 2007c9c:	19 80 00 02 	LSL        $2,R3
 2007ca0:	13 41 c0 0c 	MOV        $12+R7,R2
 2007ca4:	0b 42 40 0c 	MOV        $12+R9,R1
 2007ca8:	87 fa fc f8 	JSR        0x02001354     // 2001354 <memcpy>
 2007cac:	02 00 13 54 
 2007cb0:	14 85 c0 04 	LW         4(R7),R2
 2007cb4:	11 80 00 02 	LSL        $2,R2
 2007cb8:	0c 86 80 4c 	LW         76(R10),R1
 2007cbc:	8a 90 94 88 	ADD        R2,R1          | LW         (R1),R2
 2007cc0:	95 b8 bd 88 	SW         R2,(R7)        | SW         R7,(R1)
 2007cc4:	3b 42 40 00 	MOV        R9,R7
 2007cc8:	8f a8 8a 05 	MOV        R5,R1          | ADD        $5,R1
 2007ccc:	09 80 00 02 	LSL        $2,R1
 2007cd0:	97 b8 92 88 	MOV        R7,R2          | ADD        R1,R2
 2007cd4:	b5 90 aa 01 	SW         R6,(R2)        | ADD        $1,R5
 2007cd8:	2c c5 c0 10 	SW         R5,$16(R7)
 2007cdc:	44 06 c0 00 	CMP        R11,R8
 2007ce0:	78 ab fe a0 	BNZ        @0x02007b84    // 2007b84 <__s2b+0x264>
 2007ce4:	78 80 00 0c 	BRA        @0x02007cf4    // 2007cf4 <__s2b+0x3d4>
 2007ce8:	06 00 00 00 	CLR        R0
 2007cec:	04 c0 00 14 	SW         R0,($20)
 2007cf0:	7f 00 00 00 	BREAK      @0x02007cf4    // 2007cf4 <__s2b+0x3d4>
 2007cf4:	8f b8 84 10 	MOV        R7,R1          | LW         16(SP),R0
 2007cf8:	ac 14 b4 18 	LW         20(SP),R5      | LW         24(SP),R6
 2007cfc:	bc 1c c4 20 	LW         28(SP),R7      | LW         32(SP),R8
 2007d00:	cc 24 d4 28 	LW         36(SP),R9      | LW         40(SP),R10
 2007d04:	dc 2c e4 30 	LW         44(SP),R11     | LW         48(SP),R12
 2007d08:	ea 34 ff 80 	ADD        $52,SP         | RTN

02007d0c <__hi0bits>:
 2007d0c:	e8 04 ad 00 	SUB        $4,SP          | SW         R5,(SP)
 2007d10:	13 40 40 00 	MOV        R1,R2
 2007d14:	10 43 00 00 	AND        $-65536,R2
 2007d18:	78 a8 00 0c 	BNZ        @0x02007d28    // 2007d28 <__hi0bits+0x1c>
 2007d1c:	09 80 00 10 	LSL        $16,R1
 2007d20:	a6 18 9e 10 	LDI        $24,R4         | LDI        $16,R3
 2007d24:	78 80 00 04 	BRA        @0x02007d2c    // 2007d2c <__hi0bits+0x20>
 2007d28:	a6 08 9e 00 	LDI        $8,R4          | CLR        R3
 2007d2c:	12 00 00 ff 	BREV       $255,R2
 2007d30:	af 88 a9 90 	MOV        R1,R5          | AND        R2,R5
 2007d34:	78 a8 00 08 	BNZ        @0x02007d40    // 2007d40 <__hi0bits+0x34>
 2007d38:	09 80 00 08 	LSL        $8,R1
 2007d3c:	1b 41 00 00 	MOV        R4,R3
 2007d40:	12 00 00 0f 	BREV       $15,R2
 2007d44:	a7 88 a1 90 	MOV        R1,R4          | AND        R2,R4
 2007d48:	78 a8 00 08 	BNZ        @0x02007d54    // 2007d54 <__hi0bits+0x48>
 2007d4c:	18 80 00 04 	ADD        $4,R3
 2007d50:	09 80 00 04 	LSL        $4,R1
 2007d54:	12 00 00 03 	BREV       $3,R2
 2007d58:	af 88 a9 90 	MOV        R1,R5          | AND        R2,R5
 2007d5c:	78 a8 00 08 	BNZ        @0x02007d68    // 2007d68 <__hi0bits+0x5c>
 2007d60:	18 80 00 02 	ADD        $2,R3
 2007d64:	09 80 00 02 	LSL        $2,R1
 2007d68:	0c 00 00 00 	CMP        $0,R1
 2007d6c:	78 90 00 18 	BLT        @0x02007d88    // 2007d88 <__hi0bits+0x7c>
 2007d70:	12 00 00 02 	BREV       $2,R2
 2007d74:	08 44 80 00 	AND        R2,R1
 2007d78:	78 88 00 08 	BZ         @0x02007d84    // 2007d84 <__hi0bits+0x78>
 2007d7c:	18 80 00 01 	ADD        $1,R3
 2007d80:	78 80 00 04 	BRA        @0x02007d88    // 2007d88 <__hi0bits+0x7c>
 2007d84:	1e 00 00 20 	LDI        $32,R3
 2007d88:	8f 98 ac 00 	MOV        R3,R1          | LW         (SP),R5
 2007d8c:	ea 04 ff 80 	ADD        $4,SP          | RTN

02007d90 <__lo0bits>:
 2007d90:	a7 88 94 88 	MOV        R1,R4          | LW         (R1),R2
 2007d94:	9f 90 99 07 	MOV        R2,R3          | AND        $7,R3
 2007d98:	78 88 00 a8 	BZ         @0x02007e44    // 2007e44 <__lo0bits+0xb4>
 2007d9c:	8f 90 89 01 	MOV        R2,R1          | AND        $1,R1
 2007da0:	78 a8 00 90 	BNZ        @0x02007e34    // 2007e34 <__lo0bits+0xa4>
 2007da4:	8f 90 89 02 	MOV        R2,R1          | AND        $2,R1
 2007da8:	78 88 00 0c 	BZ         @0x02007db8    // 2007db8 <__lo0bits+0x28>
 2007dac:	11 40 00 01 	LSR        $1,R2
 2007db0:	95 a0 8e 01 	SW         R2,(R4)        | LDI        $1,R1
 2007db4:	7b 40 00 00 	RTN
 2007db8:	11 40 00 02 	LSR        $2,R2
 2007dbc:	95 a0 8e 02 	SW         R2,(R4)        | LDI        $2,R1
 2007dc0:	7b 40 00 00 	RTN
 2007dc4:	e8 04 ad 00 	SUB        $4,SP          | SW         R5,(SP)
 2007dc8:	0b 40 80 00 	MOV        R2,R1
 2007dcc:	08 40 ff ff 	AND        $65535,R1
 2007dd0:	78 a8 00 0c 	BNZ        @0x02007de0    // 2007de0 <__lo0bits+0x50>
 2007dd4:	11 40 00 10 	LSR        $16,R2
 2007dd8:	ae 18 8e 10 	LDI        $24,R5         | LDI        $16,R1
 2007ddc:	78 80 00 04 	BRA        @0x02007de4    // 2007de4 <__lo0bits+0x54>
 2007de0:	ae 08 8f 98 	LDI        $8,R5          | MOV        R3,R1
 2007de4:	1b 40 80 00 	MOV        R2,R3
 2007de8:	18 40 00 ff 	AND        $255,R3
 2007dec:	78 a8 00 08 	BNZ        @0x02007df8    // 2007df8 <__lo0bits+0x68>
 2007df0:	11 40 00 08 	LSR        $8,R2
 2007df4:	0b 41 40 00 	MOV        R5,R1
 2007df8:	9f 90 99 0f 	MOV        R2,R3          | AND        $15,R3
 2007dfc:	78 a8 00 08 	BNZ        @0x02007e08    // 2007e08 <__lo0bits+0x78>
 2007e00:	08 80 00 04 	ADD        $4,R1
 2007e04:	11 40 00 04 	LSR        $4,R2
 2007e08:	9f 90 99 03 	MOV        R2,R3          | AND        $3,R3
 2007e0c:	78 a8 00 08 	BNZ        @0x02007e18    // 2007e18 <__lo0bits+0x88>
 2007e10:	08 80 00 02 	ADD        $2,R1
 2007e14:	11 40 00 02 	LSR        $2,R2
 2007e18:	9f 90 99 01 	MOV        R2,R3          | AND        $1,R3
 2007e1c:	78 a8 00 0c 	BNZ        @0x02007e2c    // 2007e2c <__lo0bits+0x9c>
 2007e20:	11 40 00 01 	LSR        $1,R2
 2007e24:	78 88 00 10 	BZ         @0x02007e38    // 2007e38 <__lo0bits+0xa8>
 2007e28:	08 80 00 01 	ADD        $1,R1
 2007e2c:	14 c5 00 00 	SW         R2,(R4)
 2007e30:	78 80 00 08 	BRA        @0x02007e3c    // 2007e3c <__lo0bits+0xac>
 2007e34:	8e 00 ff 80 	CLR        R1             | RTN
 2007e38:	0e 00 00 20 	LDI        $32,R1
 2007e3c:	ac 00 ea 04 	LW         (SP),R5        | ADD        $4,SP
 2007e40:	7b 40 00 00 	RTN
 2007e44:	78 83 ff 7c 	BRA        @0x02007dc4    // 2007dc4 <__lo0bits+0x34>

02007e48 <__i2b>:
 2007e48:	e8 0c 85 00 	SUB        $12,SP         | SW         R0,(SP)
 2007e4c:	ad 04 b5 08 	SW         R5,$4(SP)      | SW         R6,$8(SP)
 2007e50:	af 88 b7 90 	MOV        R1,R5          | MOV        R2,R6
 2007e54:	14 84 40 4c 	LW         76(R1),R2
 2007e58:	14 00 00 00 	CMP        $0,R2
 2007e5c:	78 a8 00 1c 	BNZ        @0x02007e7c    // 2007e7c <__i2b+0x34>
 2007e60:	9e 21 96 04 	LDI        $33,R3         | LDI        $4,R2
 2007e64:	87 fa fc f8 	JSR        0x0200b588     // 200b588 <_calloc_r>
 2007e68:	02 00 b5 88 
 2007e6c:	0c c5 40 4c 	SW         R1,$76(R5)
 2007e70:	0c 00 00 00 	CMP        $0,R1
 2007e74:	78 88 00 5c 	BZ         @0x02007ed4    // 2007ed4 <__i2b+0x8c>
 2007e78:	13 40 40 00 	MOV        R1,R2
 2007e7c:	0c 84 80 04 	LW         4(R2),R1
 2007e80:	0c 00 00 00 	CMP        $0,R1
 2007e84:	78 88 00 0c 	BZ         @0x02007e94    // 2007e94 <__i2b+0x4c>
 2007e88:	1c 84 40 00 	LW         (R1),R3
 2007e8c:	1c c4 80 04 	SW         R3,$4(R2)
 2007e90:	78 80 00 28 	BRA        @0x02007ebc    // 2007ebc <__i2b+0x74>
 2007e94:	9e 1c 96 01 	LDI        $28,R3         | LDI        $1,R2
 2007e98:	0b 41 40 00 	MOV        R5,R1
 2007e9c:	87 fa fc f8 	JSR        0x0200b588     // 200b588 <_calloc_r>
 2007ea0:	02 00 b5 88 
 2007ea4:	0c 00 00 00 	CMP        $0,R1
 2007ea8:	78 88 00 28 	BZ         @0x02007ed4    // 2007ed4 <__i2b+0x8c>
 2007eac:	16 00 00 01 	LDI        $1,R2
 2007eb0:	14 c4 40 04 	SW         R2,$4(R1)
 2007eb4:	1e 00 00 02 	LDI        $2,R3
 2007eb8:	1c c4 40 08 	SW         R3,$8(R1)
 2007ebc:	16 00 00 00 	CLR        R2
 2007ec0:	14 c4 40 0c 	SW         R2,$12(R1)
 2007ec4:	34 c4 40 14 	SW         R6,$20(R1)
 2007ec8:	1e 00 00 01 	LDI        $1,R3
 2007ecc:	1c c4 40 10 	SW         R3,$16(R1)
 2007ed0:	78 80 00 0c 	BRA        @0x02007ee0    // 2007ee0 <__i2b+0x98>
 2007ed4:	06 00 00 00 	CLR        R0
 2007ed8:	04 c0 00 14 	SW         R0,($20)
 2007edc:	7f 00 00 00 	BREAK      @0x02007ee0    // 2007ee0 <__i2b+0x98>
 2007ee0:	84 00 ac 04 	LW         (SP),R0        | LW         4(SP),R5
 2007ee4:	b4 08 ea 0c 	LW         8(SP),R6       | ADD        $12,SP
 2007ee8:	7b 40 00 00 	RTN

02007eec <__multiply>:
 2007eec:	e8 34 85 10 	SUB        $52,SP         | SW         R0,$16(SP)
 2007ef0:	ad 14 b5 18 	SW         R5,$20(SP)     | SW         R6,$24(SP)
 2007ef4:	bd 1c c5 20 	SW         R7,$28(SP)     | SW         R8,$32(SP)
 2007ef8:	cd 24 d5 28 	SW         R9,$36(SP)     | SW         R10,$40(SP)
 2007efc:	dd 2c e5 30 	SW         R11,$44(SP)    | SW         R12,$48(SP)
 2007f00:	d7 88 bf 90 	MOV        R1,R10         | MOV        R2,R7
 2007f04:	5b 40 c0 00 	MOV        R3,R11
 2007f08:	34 84 80 10 	LW         16(R2),R6
 2007f0c:	2c 84 c0 10 	LW         16(R3),R5
 2007f10:	34 05 40 00 	CMP        R5,R6
 2007f14:	0b 51 80 00 	MOV.LT     R6,R1
 2007f18:	33 51 40 00 	MOV.LT     R5,R6
 2007f1c:	2b 50 40 00 	MOV.LT     R1,R5
 2007f20:	0b 50 80 00 	MOV.LT     R2,R1
 2007f24:	3b 50 c0 00 	MOV.LT     R3,R7
 2007f28:	5b 50 40 00 	MOV.LT     R1,R11
 2007f2c:	44 85 c0 04 	LW         4(R7),R8
 2007f30:	cf b0 ca a8 	MOV        R6,R9          | ADD        R5,R9
 2007f34:	0c 85 c0 08 	LW         8(R7),R1
 2007f38:	0c 06 40 00 	CMP        R9,R1
 2007f3c:	78 b0 00 04 	BGE        @0x02007f44    // 2007f44 <__multiply+0x58>
 2007f40:	40 80 00 01 	ADD        $1,R8
 2007f44:	0c 86 80 4c 	LW         76(R10),R1
 2007f48:	0c 00 00 00 	CMP        $0,R1
 2007f4c:	78 a8 00 28 	BNZ        @0x02007f78    // 2007f78 <__multiply+0x8c>
 2007f50:	9e 21 96 04 	LDI        $33,R3         | LDI        $4,R2
 2007f54:	0b 42 80 00 	MOV        R10,R1
 2007f58:	87 fa fc f8 	JSR        0x0200b588     // 200b588 <_calloc_r>
 2007f5c:	02 00 b5 88 
 2007f60:	0c c6 80 4c 	SW         R1,$76(R10)
 2007f64:	0c 00 00 00 	CMP        $0,R1
 2007f68:	78 a8 00 0c 	BNZ        @0x02007f78    // 2007f78 <__multiply+0x8c>
 2007f6c:	8e 00 8d 04 	CLR        R1             | SW         R1,$4(SP)
 2007f70:	66 00 00 00 	CLR        R12
 2007f74:	78 80 00 5c 	BRA        @0x02007fd4    // 2007fd4 <__multiply+0xe8>
 2007f78:	13 42 00 00 	MOV        R8,R2
 2007f7c:	11 80 00 02 	LSL        $2,R2
 2007f80:	8a 90 94 88 	ADD        R2,R1          | LW         (R1),R2
 2007f84:	95 04 93 00 	SW         R2,$4(SP)      | CMP        $0,R2
 2007f88:	78 88 00 0c 	BZ         @0x02007f98    // 2007f98 <__multiply+0xac>
 2007f8c:	9c 90 9d 88 	LW         (R2),R3        | SW         R3,(R1)
 2007f90:	0b 40 80 00 	MOV        R2,R1
 2007f94:	78 80 00 2c 	BRA        @0x02007fc4    // 2007fc4 <__multiply+0xd8>
 2007f98:	96 01 e6 01 	LDI        $1,R2          | LDI        $1,R12
 2007f9c:	61 86 00 00 	LSL        R8,R12
 2007fa0:	9f e0 9a 05 	MOV        R12,R3         | ADD        $5,R3
 2007fa4:	19 80 00 02 	LSL        $2,R3
 2007fa8:	0b 42 80 00 	MOV        R10,R1
 2007fac:	87 fa fc f8 	JSR        0x0200b588     // 200b588 <_calloc_r>
 2007fb0:	02 00 b5 88 
 2007fb4:	8d 04 8b 00 	SW         R1,$4(SP)      | CMP        $0,R1
 2007fb8:	78 8b ff b0 	BZ         @0x02007f6c    // 2007f6c <__multiply+0x80>
 2007fbc:	44 c4 40 04 	SW         R8,$4(R1)
 2007fc0:	64 c4 40 08 	SW         R12,$8(R1)
 2007fc4:	16 00 00 00 	CLR        R2
 2007fc8:	14 c4 40 10 	SW         R2,$16(R1)
 2007fcc:	14 c4 40 0c 	SW         R2,$12(R1)
 2007fd0:	63 40 40 00 	MOV        R1,R12
 2007fd4:	e2 14 8f c8 	ADD        $20,R12        | MOV        R9,R1
 2007fd8:	09 80 00 02 	LSL        $2,R1
 2007fdc:	97 e0 92 88 	MOV        R12,R2         | ADD        R1,R2
 2007fe0:	95 08 8f e0 	SW         R2,$8(SP)      | MOV        R12,R1
 2007fe4:	64 04 80 00 	CMP        R2,R12
 2007fe8:	78 98 00 24 	BC         @0x02008010    // 2008010 <__multiply+0x124>
 2007fec:	ba 14 bd 00 	ADD        $20,R7         | SW         R7,(SP)
 2007ff0:	31 80 00 02 	LSL        $2,R6
 2007ff4:	c7 b8 c2 b0 	MOV        R7,R8          | ADD        R6,R8
 2007ff8:	58 80 00 14 	ADD        $20,R11
 2007ffc:	29 80 00 02 	LSL        $2,R5
 2008000:	d7 d8 d2 a8 	MOV        R11,R10        | ADD        R5,R10
 2008004:	5c 06 80 00 	CMP        R10,R11
 2008008:	78 98 00 20 	BC         @0x0200802c    // 200802c <__multiply+0x140>
 200800c:	78 80 00 10 	BRA        @0x02008020    // 2008020 <__multiply+0x134>
 2008010:	9e 00 9d 88 	CLR        R3             | SW         R3,(R1)
 2008014:	8a 04 8b 90 	ADD        $4,R1          | CMP        R2,R1
 2008018:	78 9b ff f4 	BC         @0x02008010    // 2008010 <__multiply+0x124>
 200801c:	78 83 ff cc 	BRA        @0x02007fec    // 2007fec <__multiply+0x100>
 2008020:	4c 00 00 01 	CMP        $1,R9
 2008024:	78 b0 00 f8 	BGE        @0x02008120    // 2008120 <__multiply+0x234>
 2008028:	78 80 01 1c 	BRA        @0x02008148    // 2008148 <__multiply+0x25c>
 200802c:	4c c7 40 0c 	SW         R9,$12(SP)
 2008030:	8c d8 b7 88 	LW         (R11),R1       | MOV        R1,R6
 2008034:	30 40 ff ff 	AND        $65535,R6
 2008038:	78 88 00 60 	BZ         @0x0200809c    // 200809c <__multiply+0x1b0>
 200803c:	a7 e0 ac 00 	MOV        R12,R4         | LW         (SP),R5
 2008040:	3e 00 00 00 	CLR        R7
 2008044:	8c a8 9c a0 	LW         (R5),R1        | LW         (R4),R3
 2008048:	13 40 40 00 	MOV        R1,R2
 200804c:	10 40 ff ff 	AND        $65535,R2
 2008050:	13 05 80 00 	MPY        R6,R2
 2008054:	4b 40 c0 00 	MOV        R3,R9
 2008058:	48 40 ff ff 	AND        $65535,R9
 200805c:	92 c8 92 b8 	ADD        R9,R2          | ADD        R7,R2
 2008060:	28 80 00 04 	ADD        $4,R5
 2008064:	09 40 00 10 	LSR        $16,R1
 2008068:	0b 05 80 00 	MPY        R6,R1
 200806c:	19 40 00 10 	LSR        $16,R3
 2008070:	8a 98 9f 90 	ADD        R3,R1          | MOV        R2,R3
 2008074:	19 40 00 10 	LSR        $16,R3
 2008078:	8a 98 bf 88 	ADD        R3,R1          | MOV        R1,R7
 200807c:	39 40 00 10 	LSR        $16,R7
 2008080:	20 80 00 04 	ADD        $4,R4
 2008084:	09 80 00 10 	LSL        $16,R1
 2008088:	10 40 ff ff 	AND        $65535,R2
 200808c:	08 c4 80 00 	OR         R2,R1
 2008090:	8d a4 ab c0 	SW         R1,$-4(R4)     | CMP        R8,R5
 2008094:	78 9b ff ac 	BC         @0x02008044    // 2008044 <__multiply+0x158>
 2008098:	bd a0 8c d8 	SW         R7,(R4)        | LW         (R11),R1
 200809c:	33 40 40 00 	MOV        R1,R6
 20080a0:	31 40 00 10 	LSR        $16,R6
 20080a4:	78 88 00 64 	BZ         @0x0200810c    // 200810c <__multiply+0x220>
 20080a8:	8c e0 a7 88 	LW         (R12),R1       | MOV        R1,R4
 20080ac:	af e0 9c 00 	MOV        R12,R5         | LW         (SP),R3
 20080b0:	3e 00 00 00 	CLR        R7
 20080b4:	13 41 80 00 	MOV        R6,R2
 20080b8:	4d 04 c0 02 	LH         2(R3),R9
 20080bc:	13 06 40 00 	MPY        R9,R2
 20080c0:	21 40 00 10 	LSR        $16,R4
 20080c4:	92 a0 92 b8 	ADD        R4,R2          | ADD        R7,R2
 20080c8:	aa 04 a7 90 	ADD        $4,R5          | MOV        R2,R4
 20080cc:	21 80 00 10 	LSL        $16,R4
 20080d0:	08 40 ff ff 	AND        $65535,R1
 20080d4:	20 c4 40 00 	OR         R1,R4
 20080d8:	a5 ac 9a 04 	SW         R4,$-4(R5)     | ADD        $4,R3
 20080dc:	a4 a8 8f b0 	LW         (R5),R4        | MOV        R6,R1
 20080e0:	3d 04 ff fc 	LH         -4(R3),R7
 20080e4:	0b 05 c0 00 	MPY        R7,R1
 20080e8:	3b 41 00 00 	MOV        R4,R7
 20080ec:	38 40 ff ff 	AND        $65535,R7
 20080f0:	08 85 c0 00 	ADD        R7,R1
 20080f4:	11 40 00 10 	LSR        $16,R2
 20080f8:	8a 90 bf 88 	ADD        R2,R1          | MOV        R1,R7
 20080fc:	39 40 00 10 	LSR        $16,R7
 2008100:	1c 06 00 00 	CMP        R8,R3
 2008104:	78 9b ff ac 	BC         @0x020080b4    // 20080b4 <__multiply+0x1c8>
 2008108:	0c c5 40 00 	SW         R1,(R5)
 200810c:	da 04 e2 04 	ADD        $4,R11         | ADD        $4,R12
 2008110:	5c 06 80 00 	CMP        R10,R11
 2008114:	78 9b ff 18 	BC         @0x02008030    // 2008030 <__multiply+0x144>
 2008118:	4c 87 40 0c 	LW         12(SP),R9
 200811c:	78 83 ff 00 	BRA        @0x02008020    // 2008020 <__multiply+0x134>
 2008120:	8c 08 8a 7c 	LW         8(SP),R1       | ADD        $-4,R1
 2008124:	9c 08 94 9c 	LW         8(SP),R3       | LW         -4(R3),R2
 2008128:	14 00 00 00 	CMP        $0,R2
 200812c:	78 a8 00 18 	BNZ        @0x02008148    // 2008148 <__multiply+0x25c>
 2008130:	48 83 ff ff 	ADD        $-1,R9
 2008134:	78 88 00 10 	BZ         @0x02008148    // 2008148 <__multiply+0x25c>
 2008138:	8a 7c 94 88 	ADD        $-4,R1         | LW         (R1),R2
 200813c:	14 00 00 00 	CMP        $0,R2
 2008140:	78 8b ff ec 	BZ         @0x02008130    // 2008130 <__multiply+0x244>
 2008144:	78 80 00 00 	BRA        @0x02008148    // 2008148 <__multiply+0x25c>
 2008148:	3c 87 40 04 	LW         4(SP),R7
 200814c:	4c c5 c0 10 	SW         R9,$16(R7)
 2008150:	8f b8 84 10 	MOV        R7,R1          | LW         16(SP),R0
 2008154:	ac 14 b4 18 	LW         20(SP),R5      | LW         24(SP),R6
 2008158:	bc 1c c4 20 	LW         28(SP),R7      | LW         32(SP),R8
 200815c:	cc 24 d4 28 	LW         36(SP),R9      | LW         40(SP),R10
 2008160:	dc 2c e4 30 	LW         44(SP),R11     | LW         48(SP),R12
 2008164:	ea 34 ff 80 	ADD        $52,SP         | RTN

02008168 <__pow5mult>:
 2008168:	e8 24 85 00 	SUB        $36,SP         | SW         R0,(SP)
 200816c:	ad 04 b5 08 	SW         R5,$4(SP)      | SW         R6,$8(SP)
 2008170:	bd 0c c5 10 	SW         R7,$12(SP)     | SW         R8,$16(SP)
 2008174:	cd 14 d5 18 	SW         R9,$20(SP)     | SW         R10,$24(SP)
 2008178:	dd 1c e5 20 	SW         R11,$28(SP)    | SW         R12,$32(SP)
 200817c:	bf 88 b7 90 	MOV        R1,R7          | MOV        R2,R6
 2008180:	af 98 97 98 	MOV        R3,R5          | MOV        R3,R2
 2008184:	10 40 00 03 	AND        $3,R2
 2008188:	78 88 01 48 	BZ         @0x020082d4    // 20082d4 <__pow5mult+0x16c>
 200818c:	44 85 80 10 	LW         16(R6),R8
 2008190:	8f b0 8a 14 	MOV        R6,R1          | ADD        $20,R1
 2008194:	10 83 ff ff 	ADD        $-1,R2
 2008198:	11 80 00 02 	LSL        $2,R2
 200819c:	1a 03 00 40 	LDI        0x0200e430,R3  // 200e430 <p05.3316>
 20081a0:	1a 40 e4 30 
 20081a4:	9a 90 d4 98 	ADD        R2,R3          | LW         (R3),R10
 20081a8:	96 00 a6 00 	CLR        R2             | CLR        R4
 20081ac:	9c 88 df 98 	LW         (R1),R3        | MOV        R3,R11
 20081b0:	58 40 ff ff 	AND        $65535,R11
 20081b4:	5b 06 80 00 	MPY        R10,R11
 20081b8:	58 85 00 00 	ADD        R4,R11
 20081bc:	19 40 00 10 	LSR        $16,R3
 20081c0:	1b 06 80 00 	MPY        R10,R3
 20081c4:	23 42 c0 00 	MOV        R11,R4
 20081c8:	21 40 00 10 	LSR        $16,R4
 20081cc:	9a a0 cf 98 	ADD        R4,R3          | MOV        R3,R9
 20081d0:	49 40 00 10 	LSR        $16,R9
 20081d4:	a7 c8 8a 04 	MOV        R9,R4          | ADD        $4,R1
 20081d8:	19 80 00 10 	LSL        $16,R3
 20081dc:	58 40 ff ff 	AND        $65535,R11
 20081e0:	9a d8 9d 8c 	ADD        R11,R3         | SW         R3,$-4(R1)
 20081e4:	92 01 93 c0 	ADD        $1,R2          | CMP        R8,R2
 20081e8:	78 93 ff c0 	BLT        @0x020081ac    // 20081ac <__pow5mult+0x44>
 20081ec:	4c 00 00 00 	CMP        $0,R9
 20081f0:	78 88 00 e0 	BZ         @0x020082d4    // 20082d4 <__pow5mult+0x16c>
 20081f4:	0c 85 80 08 	LW         8(R6),R1
 20081f8:	44 04 40 00 	CMP        R1,R8
 20081fc:	78 90 00 c0 	BLT        @0x020082c0    // 20082c0 <__pow5mult+0x158>
 2008200:	5c 85 80 04 	LW         4(R6),R11
 2008204:	58 80 00 01 	ADD        $1,R11
 2008208:	0c 85 c0 4c 	LW         76(R7),R1
 200820c:	0c 00 00 00 	CMP        $0,R1
 2008210:	78 a8 00 24 	BNZ        @0x02008238    // 2008238 <__pow5mult+0xd0>
 2008214:	9e 21 96 04 	LDI        $33,R3         | LDI        $4,R2
 2008218:	0b 41 c0 00 	MOV        R7,R1
 200821c:	87 fa fc f8 	JSR        0x0200b588     // 200b588 <_calloc_r>
 2008220:	02 00 b5 88 
 2008224:	0c c5 c0 4c 	SW         R1,$76(R7)
 2008228:	0c 00 00 00 	CMP        $0,R1
 200822c:	78 a8 00 08 	BNZ        @0x02008238    // 2008238 <__pow5mult+0xd0>
 2008230:	56 00 00 00 	CLR        R10
 2008234:	78 80 00 54 	BRA        @0x0200828c    // 200828c <__pow5mult+0x124>
 2008238:	13 42 c0 00 	MOV        R11,R2
 200823c:	11 80 00 02 	LSL        $2,R2
 2008240:	8a 90 d4 88 	ADD        R2,R1          | LW         (R1),R10
 2008244:	54 00 00 00 	CMP        $0,R10
 2008248:	78 88 00 08 	BZ         @0x02008254    // 2008254 <__pow5mult+0xec>
 200824c:	84 d0 85 88 	LW         (R10),R0       | SW         R0,(R1)
 2008250:	78 80 00 2c 	BRA        @0x02008280    // 2008280 <__pow5mult+0x118>
 2008254:	96 01 e6 01 	LDI        $1,R2          | LDI        $1,R12
 2008258:	61 86 c0 00 	LSL        R11,R12
 200825c:	9f e0 9a 05 	MOV        R12,R3         | ADD        $5,R3
 2008260:	19 80 00 02 	LSL        $2,R3
 2008264:	0b 41 c0 00 	MOV        R7,R1
 2008268:	87 fa fc f8 	JSR        0x0200b588     // 200b588 <_calloc_r>
 200826c:	02 00 b5 88 
 2008270:	d7 88 8b 00 	MOV        R1,R10         | CMP        $0,R1
 2008274:	78 8b ff b8 	BZ         @0x02008230    // 2008230 <__pow5mult+0xc8>
 2008278:	5c c4 40 04 	SW         R11,$4(R1)
 200827c:	64 c4 40 08 	SW         R12,$8(R1)
 2008280:	0e 00 00 00 	CLR        R1
 2008284:	0c c6 80 10 	SW         R1,$16(R10)
 2008288:	0c c6 80 0c 	SW         R1,$12(R10)
 200828c:	1c 85 80 10 	LW         16(R6),R3
 2008290:	18 80 00 02 	ADD        $2,R3
 2008294:	19 80 00 02 	LSL        $2,R3
 2008298:	13 41 80 0c 	MOV        $12+R6,R2
 200829c:	0b 42 80 0c 	MOV        $12+R10,R1
 20082a0:	87 fa fc f8 	JSR        0x02001354     // 2001354 <memcpy>
 20082a4:	02 00 13 54 
 20082a8:	14 85 80 04 	LW         4(R6),R2
 20082ac:	11 80 00 02 	LSL        $2,R2
 20082b0:	0c 85 c0 4c 	LW         76(R7),R1
 20082b4:	8a 90 94 88 	ADD        R2,R1          | LW         (R1),R2
 20082b8:	95 b0 b5 88 	SW         R2,(R6)        | SW         R6,(R1)
 20082bc:	33 42 80 00 	MOV        R10,R6
 20082c0:	8f c0 8a 05 	MOV        R8,R1          | ADD        $5,R1
 20082c4:	09 80 00 02 	LSL        $2,R1
 20082c8:	9f b0 9a 88 	MOV        R6,R3          | ADD        R1,R3
 20082cc:	cd 98 c2 01 	SW         R9,(R3)        | ADD        $1,R8
 20082d0:	44 c5 80 10 	SW         R8,$16(R6)
 20082d4:	29 c0 00 02 	ASR        $2,R5
 20082d8:	78 88 01 08 	BZ         @0x020083e4    // 20083e4 <__pow5mult+0x27c>
 20082dc:	44 85 c0 48 	LW         72(R7),R8
 20082e0:	44 00 00 00 	CMP        $0,R8
 20082e4:	78 a8 00 88 	BNZ        @0x02008370    // 2008370 <__pow5mult+0x208>
 20082e8:	0c 85 c0 4c 	LW         76(R7),R1
 20082ec:	0c 00 00 00 	CMP        $0,R1
 20082f0:	78 a8 00 1c 	BNZ        @0x02008310    // 2008310 <__pow5mult+0x1a8>
 20082f4:	9e 21 96 04 	LDI        $33,R3         | LDI        $4,R2
 20082f8:	0b 41 c0 00 	MOV        R7,R1
 20082fc:	87 fa fc f8 	JSR        0x0200b588     // 200b588 <_calloc_r>
 2008300:	02 00 b5 88 
 2008304:	0c c5 c0 4c 	SW         R1,$76(R7)
 2008308:	0c 00 00 00 	CMP        $0,R1
 200830c:	78 88 00 d8 	BZ         @0x020083e8    // 20083e8 <__pow5mult+0x280>
 2008310:	44 84 40 04 	LW         4(R1),R8
 2008314:	44 00 00 00 	CMP        $0,R8
 2008318:	78 88 00 0c 	BZ         @0x02008328    // 2008328 <__pow5mult+0x1c0>
 200831c:	14 86 00 00 	LW         (R8),R2
 2008320:	14 c4 40 04 	SW         R2,$4(R1)
 2008324:	78 80 00 28 	BRA        @0x02008350    // 2008350 <__pow5mult+0x1e8>
 2008328:	9e 1c 96 01 	LDI        $28,R3         | LDI        $1,R2
 200832c:	0b 41 c0 00 	MOV        R7,R1
 2008330:	87 fa fc f8 	JSR        0x0200b588     // 200b588 <_calloc_r>
 2008334:	02 00 b5 88 
 2008338:	c7 88 8b 00 	MOV        R1,R8          | CMP        $0,R1
 200833c:	78 88 00 a8 	BZ         @0x020083e8    // 20083e8 <__pow5mult+0x280>
 2008340:	1e 00 00 01 	LDI        $1,R3
 2008344:	1c c4 40 04 	SW         R3,$4(R1)
 2008348:	0e 00 00 02 	LDI        $2,R1
 200834c:	0c c6 00 08 	SW         R1,$8(R8)
 2008350:	16 00 00 00 	CLR        R2
 2008354:	14 c6 00 0c 	SW         R2,$12(R8)
 2008358:	1e 00 02 71 	LDI        $625,R3
 200835c:	1c c6 00 14 	SW         R3,$20(R8)
 2008360:	0e 00 00 01 	LDI        $1,R1
 2008364:	0c c6 00 10 	SW         R1,$16(R8)
 2008368:	44 c5 c0 48 	SW         R8,$72(R7)
 200836c:	14 c6 00 00 	SW         R2,(R8)
 2008370:	78 80 00 04 	BRA        @0x02008378    // 2008378 <__pow5mult+0x210>
 2008374:	43 40 40 00 	MOV        R1,R8
 2008378:	8f a8 89 01 	MOV        R5,R1          | AND        $1,R1
 200837c:	78 88 00 38 	BZ         @0x020083b8    // 20083b8 <__pow5mult+0x250>
 2008380:	9f c0 97 b0 	MOV        R8,R3          | MOV        R6,R2
 2008384:	0b 41 c0 00 	MOV        R7,R1
 2008388:	87 fa fc f8 	JSR        0x02007eec     // 2007eec <__multiply>
 200838c:	02 00 7e ec 
 2008390:	34 00 00 00 	CMP        $0,R6
 2008394:	78 88 00 1c 	BZ         @0x020083b4    // 20083b4 <__pow5mult+0x24c>
 2008398:	1c 85 80 04 	LW         4(R6),R3
 200839c:	19 80 00 02 	LSL        $2,R3
 20083a0:	14 85 c0 4c 	LW         76(R7),R2
 20083a4:	92 98 9c 90 	ADD        R3,R2          | LW         (R2),R3
 20083a8:	9d b0 b5 90 	SW         R3,(R6)        | SW         R6,(R2)
 20083ac:	33 40 40 00 	MOV        R1,R6
 20083b0:	78 80 00 04 	BRA        @0x020083b8    // 20083b8 <__pow5mult+0x250>
 20083b4:	33 40 40 00 	MOV        R1,R6
 20083b8:	29 c0 00 01 	ASR        $1,R5
 20083bc:	78 88 00 34 	BZ         @0x020083f4    // 20083f4 <__pow5mult+0x28c>
 20083c0:	8c c0 8b 00 	LW         (R8),R1        | CMP        $0,R1
 20083c4:	78 ab ff ac 	BNZ        @0x02008374    // 2008374 <__pow5mult+0x20c>
 20083c8:	9f c0 97 c0 	MOV        R8,R3          | MOV        R8,R2
 20083cc:	0b 41 c0 00 	MOV        R7,R1
 20083d0:	87 fa fc f8 	JSR        0x02007eec     // 2007eec <__multiply>
 20083d4:	02 00 7e ec 
 20083d8:	8d c0 96 00 	SW         R1,(R8)        | CLR        R2
 20083dc:	14 c4 40 00 	SW         R2,(R1)
 20083e0:	78 83 ff 90 	BRA        @0x02008374    // 2008374 <__pow5mult+0x20c>
 20083e4:	78 80 00 0c 	BRA        @0x020083f4    // 20083f4 <__pow5mult+0x28c>
 20083e8:	1e 00 00 00 	CLR        R3
 20083ec:	1c c0 00 14 	SW         R3,($20)
 20083f0:	7f 00 00 00 	BREAK      @0x020083f4    // 20083f4 <__pow5mult+0x28c>
 20083f4:	8f b0 84 00 	MOV        R6,R1          | LW         (SP),R0
 20083f8:	ac 04 b4 08 	LW         4(SP),R5       | LW         8(SP),R6
 20083fc:	bc 0c c4 10 	LW         12(SP),R7      | LW         16(SP),R8
 2008400:	cc 14 d4 18 	LW         20(SP),R9      | LW         24(SP),R10
 2008404:	dc 1c e4 20 	LW         28(SP),R11     | LW         32(SP),R12
 2008408:	ea 24 ff 80 	ADD        $36,SP         | RTN

0200840c <__lshift>:
 200840c:	e8 24 85 00 	SUB        $36,SP         | SW         R0,(SP)
 2008410:	ad 04 b5 08 	SW         R5,$4(SP)      | SW         R6,$8(SP)
 2008414:	bd 0c c5 10 	SW         R7,$12(SP)     | SW         R8,$16(SP)
 2008418:	cd 14 d5 18 	SW         R9,$20(SP)     | SW         R10,$24(SP)
 200841c:	dd 1c e5 20 	SW         R11,$28(SP)    | SW         R12,$32(SP)
 2008420:	c7 88 bf 90 	MOV        R1,R8          | MOV        R2,R7
 2008424:	af 98 d7 98 	MOV        R3,R5          | MOV        R3,R10
 2008428:	51 c0 00 05 	ASR        $5,R10
 200842c:	5c 84 80 04 	LW         4(R2),R11
 2008430:	0c 84 80 10 	LW         16(R2),R1
 2008434:	cf d0 ca 88 	MOV        R10,R9         | ADD        R1,R9
 2008438:	b7 c8 b2 01 	MOV        R9,R6          | ADD        $1,R6
 200843c:	0c 84 80 08 	LW         8(R2),R1
 2008440:	0c 05 80 00 	CMP        R6,R1
 2008444:	78 b0 00 0c 	BGE        @0x02008454    // 2008454 <__lshift+0x48>
 2008448:	da 01 8a 88 	ADD        $1,R11         | ADD        R1,R1
 200844c:	0c 05 80 00 	CMP        R6,R1
 2008450:	78 93 ff f4 	BLT        @0x02008448    // 2008448 <__lshift+0x3c>
 2008454:	0c 86 00 4c 	LW         76(R8),R1
 2008458:	0c 00 00 00 	CMP        $0,R1
 200845c:	78 a8 00 24 	BNZ        @0x02008484    // 2008484 <__lshift+0x78>
 2008460:	9e 21 96 04 	LDI        $33,R3         | LDI        $4,R2
 2008464:	0b 42 00 00 	MOV        R8,R1
 2008468:	87 fa fc f8 	JSR        0x0200b588     // 200b588 <_calloc_r>
 200846c:	02 00 b5 88 
 2008470:	0c c6 00 4c 	SW         R1,$76(R8)
 2008474:	0c 00 00 00 	CMP        $0,R1
 2008478:	78 a8 00 08 	BNZ        @0x02008484    // 2008484 <__lshift+0x78>
 200847c:	0e 00 00 00 	CLR        R1
 2008480:	78 80 00 54 	BRA        @0x020084d8    // 20084d8 <__lshift+0xcc>
 2008484:	13 42 c0 00 	MOV        R11,R2
 2008488:	11 80 00 02 	LSL        $2,R2
 200848c:	8a 90 97 88 	ADD        R2,R1          | MOV        R1,R2
 2008490:	8c 88 8b 00 	LW         (R1),R1        | CMP        $0,R1
 2008494:	78 88 00 08 	BZ         @0x020084a0    // 20084a0 <__lshift+0x94>
 2008498:	9c 88 9d 90 	LW         (R1),R3        | SW         R3,(R2)
 200849c:	78 80 00 2c 	BRA        @0x020084cc    // 20084cc <__lshift+0xc0>
 20084a0:	96 01 e6 01 	LDI        $1,R2          | LDI        $1,R12
 20084a4:	61 86 c0 00 	LSL        R11,R12
 20084a8:	9f e0 9a 05 	MOV        R12,R3         | ADD        $5,R3
 20084ac:	19 80 00 02 	LSL        $2,R3
 20084b0:	0b 42 00 00 	MOV        R8,R1
 20084b4:	87 fa fc f8 	JSR        0x0200b588     // 200b588 <_calloc_r>
 20084b8:	02 00 b5 88 
 20084bc:	0c 00 00 00 	CMP        $0,R1
 20084c0:	78 8b ff b8 	BZ         @0x0200847c    // 200847c <__lshift+0x70>
 20084c4:	5c c4 40 04 	SW         R11,$4(R1)
 20084c8:	64 c4 40 08 	SW         R12,$8(R1)
 20084cc:	16 00 00 00 	CLR        R2
 20084d0:	14 c4 40 10 	SW         R2,$16(R1)
 20084d4:	14 c4 40 0c 	SW         R2,$12(R1)
 20084d8:	97 88 92 14 	MOV        R1,R2          | ADD        $20,R2
 20084dc:	a7 90 d3 01 	MOV        R2,R4          | CMP        $1,R10
 20084e0:	78 90 00 18 	BLT        @0x020084fc    // 20084fc <__lshift+0xf0>
 20084e4:	51 80 00 02 	LSL        $2,R10
 20084e8:	a7 90 a2 d0 	MOV        R2,R4          | ADD        R10,R4
 20084ec:	92 04 9e 00 	ADD        $4,R2          | CLR        R3
 20084f0:	9d 94 93 a0 	SW         R3,$-4(R2)     | CMP        R4,R2
 20084f4:	78 ab ff f4 	BNZ        @0x020084ec    // 20084ec <__lshift+0xe0>
 20084f8:	78 80 00 00 	BRA        @0x020084fc    // 20084fc <__lshift+0xf0>
 20084fc:	97 b8 92 14 	MOV        R7,R2          | ADD        $20,R2
 2008500:	1c 85 c0 10 	LW         16(R7),R3
 2008504:	19 80 00 02 	LSL        $2,R3
 2008508:	d7 90 d2 98 	MOV        R2,R10         | ADD        R3,R10
 200850c:	9f d0 d7 a8 	MOV        R10,R3         | MOV        R5,R10
 2008510:	50 40 00 1f 	AND        $31,R10
 2008514:	78 88 00 38 	BZ         @0x02008550    // 2008550 <__lshift+0x144>
 2008518:	de 20 d8 d0 	LDI        $32,R11        | SUB        R10,R11
 200851c:	66 00 00 00 	CLR        R12
 2008520:	a2 04 ac 90 	ADD        $4,R4          | LW         (R2),R5
 2008524:	29 86 80 00 	LSL        R10,R5
 2008528:	28 c7 00 00 	OR         R12,R5
 200852c:	ad a4 e4 90 	SW         R5,$-4(R4)     | LW         (R2),R12
 2008530:	10 80 00 04 	ADD        $4,R2
 2008534:	61 46 c0 00 	LSR        R11,R12
 2008538:	14 04 c0 00 	CMP        R3,R2
 200853c:	78 9b ff e0 	BC         @0x02008520    // 2008520 <__lshift+0x114>
 2008540:	e5 a0 e3 00 	SW         R12,(R4)       | CMP        $0,R12
 2008544:	78 88 00 18 	BZ         @0x02008560    // 2008560 <__lshift+0x154>
 2008548:	b7 c8 b2 02 	MOV        R9,R6          | ADD        $2,R6
 200854c:	78 80 00 10 	BRA        @0x02008560    // 2008560 <__lshift+0x154>
 2008550:	a2 04 ac 90 	ADD        $4,R4          | LW         (R2),R5
 2008554:	92 04 ad a4 	ADD        $4,R2          | SW         R5,$-4(R4)
 2008558:	14 04 c0 00 	CMP        R3,R2
 200855c:	78 9b ff f0 	BC         @0x02008550    // 2008550 <__lshift+0x144>
 2008560:	30 83 ff ff 	ADD        $-1,R6
 2008564:	34 c4 40 10 	SW         R6,$16(R1)
 2008568:	1c 85 c0 04 	LW         4(R7),R3
 200856c:	19 80 00 02 	LSL        $2,R3
 2008570:	14 86 00 4c 	LW         76(R8),R2
 2008574:	92 98 d4 90 	ADD        R3,R2          | LW         (R2),R10
 2008578:	d5 b8 bd 90 	SW         R10,(R7)       | SW         R7,(R2)
 200857c:	84 00 ac 04 	LW         (SP),R0        | LW         4(SP),R5
 2008580:	b4 08 bc 0c 	LW         8(SP),R6       | LW         12(SP),R7
 2008584:	c4 10 cc 14 	LW         16(SP),R8      | LW         20(SP),R9
 2008588:	d4 18 dc 1c 	LW         24(SP),R10     | LW         28(SP),R11
 200858c:	e4 20 ea 24 	LW         32(SP),R12     | ADD        $36,SP
 2008590:	7b 40 00 00 	RTN

02008594 <__mcmp>:
 2008594:	e8 08 ad 00 	SUB        $8,SP          | SW         R5,(SP)
 2008598:	b5 04 af 88 	SW         R6,$4(SP)      | MOV        R1,R5
 200859c:	0c 84 40 10 	LW         16(R1),R1
 20085a0:	1c 84 80 10 	LW         16(R2),R3
 20085a4:	08 04 c0 00 	SUB        R3,R1
 20085a8:	78 a8 00 3c 	BNZ        @0x020085e8    // 20085e8 <__mcmp+0x54>
 20085ac:	aa 14 a7 98 	ADD        $20,R5         | MOV        R3,R4
 20085b0:	21 80 00 02 	LSL        $2,R4
 20085b4:	9f a8 9a a0 	MOV        R5,R3          | ADD        R4,R3
 20085b8:	92 14 92 a0 	ADD        $20,R2         | ADD        R4,R2
 20085bc:	9a 7c 92 7c 	ADD        $-4,R3         | ADD        $-4,R2
 20085c0:	a4 90 b4 98 	LW         (R2),R4        | LW         (R3),R6
 20085c4:	34 05 00 00 	CMP        R4,R6
 20085c8:	78 88 00 0c 	BZ         @0x020085d8    // 20085d8 <__mcmp+0x44>
 20085cc:	78 98 00 14 	BC         @0x020085e4    // 20085e4 <__mcmp+0x50>
 20085d0:	0e 00 00 01 	LDI        $1,R1
 20085d4:	78 80 00 10 	BRA        @0x020085e8    // 20085e8 <__mcmp+0x54>
 20085d8:	2c 04 c0 00 	CMP        R3,R5
 20085dc:	78 9b ff dc 	BC         @0x020085bc    // 20085bc <__mcmp+0x28>
 20085e0:	78 80 00 04 	BRA        @0x020085e8    // 20085e8 <__mcmp+0x54>
 20085e4:	0e 7f ff ff 	LDI        $-1,R1
 20085e8:	ac 00 b4 04 	LW         (SP),R5        | LW         4(SP),R6
 20085ec:	ea 08 ff 80 	ADD        $8,SP          | RTN

020085f0 <__mdiff>:
 20085f0:	e8 24 85 00 	SUB        $36,SP         | SW         R0,(SP)
 20085f4:	ad 04 b5 08 	SW         R5,$4(SP)      | SW         R6,$8(SP)
 20085f8:	bd 0c c5 10 	SW         R7,$12(SP)     | SW         R8,$16(SP)
 20085fc:	cd 14 d5 18 	SW         R9,$20(SP)     | SW         R10,$24(SP)
 2008600:	dd 1c e5 20 	SW         R11,$28(SP)    | SW         R12,$32(SP)
 2008604:	c7 88 bf 90 	MOV        R1,R8          | MOV        R2,R7
 2008608:	33 40 c0 00 	MOV        R3,R6
 200860c:	2c 84 80 10 	LW         16(R2),R5
 2008610:	0c 84 c0 10 	LW         16(R3),R1
 2008614:	28 04 40 00 	SUB        R1,R5
 2008618:	78 a8 02 3c 	BNZ        @0x02008858    // 2008858 <__mdiff+0x268>
 200861c:	cf 90 ca 14 	MOV        R2,R9          | ADD        $20,R9
 2008620:	1b 40 40 00 	MOV        R1,R3
 2008624:	19 80 00 02 	LSL        $2,R3
 2008628:	8f c8 8a 98 	MOV        R9,R1          | ADD        R3,R1
 200862c:	97 b0 92 14 	MOV        R6,R2          | ADD        $20,R2
 2008630:	10 84 c0 00 	ADD        R3,R2
 2008634:	8a 7c a4 88 	ADD        $-4,R1         | LW         (R1),R4
 2008638:	92 7c 9c 90 	ADD        $-4,R2         | LW         (R2),R3
 200863c:	24 04 c0 00 	CMP        R3,R4
 2008640:	78 88 00 10 	BZ         @0x02008654    // 2008654 <__mdiff+0x64>
 2008644:	78 b8 00 8c 	BNC        @0x020086d4    // 20086d4 <__mdiff+0xe4>
 2008648:	8f b8 bf b0 	MOV        R7,R1          | MOV        R6,R7
 200864c:	b7 88 ae 01 	MOV        R1,R6          | LDI        $1,R5
 2008650:	78 80 00 80 	BRA        @0x020086d4    // 20086d4 <__mdiff+0xe4>
 2008654:	4c 04 40 00 	CMP        R1,R9
 2008658:	78 9b ff d8 	BC         @0x02008634    // 2008634 <__mdiff+0x44>
 200865c:	78 80 01 e8 	BRA        @0x02008848    // 2008848 <__mdiff+0x258>
 2008660:	9e 21 96 04 	LDI        $33,R3         | LDI        $4,R2
 2008664:	0b 42 00 00 	MOV        R8,R1
 2008668:	87 fa fc f8 	JSR        0x0200b588     // 200b588 <_calloc_r>
 200866c:	02 00 b5 88 
 2008670:	0c c6 00 4c 	SW         R1,$76(R8)
 2008674:	0c 00 00 00 	CMP        $0,R1
 2008678:	78 88 01 ec 	BZ         @0x02008868    // 2008868 <__mdiff+0x278>
 200867c:	13 40 40 00 	MOV        R1,R2
 2008680:	8c 90 8b 00 	LW         (R2),R1        | CMP        $0,R1
 2008684:	78 88 00 08 	BZ         @0x02008690    // 2008690 <__mdiff+0xa0>
 2008688:	9c 88 9d 90 	LW         (R1),R3        | SW         R3,(R2)
 200868c:	78 80 00 28 	BRA        @0x020086b8    // 20086b8 <__mdiff+0xc8>
 2008690:	9e 18 96 01 	LDI        $24,R3         | LDI        $1,R2
 2008694:	0b 42 00 00 	MOV        R8,R1
 2008698:	87 fa fc f8 	JSR        0x0200b588     // 200b588 <_calloc_r>
 200869c:	02 00 b5 88 
 20086a0:	0c 00 00 00 	CMP        $0,R1
 20086a4:	78 88 01 c0 	BZ         @0x02008868    // 2008868 <__mdiff+0x278>
 20086a8:	16 00 00 00 	CLR        R2
 20086ac:	14 c4 40 04 	SW         R2,$4(R1)
 20086b0:	1e 00 00 01 	LDI        $1,R3
 20086b4:	1c c4 40 08 	SW         R3,$8(R1)
 20086b8:	16 00 00 00 	CLR        R2
 20086bc:	14 c4 40 0c 	SW         R2,$12(R1)
 20086c0:	1e 00 00 01 	LDI        $1,R3
 20086c4:	1c c4 40 10 	SW         R3,$16(R1)
 20086c8:	14 c4 40 14 	SW         R2,$20(R1)
 20086cc:	78 80 01 b0 	BRA        @0x02008880    // 2008880 <__mdiff+0x290>
 20086d0:	2e 00 00 00 	CLR        R5
 20086d4:	4c 85 c0 04 	LW         4(R7),R9
 20086d8:	0c 86 00 4c 	LW         76(R8),R1
 20086dc:	0c 00 00 00 	CMP        $0,R1
 20086e0:	78 88 00 18 	BZ         @0x020086fc    // 20086fc <__mdiff+0x10c>
 20086e4:	13 42 40 00 	MOV        R9,R2
 20086e8:	11 80 00 02 	LSL        $2,R2
 20086ec:	8a 90 97 88 	ADD        R2,R1          | MOV        R1,R2
 20086f0:	8c 88 8b 00 	LW         (R1),R1        | CMP        $0,R1
 20086f4:	78 a8 00 24 	BNZ        @0x0200871c    // 200871c <__mdiff+0x12c>
 20086f8:	78 80 00 28 	BRA        @0x02008724    // 2008724 <__mdiff+0x134>
 20086fc:	9e 21 96 04 	LDI        $33,R3         | LDI        $4,R2
 2008700:	0b 42 00 00 	MOV        R8,R1
 2008704:	87 fa fc f8 	JSR        0x0200b588     // 200b588 <_calloc_r>
 2008708:	02 00 b5 88 
 200870c:	0c c6 00 4c 	SW         R1,$76(R8)
 2008710:	0c 00 00 00 	CMP        $0,R1
 2008714:	78 88 01 5c 	BZ         @0x02008874    // 2008874 <__mdiff+0x284>
 2008718:	78 83 ff c8 	BRA        @0x020086e4    // 20086e4 <__mdiff+0xf4>
 200871c:	9c 88 9d 90 	LW         (R1),R3        | SW         R3,(R2)
 2008720:	78 80 00 2c 	BRA        @0x02008750    // 2008750 <__mdiff+0x160>
 2008724:	96 01 d6 01 	LDI        $1,R2          | LDI        $1,R10
 2008728:	51 86 40 00 	LSL        R9,R10
 200872c:	9f d0 9a 05 	MOV        R10,R3         | ADD        $5,R3
 2008730:	19 80 00 02 	LSL        $2,R3
 2008734:	0b 42 00 00 	MOV        R8,R1
 2008738:	87 fa fc f8 	JSR        0x0200b588     // 200b588 <_calloc_r>
 200873c:	02 00 b5 88 
 2008740:	0c 00 00 00 	CMP        $0,R1
 2008744:	78 88 01 2c 	BZ         @0x02008874    // 2008874 <__mdiff+0x284>
 2008748:	4c c4 40 04 	SW         R9,$4(R1)
 200874c:	54 c4 40 08 	SW         R10,$8(R1)
 2008750:	16 00 00 00 	CLR        R2
 2008754:	14 c4 40 10 	SW         R2,$16(R1)
 2008758:	2c c4 40 0c 	SW         R5,$12(R1)
 200875c:	44 85 c0 10 	LW         16(R7),R8
 2008760:	ba 14 97 c0 	ADD        $20,R7         | MOV        R8,R2
 2008764:	11 80 00 02 	LSL        $2,R2
 2008768:	cf b8 ca 90 	MOV        R7,R9          | ADD        R2,R9
 200876c:	af b0 aa 14 	MOV        R6,R5          | ADD        $20,R5
 2008770:	14 85 80 10 	LW         16(R6),R2
 2008774:	11 80 00 02 	LSL        $2,R2
 2008778:	d7 a8 d2 90 	MOV        R5,R10         | ADD        R2,R10
 200877c:	a7 88 a2 14 	MOV        R1,R4          | ADD        $20,R4
 2008780:	36 00 00 00 	CLR        R6
 2008784:	78 80 00 04 	BRA        @0x0200878c    // 200878c <__mdiff+0x19c>
 2008788:	3b 40 80 00 	MOV        R2,R7
 200878c:	9c b8 e4 a8 	LW         (R7),R3        | LW         (R5),R12
 2008790:	5b 40 c0 00 	MOV        R3,R11
 2008794:	58 40 ff ff 	AND        $65535,R11
 2008798:	da b0 97 e0 	ADD        R6,R11         | MOV        R12,R2
 200879c:	10 40 ff ff 	AND        $65535,R2
 20087a0:	d8 90 97 b8 	SUB        R2,R11         | MOV        R7,R2
 20087a4:	92 04 aa 04 	ADD        $4,R2          | ADD        $4,R5
 20087a8:	19 40 00 10 	LSR        $16,R3
 20087ac:	61 40 00 10 	LSR        $16,R12
 20087b0:	98 e0 b7 d8 	SUB        R12,R3         | MOV        R11,R6
 20087b4:	31 c0 00 10 	ASR        $16,R6
 20087b8:	9a b0 b7 98 	ADD        R6,R3          | MOV        R3,R6
 20087bc:	31 c0 00 10 	ASR        $16,R6
 20087c0:	20 80 00 04 	ADD        $4,R4
 20087c4:	19 80 00 10 	LSL        $16,R3
 20087c8:	58 40 ff ff 	AND        $65535,R11
 20087cc:	18 c6 c0 00 	OR         R11,R3
 20087d0:	9d a4 ab d0 	SW         R3,$-4(R4)     | CMP        R10,R5
 20087d4:	78 9b ff b0 	BC         @0x02008788    // 2008788 <__mdiff+0x198>
 20087d8:	14 06 40 00 	CMP        R9,R2
 20087dc:	78 b8 00 4c 	BNC        @0x0200882c    // 200882c <__mdiff+0x23c>
 20087e0:	2b 41 00 00 	MOV        R4,R5
 20087e4:	9c 90 d7 98 	LW         (R2),R3        | MOV        R3,R10
 20087e8:	50 40 ff ff 	AND        $65535,R10
 20087ec:	d2 b0 92 04 	ADD        R6,R10         | ADD        $4,R2
 20087f0:	19 40 00 10 	LSR        $16,R3
 20087f4:	33 42 80 00 	MOV        R10,R6
 20087f8:	31 c0 00 10 	ASR        $16,R6
 20087fc:	9a b0 b7 98 	ADD        R6,R3          | MOV        R3,R6
 2008800:	31 c0 00 10 	ASR        $16,R6
 2008804:	28 80 00 04 	ADD        $4,R5
 2008808:	19 80 00 10 	LSL        $16,R3
 200880c:	50 40 ff ff 	AND        $65535,R10
 2008810:	18 c6 80 00 	OR         R10,R3
 2008814:	9d ac 93 c8 	SW         R3,$-4(R5)     | CMP        R9,R2
 2008818:	78 9b ff c8 	BC         @0x020087e4    // 20087e4 <__mdiff+0x1f4>
 200881c:	48 05 c0 00 	SUB        R7,R9
 2008820:	4b 42 5f fb 	MOV        $-5+R9,R9
 2008824:	c9 7c ca 04 	AND        $-4,R9         | ADD        $4,R9
 2008828:	20 86 40 00 	ADD        R9,R4
 200882c:	a2 7c 9b 00 	ADD        $-4,R4         | CMP        $0,R3
 2008830:	78 a8 00 0c 	BNZ        @0x02008840    // 2008840 <__mdiff+0x250>
 2008834:	c2 7f a2 7c 	ADD        $-1,R8         | ADD        $-4,R4
 2008838:	94 a0 93 00 	LW         (R4),R2        | CMP        $0,R2
 200883c:	78 8b ff f4 	BZ         @0x02008834    // 2008834 <__mdiff+0x244>
 2008840:	44 c4 40 10 	SW         R8,$16(R1)
 2008844:	78 80 00 38 	BRA        @0x02008880    // 2008880 <__mdiff+0x290>
 2008848:	14 86 00 4c 	LW         76(R8),R2
 200884c:	14 00 00 00 	CMP        $0,R2
 2008850:	78 ab fe 2c 	BNZ        @0x02008680    // 2008680 <__mdiff+0x90>
 2008854:	78 83 fe 08 	BRA        @0x02008660    // 2008660 <__mdiff+0x70>
 2008858:	78 b3 fe 74 	BGE        @0x020086d0    // 20086d0 <__mdiff+0xe0>
 200885c:	bf 98 b7 90 	MOV        R3,R7          | MOV        R2,R6
 2008860:	2e 00 00 01 	LDI        $1,R5
 2008864:	78 83 fe 6c 	BRA        @0x020086d4    // 20086d4 <__mdiff+0xe4>
 2008868:	1e 00 00 00 	CLR        R3
 200886c:	1c c0 00 10 	SW         R3,($16)
 2008870:	7f 00 00 00 	BREAK      @0x02008874    // 2008874 <__mdiff+0x284>
 2008874:	06 00 00 00 	CLR        R0
 2008878:	04 c0 00 0c 	SW         R0,($12)
 200887c:	7f 00 00 00 	BREAK      @0x02008880    // 2008880 <__mdiff+0x290>
 2008880:	84 00 ac 04 	LW         (SP),R0        | LW         4(SP),R5
 2008884:	b4 08 bc 0c 	LW         8(SP),R6       | LW         12(SP),R7
 2008888:	c4 10 cc 14 	LW         16(SP),R8      | LW         20(SP),R9
 200888c:	d4 18 dc 1c 	LW         24(SP),R10     | LW         28(SP),R11
 2008890:	e4 20 ea 24 	LW         32(SP),R12     | ADD        $36,SP
 2008894:	7b 40 00 00 	RTN

02008898 <__ulp>:
 2008898:	12 00 0f fe 	BREV       $4094,R2
 200889c:	08 44 80 00 	AND        R2,R1
 20088a0:	12 00 03 3f 	BREV       $831,R2
 20088a4:	8a 90 8b 01 	ADD        R2,R1          | CMP        $1,R1
 20088a8:	78 90 00 04 	BLT        @0x020088b0    // 20088b0 <__ulp+0x18>
 20088ac:	96 00 ff 80 	CLR        R2             | RTN
 20088b0:	13 40 5f ff 	MOV        $-1+R1,R2
 20088b4:	11 03 ff ff 	XOR        $-1,R2
 20088b8:	11 c0 00 14 	ASR        $20,R2
 20088bc:	14 00 00 14 	CMP        $20,R2
 20088c0:	78 b0 00 0c 	BGE        @0x020088d0    // 20088d0 <__ulp+0x38>
 20088c4:	0e 08 00 00 	LDI        $524288,R1
 20088c8:	09 c4 80 00 	ASR        R2,R1
 20088cc:	96 00 ff 80 	CLR        R2             | RTN
 20088d0:	8e 00 92 6c 	CLR        R1             | ADD        $-20,R2
 20088d4:	14 00 00 1f 	CMP        $31,R2
 20088d8:	78 b0 00 10 	BGE        @0x020088ec    // 20088ec <__ulp+0x54>
 20088dc:	9e 1f 98 90 	LDI        $31,R3         | SUB        R2,R3
 20088e0:	16 00 00 01 	LDI        $1,R2
 20088e4:	11 84 c0 00 	LSL        R3,R2
 20088e8:	78 80 00 04 	BRA        @0x020088f0    // 20088f0 <__ulp+0x58>
 20088ec:	16 00 00 01 	LDI        $1,R2
 20088f0:	7b 40 00 00 	RTN

020088f4 <__b2d>:
 20088f4:	e8 18 ad 00 	SUB        $24,SP         | SW         R5,(SP)
 20088f8:	b5 04 bd 08 	SW         R6,$4(SP)      | SW         R7,$8(SP)
 20088fc:	c5 0c cd 10 	SW         R8,$12(SP)     | SW         R9,$16(SP)
 2008900:	d5 14 bf 88 	SW         R10,$20(SP)    | MOV        R1,R7
 2008904:	38 80 00 14 	ADD        $20,R7
 2008908:	0c 84 40 10 	LW         16(R1),R1
 200890c:	09 80 00 02 	LSL        $2,R1
 2008910:	b7 b8 b2 88 	MOV        R7,R6          | ADD        R1,R6
 2008914:	c7 b0 c2 7c 	MOV        R6,R8          | ADD        $-4,R8
 2008918:	ac b4 8f a8 	LW         -4(R6),R5      | MOV        R5,R1
 200891c:	08 43 00 00 	AND        $-65536,R1
 2008920:	78 a8 00 10 	BNZ        @0x02008934    // 2008934 <__b2d+0x40>
 2008924:	1b 41 40 00 	MOV        R5,R3
 2008928:	19 80 00 10 	LSL        $16,R3
 200892c:	ce 18 a6 10 	LDI        $24,R9         | LDI        $16,R4
 2008930:	78 80 00 08 	BRA        @0x0200893c    // 200893c <__b2d+0x48>
 2008934:	9f a8 ce 08 	MOV        R5,R3          | LDI        $8,R9
 2008938:	26 00 00 00 	CLR        R4
 200893c:	0a 00 00 ff 	BREV       $255,R1
 2008940:	d7 98 d1 88 	MOV        R3,R10         | AND        R1,R10
 2008944:	78 a8 00 08 	BNZ        @0x02008950    // 2008950 <__b2d+0x5c>
 2008948:	19 80 00 08 	LSL        $8,R3
 200894c:	23 42 40 00 	MOV        R9,R4
 2008950:	0a 00 00 0f 	BREV       $15,R1
 2008954:	cf 98 c9 88 	MOV        R3,R9          | AND        R1,R9
 2008958:	78 a8 00 08 	BNZ        @0x02008964    // 2008964 <__b2d+0x70>
 200895c:	20 80 00 04 	ADD        $4,R4
 2008960:	19 80 00 04 	LSL        $4,R3
 2008964:	0a 00 00 03 	BREV       $3,R1
 2008968:	d7 98 d1 88 	MOV        R3,R10         | AND        R1,R10
 200896c:	78 a8 00 08 	BNZ        @0x02008978    // 2008978 <__b2d+0x84>
 2008970:	20 80 00 02 	ADD        $2,R4
 2008974:	19 80 00 02 	LSL        $2,R3
 2008978:	1c 00 00 00 	CMP        $0,R3
 200897c:	78 90 00 10 	BLT        @0x02008990    // 2008990 <__b2d+0x9c>
 2008980:	0a 00 00 02 	BREV       $2,R1
 2008984:	18 44 40 00 	AND        R1,R3
 2008988:	78 88 00 c0 	BZ         @0x02008a4c    // 2008a4c <__b2d+0x158>
 200898c:	20 80 00 01 	ADD        $1,R4
 2008990:	8e 20 88 a0 	LDI        $32,R1         | SUB        R4,R1
 2008994:	8d 90 a3 0b 	SW         R1,(R2)        | CMP        $11,R4
 2008998:	78 b0 00 40 	BGE        @0x020089dc    // 20089dc <__b2d+0xe8>
 200899c:	9e 0b 98 a0 	LDI        $11,R3         | SUB        R4,R3
 20089a0:	0b 41 40 00 	MOV        R5,R1
 20089a4:	09 44 c0 00 	LSR        R3,R1
 20089a8:	4a 00 0f fc 	BREV       $4092,R9
 20089ac:	08 c6 40 00 	OR         R9,R1
 20089b0:	3c 06 00 00 	CMP        R8,R7
 20089b4:	78 b8 00 10 	BNC        @0x020089c8    // 20089c8 <__b2d+0xd4>
 20089b8:	14 85 bf f8 	LW         -8(R6),R2
 20089bc:	11 44 c0 00 	LSR        R3,R2
 20089c0:	1b 40 80 00 	MOV        R2,R3
 20089c4:	78 80 00 04 	BRA        @0x020089cc    // 20089cc <__b2d+0xd8>
 20089c8:	1e 00 00 00 	CLR        R3
 20089cc:	13 41 40 00 	MOV        R5,R2
 20089d0:	11 85 00 15 	LSL        $21+R4,R2
 20089d4:	10 c4 c0 00 	OR         R3,R2
 20089d8:	78 80 00 b4 	BRA        @0x02008a90    // 2008a90 <__b2d+0x19c>
 20089dc:	a2 75 bb c0 	ADD        $-11,R4        | CMP        R8,R7
 20089e0:	78 b8 00 90 	BNC        @0x02008a74    // 2008a74 <__b2d+0x180>
 20089e4:	1c 85 bf f8 	LW         -8(R6),R3
 20089e8:	24 00 00 00 	CMP        $0,R4
 20089ec:	78 88 00 4c 	BZ         @0x02008a3c    // 2008a3c <__b2d+0x148>
 20089f0:	c6 20 c0 a0 	LDI        $32,R8         | SUB        R4,R8
 20089f4:	0b 41 40 00 	MOV        R5,R1
 20089f8:	09 85 00 00 	LSL        R4,R1
 20089fc:	12 00 0f fc 	BREV       $4092,R2
 2008a00:	08 c4 80 00 	OR         R2,R1
 2008a04:	13 40 c0 00 	MOV        R3,R2
 2008a08:	11 46 00 00 	LSR        R8,R2
 2008a0c:	08 c4 80 00 	OR         R2,R1
 2008a10:	97 b0 92 78 	MOV        R6,R2          | ADD        $-8,R2
 2008a14:	3c 04 80 00 	CMP        R2,R7
 2008a18:	78 98 00 0c 	BC         @0x02008a28    // 2008a28 <__b2d+0x134>
 2008a1c:	13 40 c0 00 	MOV        R3,R2
 2008a20:	11 85 00 00 	LSL        R4,R2
 2008a24:	78 80 00 10 	BRA        @0x02008a38    // 2008a38 <__b2d+0x144>
 2008a28:	14 85 bf f4 	LW         -12(R6),R2
 2008a2c:	11 46 00 00 	LSR        R8,R2
 2008a30:	19 85 00 00 	LSL        R4,R3
 2008a34:	10 c4 c0 00 	OR         R3,R2
 2008a38:	78 80 00 54 	BRA        @0x02008a90    // 2008a90 <__b2d+0x19c>
 2008a3c:	0a 00 0f fc 	BREV       $4092,R1
 2008a40:	28 c4 40 00 	OR         R1,R5
 2008a44:	8f a8 97 98 	MOV        R5,R1          | MOV        R3,R2
 2008a48:	78 80 00 44 	BRA        @0x02008a90    // 2008a90 <__b2d+0x19c>
 2008a4c:	9d 90 bb c0 	SW         R3,(R2)        | CMP        R8,R7
 2008a50:	78 98 00 30 	BC         @0x02008a84    // 2008a84 <__b2d+0x190>
 2008a54:	26 00 00 15 	LDI        $21,R4
 2008a58:	13 41 40 00 	MOV        R5,R2
 2008a5c:	11 85 00 00 	LSL        R4,R2
 2008a60:	1a 00 0f fc 	BREV       $4092,R3
 2008a64:	0b 40 80 00 	MOV        R2,R1
 2008a68:	08 c4 c0 00 	OR         R3,R1
 2008a6c:	16 00 00 00 	CLR        R2
 2008a70:	78 83 ff c4 	BRA        @0x02008a38    // 2008a38 <__b2d+0x144>
 2008a74:	24 00 00 00 	CMP        $0,R4
 2008a78:	78 ab ff dc 	BNZ        @0x02008a58    // 2008a58 <__b2d+0x164>
 2008a7c:	1b 41 00 00 	MOV        R4,R3
 2008a80:	78 83 ff b8 	BRA        @0x02008a3c    // 2008a3c <__b2d+0x148>
 2008a84:	1c 85 bf f8 	LW         -8(R6),R3
 2008a88:	26 00 00 15 	LDI        $21,R4
 2008a8c:	78 83 ff 60 	BRA        @0x020089f0    // 20089f0 <__b2d+0xfc>
 2008a90:	ac 00 b4 04 	LW         (SP),R5        | LW         4(SP),R6
 2008a94:	bc 08 c4 0c 	LW         8(SP),R7       | LW         12(SP),R8
 2008a98:	cc 10 d4 14 	LW         16(SP),R9      | LW         20(SP),R10
 2008a9c:	ea 18 ff 80 	ADD        $24,SP         | RTN

02008aa0 <__d2b>:
 2008aa0:	e8 20 85 04 	SUB        $32,SP         | SW         R0,$4(SP)
 2008aa4:	ad 08 b5 0c 	SW         R5,$8(SP)      | SW         R6,$12(SP)
 2008aa8:	bd 10 c5 14 	SW         R7,$16(SP)     | SW         R8,$20(SP)
 2008aac:	cd 18 d5 1c 	SW         R9,$24(SP)     | SW         R10,$28(SP)
 2008ab0:	c7 88 b7 90 	MOV        R1,R8          | MOV        R2,R6
 2008ab4:	3b 40 c0 00 	MOV        R3,R7
 2008ab8:	14 84 40 4c 	LW         76(R1),R2
 2008abc:	14 00 00 00 	CMP        $0,R2
 2008ac0:	78 a8 00 28 	BNZ        @0x02008aec    // 2008aec <__d2b+0x4c>
 2008ac4:	9e 21 96 04 	LDI        $33,R3         | LDI        $4,R2
 2008ac8:	24 c7 40 00 	SW         R4,(SP)
 2008acc:	87 fa fc f8 	JSR        0x0200b588     // 200b588 <_calloc_r>
 2008ad0:	02 00 b5 88 
 2008ad4:	0c c6 00 4c 	SW         R1,$76(R8)
 2008ad8:	97 88 8b 00 	MOV        R1,R2          | CMP        $0,R1
 2008adc:	24 87 40 00 	LW         (SP),R4
 2008ae0:	78 a8 00 08 	BNZ        @0x02008aec    // 2008aec <__d2b+0x4c>
 2008ae4:	0e 00 00 00 	CLR        R1
 2008ae8:	78 80 00 4c 	BRA        @0x02008b38    // 2008b38 <__d2b+0x98>
 2008aec:	0c 84 80 04 	LW         4(R2),R1
 2008af0:	0c 00 00 00 	CMP        $0,R1
 2008af4:	78 88 00 0c 	BZ         @0x02008b04    // 2008b04 <__d2b+0x64>
 2008af8:	1c 84 40 00 	LW         (R1),R3
 2008afc:	1c c4 80 04 	SW         R3,$4(R2)
 2008b00:	78 80 00 28 	BRA        @0x02008b2c    // 2008b2c <__d2b+0x8c>
 2008b04:	9e 1c 96 01 	LDI        $28,R3         | LDI        $1,R2
 2008b08:	8f c0 a5 00 	MOV        R8,R1          | SW         R4,(SP)
 2008b0c:	87 fa fc f8 	JSR        0x0200b588     // 200b588 <_calloc_r>
 2008b10:	02 00 b5 88 
 2008b14:	8b 00 a4 00 	CMP        $0,R1          | LW         (SP),R4
 2008b18:	78 8b ff c8 	BZ         @0x02008ae4    // 2008ae4 <__d2b+0x44>
 2008b1c:	46 00 00 01 	LDI        $1,R8
 2008b20:	44 c4 40 04 	SW         R8,$4(R1)
 2008b24:	16 00 00 02 	LDI        $2,R2
 2008b28:	14 c4 40 08 	SW         R2,$8(R1)
 2008b2c:	1e 00 00 00 	CLR        R3
 2008b30:	1c c4 40 10 	SW         R3,$16(R1)
 2008b34:	1c c4 40 0c 	SW         R3,$12(R1)
 2008b38:	46 0f ff ff 	LDI        $1048575,R8
 2008b3c:	9f b0 99 c0 	MOV        R6,R3          | AND        R8,R3
 2008b40:	13 41 80 00 	MOV        R6,R2
 2008b44:	11 40 00 14 	LSR        $20,R2
 2008b48:	10 40 07 ff 	AND        $2047,R2
 2008b4c:	78 88 00 08 	BZ         @0x02008b58    // 2008b58 <__d2b+0xb8>
 2008b50:	43 42 00 01 	MOV        $1+R8,R8
 2008b54:	18 c6 00 00 	OR         R8,R3
 2008b58:	c7 b8 bb 00 	MOV        R7,R8          | CMP        $0,R7
 2008b5c:	78 88 01 00 	BZ         @0x02008c60    // 2008c60 <__d2b+0x1c0>
 2008b60:	b7 b8 b1 07 	MOV        R7,R6          | AND        $7,R6
 2008b64:	78 88 00 28 	BZ         @0x02008b90    // 2008b90 <__d2b+0xf0>
 2008b68:	b7 b8 b1 01 	MOV        R7,R6          | AND        $1,R6
 2008b6c:	78 a8 00 c8 	BNZ        @0x02008c38    // 2008c38 <__d2b+0x198>
 2008b70:	b7 b8 b1 02 	MOV        R7,R6          | AND        $2,R6
 2008b74:	78 88 00 0c 	BZ         @0x02008b84    // 2008b84 <__d2b+0xe4>
 2008b78:	41 40 00 01 	LSR        $1,R8
 2008b7c:	ce 1f b6 01 	LDI        $31,R9         | LDI        $1,R6
 2008b80:	78 80 00 9c 	BRA        @0x02008c20    // 2008c20 <__d2b+0x180>
 2008b84:	41 40 00 02 	LSR        $2,R8
 2008b88:	ce 1e b6 02 	LDI        $30,R9         | LDI        $2,R6
 2008b8c:	78 80 00 90 	BRA        @0x02008c20    // 2008c20 <__d2b+0x180>
 2008b90:	38 40 ff ff 	AND        $65535,R7
 2008b94:	78 a8 00 10 	BNZ        @0x02008ba8    // 2008ba8 <__d2b+0x108>
 2008b98:	3b 42 00 00 	MOV        R8,R7
 2008b9c:	39 40 00 10 	LSR        $16,R7
 2008ba0:	d6 18 b6 10 	LDI        $24,R10        | LDI        $16,R6
 2008ba4:	78 80 00 04 	BRA        @0x02008bac    // 2008bac <__d2b+0x10c>
 2008ba8:	bf c0 d6 08 	MOV        R8,R7          | LDI        $8,R10
 2008bac:	4b 41 c0 00 	MOV        R7,R9
 2008bb0:	48 40 00 ff 	AND        $255,R9
 2008bb4:	78 a8 00 08 	BNZ        @0x02008bc0    // 2008bc0 <__d2b+0x120>
 2008bb8:	39 40 00 08 	LSR        $8,R7
 2008bbc:	33 42 80 00 	MOV        R10,R6
 2008bc0:	cf b8 c9 0f 	MOV        R7,R9          | AND        $15,R9
 2008bc4:	78 a8 00 08 	BNZ        @0x02008bd0    // 2008bd0 <__d2b+0x130>
 2008bc8:	30 80 00 04 	ADD        $4,R6
 2008bcc:	39 40 00 04 	LSR        $4,R7
 2008bd0:	cf b8 c9 03 	MOV        R7,R9          | AND        $3,R9
 2008bd4:	78 a8 00 14 	BNZ        @0x02008bec    // 2008bec <__d2b+0x14c>
 2008bd8:	30 80 00 02 	ADD        $2,R6
 2008bdc:	39 40 00 02 	LSR        $2,R7
 2008be0:	cf b8 c9 01 	MOV        R7,R9          | AND        $1,R9
 2008be4:	78 88 00 0c 	BZ         @0x02008bf4    // 2008bf4 <__d2b+0x154>
 2008be8:	78 80 00 24 	BRA        @0x02008c10    // 2008c10 <__d2b+0x170>
 2008bec:	cf b8 c9 01 	MOV        R7,R9          | AND        $1,R9
 2008bf0:	78 a8 00 14 	BNZ        @0x02008c08    // 2008c08 <__d2b+0x168>
 2008bf4:	39 40 00 01 	LSR        $1,R7
 2008bf8:	78 88 00 20 	BZ         @0x02008c1c    // 2008c1c <__d2b+0x17c>
 2008bfc:	b2 01 ce 20 	ADD        $1,R6          | LDI        $32,R9
 2008c00:	c8 b0 c7 b8 	SUB        R6,R9          | MOV        R7,R8
 2008c04:	78 80 00 18 	BRA        @0x02008c20    // 2008c20 <__d2b+0x180>
 2008c08:	34 00 00 00 	CMP        $0,R6
 2008c0c:	78 88 00 28 	BZ         @0x02008c38    // 2008c38 <__d2b+0x198>
 2008c10:	ce 20 c8 b0 	LDI        $32,R9         | SUB        R6,R9
 2008c14:	43 41 c0 00 	MOV        R7,R8
 2008c18:	78 80 00 04 	BRA        @0x02008c20    // 2008c20 <__d2b+0x180>
 2008c1c:	cf b8 b6 20 	MOV        R7,R9          | LDI        $32,R6
 2008c20:	3b 40 c0 00 	MOV        R3,R7
 2008c24:	39 86 40 00 	LSL        R9,R7
 2008c28:	38 c6 00 00 	OR         R8,R7
 2008c2c:	3c c4 40 14 	SW         R7,$20(R1)
 2008c30:	19 45 80 00 	LSR        R6,R3
 2008c34:	78 80 00 08 	BRA        @0x02008c40    // 2008c40 <__d2b+0x1a0>
 2008c38:	3c c4 40 14 	SW         R7,$20(R1)
 2008c3c:	36 00 00 00 	CLR        R6
 2008c40:	1c c4 40 18 	SW         R3,$24(R1)
 2008c44:	1c 00 00 00 	CMP        $0,R3
 2008c48:	1a 28 00 00 	LDI.NZ     0x00000002,R3  // 2 <_rom+0x2>
 2008c4c:	1a 68 00 02 
 2008c50:	1a 08 00 00 	LDI.Z      0x00000001,R3  // 1 <_rom+0x1>
 2008c54:	1a 48 00 01 
 2008c58:	1c c4 40 10 	SW         R3,$16(R1)
 2008c5c:	78 80 00 c4 	BRA        @0x02008d24    // 2008d24 <__d2b+0x284>
 2008c60:	b7 98 b1 07 	MOV        R3,R6          | AND        $7,R6
 2008c64:	78 88 00 28 	BZ         @0x02008c90    // 2008c90 <__d2b+0x1f0>
 2008c68:	b7 98 b1 01 	MOV        R3,R6          | AND        $1,R6
 2008c6c:	78 a8 00 98 	BNZ        @0x02008d08    // 2008d08 <__d2b+0x268>
 2008c70:	b7 98 b1 02 	MOV        R3,R6          | AND        $2,R6
 2008c74:	78 88 00 0c 	BZ         @0x02008c84    // 2008c84 <__d2b+0x1e4>
 2008c78:	19 40 00 01 	LSR        $1,R3
 2008c7c:	36 00 00 21 	LDI        $33,R6
 2008c80:	78 80 00 90 	BRA        @0x02008d14    // 2008d14 <__d2b+0x274>
 2008c84:	19 40 00 02 	LSR        $2,R3
 2008c88:	36 00 00 22 	LDI        $34,R6
 2008c8c:	78 80 00 84 	BRA        @0x02008d14    // 2008d14 <__d2b+0x274>
 2008c90:	33 40 c0 00 	MOV        R3,R6
 2008c94:	30 40 ff ff 	AND        $65535,R6
 2008c98:	78 a8 00 10 	BNZ        @0x02008cac    // 2008cac <__d2b+0x20c>
 2008c9c:	43 40 c0 00 	MOV        R3,R8
 2008ca0:	41 40 00 10 	LSR        $16,R8
 2008ca4:	ce 18 b6 10 	LDI        $24,R9         | LDI        $16,R6
 2008ca8:	78 80 00 08 	BRA        @0x02008cb4    // 2008cb4 <__d2b+0x214>
 2008cac:	c7 98 ce 08 	MOV        R3,R8          | LDI        $8,R9
 2008cb0:	33 41 c0 00 	MOV        R7,R6
 2008cb4:	3b 42 00 00 	MOV        R8,R7
 2008cb8:	38 40 00 ff 	AND        $255,R7
 2008cbc:	78 a8 00 08 	BNZ        @0x02008cc8    // 2008cc8 <__d2b+0x228>
 2008cc0:	41 40 00 08 	LSR        $8,R8
 2008cc4:	33 42 40 00 	MOV        R9,R6
 2008cc8:	bf c0 b9 0f 	MOV        R8,R7          | AND        $15,R7
 2008ccc:	78 a8 00 08 	BNZ        @0x02008cd8    // 2008cd8 <__d2b+0x238>
 2008cd0:	30 80 00 04 	ADD        $4,R6
 2008cd4:	41 40 00 04 	LSR        $4,R8
 2008cd8:	bf c0 b9 03 	MOV        R8,R7          | AND        $3,R7
 2008cdc:	78 a8 00 08 	BNZ        @0x02008ce8    // 2008ce8 <__d2b+0x248>
 2008ce0:	30 80 00 02 	ADD        $2,R6
 2008ce4:	41 40 00 02 	LSR        $2,R8
 2008ce8:	bf c0 b9 01 	MOV        R8,R7          | AND        $1,R7
 2008cec:	78 88 00 08 	BZ         @0x02008cf8    // 2008cf8 <__d2b+0x258>
 2008cf0:	b2 20 9f c0 	ADD        $32,R6         | MOV        R8,R3
 2008cf4:	78 80 00 1c 	BRA        @0x02008d14    // 2008d14 <__d2b+0x274>
 2008cf8:	41 40 00 01 	LSR        $1,R8
 2008cfc:	78 88 00 10 	BZ         @0x02008d10    // 2008d10 <__d2b+0x270>
 2008d00:	b2 21 9f c0 	ADD        $33,R6         | MOV        R8,R3
 2008d04:	78 80 00 0c 	BRA        @0x02008d14    // 2008d14 <__d2b+0x274>
 2008d08:	36 00 00 20 	LDI        $32,R6
 2008d0c:	78 80 00 04 	BRA        @0x02008d14    // 2008d14 <__d2b+0x274>
 2008d10:	36 00 00 40 	LDI        $64,R6
 2008d14:	1c c4 40 14 	SW         R3,$20(R1)
 2008d18:	3e 00 00 01 	LDI        $1,R7
 2008d1c:	3c c4 40 10 	SW         R7,$16(R1)
 2008d20:	1e 00 00 01 	LDI        $1,R3
 2008d24:	14 00 00 00 	CMP        $0,R2
 2008d28:	78 88 00 14 	BZ         @0x02008d40    // 2008d40 <__d2b+0x2a0>
 2008d2c:	10 83 fb cd 	ADD        $-1075,R2
 2008d30:	92 b0 95 a0 	ADD        R6,R2          | SW         R2,(R4)
 2008d34:	96 35 90 b0 	LDI        $53,R2         | SUB        R6,R2
 2008d38:	14 c5 40 00 	SW         R2,(R5)
 2008d3c:	78 80 00 94 	BRA        @0x02008dd4    // 2008dd4 <__d2b+0x334>
 2008d40:	30 83 fb ce 	ADD        $-1074,R6
 2008d44:	b5 a0 a7 98 	SW         R6,(R4)        | MOV        R3,R4
 2008d48:	21 80 00 05 	LSL        $5,R4
 2008d4c:	19 80 00 02 	LSL        $2,R3
 2008d50:	c7 88 c2 98 	MOV        R1,R8          | ADD        R3,R8
 2008d54:	1c 86 00 10 	LW         16(R8),R3
 2008d58:	33 40 c0 00 	MOV        R3,R6
 2008d5c:	30 43 00 00 	AND        $-65536,R6
 2008d60:	78 a8 00 0c 	BNZ        @0x02008d70    // 2008d70 <__d2b+0x2d0>
 2008d64:	19 80 00 10 	LSL        $16,R3
 2008d68:	be 18 96 10 	LDI        $24,R7         | LDI        $16,R2
 2008d6c:	78 80 00 04 	BRA        @0x02008d74    // 2008d74 <__d2b+0x2d4>
 2008d70:	3e 00 00 08 	LDI        $8,R7
 2008d74:	32 00 00 ff 	BREV       $255,R6
 2008d78:	c7 98 c1 b0 	MOV        R3,R8          | AND        R6,R8
 2008d7c:	78 a8 00 08 	BNZ        @0x02008d88    // 2008d88 <__d2b+0x2e8>
 2008d80:	19 80 00 08 	LSL        $8,R3
 2008d84:	13 41 c0 00 	MOV        R7,R2
 2008d88:	32 00 00 0f 	BREV       $15,R6
 2008d8c:	bf 98 b9 b0 	MOV        R3,R7          | AND        R6,R7
 2008d90:	78 a8 00 08 	BNZ        @0x02008d9c    // 2008d9c <__d2b+0x2fc>
 2008d94:	10 80 00 04 	ADD        $4,R2
 2008d98:	19 80 00 04 	LSL        $4,R3
 2008d9c:	32 00 00 03 	BREV       $3,R6
 2008da0:	c7 98 c1 b0 	MOV        R3,R8          | AND        R6,R8
 2008da4:	78 a8 00 08 	BNZ        @0x02008db0    // 2008db0 <__d2b+0x310>
 2008da8:	10 80 00 02 	ADD        $2,R2
 2008dac:	19 80 00 02 	LSL        $2,R3
 2008db0:	1c 00 00 00 	CMP        $0,R3
 2008db4:	78 90 00 18 	BLT        @0x02008dd0    // 2008dd0 <__d2b+0x330>
 2008db8:	32 00 00 02 	BREV       $2,R6
 2008dbc:	18 45 80 00 	AND        R6,R3
 2008dc0:	78 88 00 08 	BZ         @0x02008dcc    // 2008dcc <__d2b+0x32c>
 2008dc4:	10 80 00 01 	ADD        $1,R2
 2008dc8:	78 80 00 04 	BRA        @0x02008dd0    // 2008dd0 <__d2b+0x330>
 2008dcc:	16 00 00 20 	LDI        $32,R2
 2008dd0:	a0 90 a5 a8 	SUB        R2,R4          | SW         R4,(R5)
 2008dd4:	84 04 ac 08 	LW         4(SP),R0       | LW         8(SP),R5
 2008dd8:	b4 0c bc 10 	LW         12(SP),R6      | LW         16(SP),R7
 2008ddc:	c4 14 cc 18 	LW         20(SP),R8      | LW         24(SP),R9
 2008de0:	d4 1c ea 20 	LW         28(SP),R10     | ADD        $32,SP
 2008de4:	7b 40 00 00 	RTN

02008de8 <__ratio>:
 2008de8:	e8 30 85 0c 	SUB        $48,SP         | SW         R0,$12(SP)
 2008dec:	ad 10 b5 14 	SW         R5,$16(SP)     | SW         R6,$20(SP)
 2008df0:	bd 18 c5 1c 	SW         R7,$24(SP)     | SW         R8,$28(SP)
 2008df4:	cd 20 d5 24 	SW         R9,$32(SP)     | SW         R10,$36(SP)
 2008df8:	dd 28 e5 2c 	SW         R11,$40(SP)    | SW         R12,$44(SP)
 2008dfc:	b7 88 b2 14 	MOV        R1,R6          | ADD        $20,R6
 2008e00:	04 84 40 10 	LW         16(R1),R0
 2008e04:	0b 40 00 00 	MOV        R0,R1
 2008e08:	09 80 00 02 	LSL        $2,R1
 2008e0c:	af b0 aa 88 	MOV        R6,R5          | ADD        R1,R5
 2008e10:	c7 a8 c2 7c 	MOV        R5,R8          | ADD        $-4,R8
 2008e14:	a4 ac 8f a0 	LW         -4(R5),R4      | MOV        R4,R1
 2008e18:	08 43 00 00 	AND        $-65536,R1
 2008e1c:	78 a8 00 10 	BNZ        @0x02008e30    // 2008e30 <__ratio+0x48>
 2008e20:	0b 41 00 00 	MOV        R4,R1
 2008e24:	09 80 00 10 	LSL        $16,R1
 2008e28:	ce 18 9e 10 	LDI        $24,R9         | LDI        $16,R3
 2008e2c:	78 80 00 08 	BRA        @0x02008e38    // 2008e38 <__ratio+0x50>
 2008e30:	8f a0 ce 08 	MOV        R4,R1          | LDI        $8,R9
 2008e34:	1e 00 00 00 	CLR        R3
 2008e38:	3a 00 00 ff 	BREV       $255,R7
 2008e3c:	d7 88 d1 b8 	MOV        R1,R10         | AND        R7,R10
 2008e40:	78 a8 00 08 	BNZ        @0x02008e4c    // 2008e4c <__ratio+0x64>
 2008e44:	09 80 00 08 	LSL        $8,R1
 2008e48:	1b 42 40 00 	MOV        R9,R3
 2008e4c:	3a 00 00 0f 	BREV       $15,R7
 2008e50:	cf 88 c9 b8 	MOV        R1,R9          | AND        R7,R9
 2008e54:	78 a8 00 08 	BNZ        @0x02008e60    // 2008e60 <__ratio+0x78>
 2008e58:	18 80 00 04 	ADD        $4,R3
 2008e5c:	09 80 00 04 	LSL        $4,R1
 2008e60:	3a 00 00 03 	BREV       $3,R7
 2008e64:	d7 88 d1 b8 	MOV        R1,R10         | AND        R7,R10
 2008e68:	78 a8 00 08 	BNZ        @0x02008e74    // 2008e74 <__ratio+0x8c>
 2008e6c:	18 80 00 02 	ADD        $2,R3
 2008e70:	09 80 00 02 	LSL        $2,R1
 2008e74:	0c 00 00 00 	CMP        $0,R1
 2008e78:	78 90 00 10 	BLT        @0x02008e8c    // 2008e8c <__ratio+0xa4>
 2008e7c:	3a 00 00 02 	BREV       $2,R7
 2008e80:	08 45 c0 00 	AND        R7,R1
 2008e84:	78 88 02 b8 	BZ         @0x02009140    // 2009140 <__ratio+0x358>
 2008e88:	18 80 00 01 	ADD        $1,R3
 2008e8c:	8e 20 88 98 	LDI        $32,R1         | SUB        R3,R1
 2008e90:	8d 08 9b 0b 	SW         R1,$8(SP)      | CMP        $11,R3
 2008e94:	78 90 00 0c 	BLT        @0x02008ea4    // 2008ea4 <__ratio+0xbc>
 2008e98:	9a 75 b3 c0 	ADD        $-11,R3        | CMP        R8,R6
 2008e9c:	78 98 00 44 	BC         @0x02008ee4    // 2008ee4 <__ratio+0xfc>
 2008ea0:	78 80 02 54 	BRA        @0x020090f8    // 20090f8 <__ratio+0x310>
 2008ea4:	8e 0b 88 98 	LDI        $11,R1         | SUB        R3,R1
 2008ea8:	3b 41 00 00 	MOV        R4,R7
 2008eac:	39 44 40 00 	LSR        R1,R7
 2008eb0:	4a 00 0f fc 	BREV       $4092,R9
 2008eb4:	38 c6 40 00 	OR         R9,R7
 2008eb8:	34 06 00 00 	CMP        R8,R6
 2008ebc:	78 b8 00 10 	BNC        @0x02008ed0    // 2008ed0 <__ratio+0xe8>
 2008ec0:	2c 85 7f f8 	LW         -8(R5),R5
 2008ec4:	29 44 40 00 	LSR        R1,R5
 2008ec8:	0b 41 40 00 	MOV        R5,R1
 2008ecc:	78 80 00 04 	BRA        @0x02008ed4    // 2008ed4 <__ratio+0xec>
 2008ed0:	0e 00 00 00 	CLR        R1
 2008ed4:	21 84 c0 15 	LSL        $21+R3,R4
 2008ed8:	63 41 00 00 	MOV        R4,R12
 2008edc:	60 c4 40 00 	OR         R1,R12
 2008ee0:	78 80 00 6c 	BRA        @0x02008f50    // 2008f50 <__ratio+0x168>
 2008ee4:	44 85 7f f8 	LW         -8(R5),R8
 2008ee8:	1c 00 00 00 	CMP        $0,R3
 2008eec:	78 88 00 50 	BZ         @0x02008f40    // 2008f40 <__ratio+0x158>
 2008ef0:	ce 20 c8 98 	LDI        $32,R9         | SUB        R3,R9
 2008ef4:	3b 41 00 00 	MOV        R4,R7
 2008ef8:	39 84 c0 00 	LSL        R3,R7
 2008efc:	0a 00 0f fc 	BREV       $4092,R1
 2008f00:	38 c4 40 00 	OR         R1,R7
 2008f04:	0b 42 00 00 	MOV        R8,R1
 2008f08:	09 46 40 00 	LSR        R9,R1
 2008f0c:	38 c4 40 00 	OR         R1,R7
 2008f10:	8f a8 8a 78 	MOV        R5,R1          | ADD        $-8,R1
 2008f14:	34 04 40 00 	CMP        R1,R6
 2008f18:	78 98 00 08 	BC         @0x02008f24    // 2008f24 <__ratio+0x13c>
 2008f1c:	41 84 c0 00 	LSL        R3,R8
 2008f20:	78 80 00 14 	BRA        @0x02008f38    // 2008f38 <__ratio+0x150>
 2008f24:	0c 85 7f f4 	LW         -12(R5),R1
 2008f28:	09 46 40 00 	LSR        R9,R1
 2008f2c:	41 84 c0 00 	LSL        R3,R8
 2008f30:	08 c6 00 00 	OR         R8,R1
 2008f34:	43 40 40 00 	MOV        R1,R8
 2008f38:	63 42 00 00 	MOV        R8,R12
 2008f3c:	78 80 00 10 	BRA        @0x02008f50    // 2008f50 <__ratio+0x168>
 2008f40:	0a 00 0f fc 	BREV       $4092,R1
 2008f44:	3b 41 00 00 	MOV        R4,R7
 2008f48:	38 c4 40 00 	OR         R1,R7
 2008f4c:	63 42 00 00 	MOV        R8,R12
 2008f50:	8f b8 c7 90 	MOV        R7,R1          | MOV        R2,R8
 2008f54:	40 80 00 14 	ADD        $20,R8
 2008f58:	4c 84 80 10 	LW         16(R2),R9
 2008f5c:	13 42 40 00 	MOV        R9,R2
 2008f60:	11 80 00 02 	LSL        $2,R2
 2008f64:	b7 c0 b2 90 	MOV        R8,R6          | ADD        R2,R6
 2008f68:	df b0 da 7c 	MOV        R6,R11         | ADD        $-4,R11
 2008f6c:	a4 b4 97 a0 	LW         -4(R6),R4      | MOV        R4,R2
 2008f70:	10 43 00 00 	AND        $-65536,R2
 2008f74:	78 a8 00 14 	BNZ        @0x02008f8c    // 2008f8c <__ratio+0x1a4>
 2008f78:	13 41 00 00 	MOV        R4,R2
 2008f7c:	11 80 00 10 	LSL        $16,R2
 2008f80:	9e 18 9d 00 	LDI        $24,R3         | SW         R3,(SP)
 2008f84:	2e 00 00 10 	LDI        $16,R5
 2008f88:	78 80 00 08 	BRA        @0x02008f94    // 2008f94 <__ratio+0x1ac>
 2008f8c:	97 a0 ae 08 	MOV        R4,R2          | LDI        $8,R5
 2008f90:	ad 00 ae 00 	SW         R5,(SP)        | CLR        R5
 2008f94:	53 40 80 00 	MOV        R2,R10
 2008f98:	1a 00 00 ff 	BREV       $255,R3
 2008f9c:	50 44 c0 00 	AND        R3,R10
 2008fa0:	78 a8 00 08 	BNZ        @0x02008fac    // 2008fac <__ratio+0x1c4>
 2008fa4:	11 80 00 08 	LSL        $8,R2
 2008fa8:	2c 87 40 00 	LW         (SP),R5
 2008fac:	1a 00 00 0f 	BREV       $15,R3
 2008fb0:	d7 90 d1 98 	MOV        R2,R10         | AND        R3,R10
 2008fb4:	78 a8 00 08 	BNZ        @0x02008fc0    // 2008fc0 <__ratio+0x1d8>
 2008fb8:	28 80 00 04 	ADD        $4,R5
 2008fbc:	11 80 00 04 	LSL        $4,R2
 2008fc0:	1a 00 00 03 	BREV       $3,R3
 2008fc4:	d7 90 d1 98 	MOV        R2,R10         | AND        R3,R10
 2008fc8:	78 a8 00 08 	BNZ        @0x02008fd4    // 2008fd4 <__ratio+0x1ec>
 2008fcc:	28 80 00 02 	ADD        $2,R5
 2008fd0:	11 80 00 02 	LSL        $2,R2
 2008fd4:	14 00 00 00 	CMP        $0,R2
 2008fd8:	78 90 00 10 	BLT        @0x02008fec    // 2008fec <__ratio+0x204>
 2008fdc:	1a 00 00 02 	BREV       $2,R3
 2008fe0:	10 44 c0 00 	AND        R3,R2
 2008fe4:	78 88 01 68 	BZ         @0x02009150    // 2009150 <__ratio+0x368>
 2008fe8:	28 80 00 01 	ADD        $1,R5
 2008fec:	96 20 90 a8 	LDI        $32,R2         | SUB        R5,R2
 2008ff0:	2c 00 00 0b 	CMP        $11,R5
 2008ff4:	78 90 00 0c 	BLT        @0x02009004    // 2009004 <__ratio+0x21c>
 2008ff8:	aa 75 c3 d8 	ADD        $-11,R5        | CMP        R11,R8
 2008ffc:	78 98 00 40 	BC         @0x02009040    // 2009040 <__ratio+0x258>
 2009000:	78 80 01 20 	BRA        @0x02009124    // 2009124 <__ratio+0x33c>
 2009004:	d6 0b d0 a8 	LDI        $11,R10        | SUB        R5,R10
 2009008:	d5 04 9f a0 	SW         R10,$4(SP)     | MOV        R4,R3
 200900c:	19 46 80 00 	LSR        R10,R3
 2009010:	52 00 0f fc 	BREV       $4092,R10
 2009014:	18 c6 80 00 	OR         R10,R3
 2009018:	44 06 c0 00 	CMP        R11,R8
 200901c:	78 b8 00 10 	BNC        @0x02009030    // 2009030 <__ratio+0x248>
 2009020:	34 85 bf f8 	LW         -8(R6),R6
 2009024:	44 87 40 04 	LW         4(SP),R8
 2009028:	31 46 00 00 	LSR        R8,R6
 200902c:	78 80 00 04 	BRA        @0x02009034    // 2009034 <__ratio+0x24c>
 2009030:	36 00 00 00 	CLR        R6
 2009034:	21 85 40 15 	LSL        $21+R5,R4
 2009038:	20 c5 80 00 	OR         R6,R4
 200903c:	78 80 00 64 	BRA        @0x020090a4    // 20090a4 <__ratio+0x2bc>
 2009040:	54 85 bf f8 	LW         -8(R6),R10
 2009044:	2c 00 00 00 	CMP        $0,R5
 2009048:	78 88 00 4c 	BZ         @0x02009098    // 2009098 <__ratio+0x2b0>
 200904c:	de 20 d8 a8 	LDI        $32,R11        | SUB        R5,R11
 2009050:	1b 41 00 00 	MOV        R4,R3
 2009054:	19 85 40 00 	LSL        R5,R3
 2009058:	22 00 0f fc 	BREV       $4092,R4
 200905c:	18 c5 00 00 	OR         R4,R3
 2009060:	23 42 80 00 	MOV        R10,R4
 2009064:	21 46 c0 00 	LSR        R11,R4
 2009068:	18 c5 00 00 	OR         R4,R3
 200906c:	a7 b0 a2 78 	MOV        R6,R4          | ADD        $-8,R4
 2009070:	44 05 00 00 	CMP        R4,R8
 2009074:	78 98 00 0c 	BC         @0x02009084    // 2009084 <__ratio+0x29c>
 2009078:	23 42 80 00 	MOV        R10,R4
 200907c:	21 85 40 00 	LSL        R5,R4
 2009080:	78 80 00 10 	BRA        @0x02009094    // 2009094 <__ratio+0x2ac>
 2009084:	24 85 bf f4 	LW         -12(R6),R4
 2009088:	21 46 c0 00 	LSR        R11,R4
 200908c:	51 85 40 00 	LSL        R5,R10
 2009090:	20 c6 80 00 	OR         R10,R4
 2009094:	78 80 00 0c 	BRA        @0x020090a4    // 20090a4 <__ratio+0x2bc>
 2009098:	1a 00 0f fc 	BREV       $4092,R3
 200909c:	20 c4 c0 00 	OR         R3,R4
 20090a0:	9f a0 a7 d0 	MOV        R4,R3          | MOV        R10,R4
 20090a4:	00 06 40 00 	SUB        R9,R0
 20090a8:	01 80 00 05 	LSL        $5,R0
 20090ac:	cc 08 c8 90 	LW         8(SP),R9       | SUB        R2,R9
 20090b0:	82 c8 83 01 	ADD        R9,R0          | CMP        $1,R0
 20090b4:	78 90 00 10 	BLT        @0x020090c8    // 20090c8 <__ratio+0x2e0>
 20090b8:	0b 40 00 00 	MOV        R0,R1
 20090bc:	09 80 00 14 	LSL        $20,R1
 20090c0:	08 85 c0 00 	ADD        R7,R1
 20090c4:	78 80 00 08 	BRA        @0x020090d0    // 20090d0 <__ratio+0x2e8>
 20090c8:	01 80 00 14 	LSL        $20,R0
 20090cc:	18 04 00 00 	SUB        R0,R3
 20090d0:	13 43 00 00 	MOV        R12,R2
 20090d4:	87 fa fc f8 	JSR        0x0200d4dc     // 200d4dc <__divdf3>
 20090d8:	02 00 d4 dc 
 20090dc:	78 80 00 84 	BRA        @0x02009164    // 2009164 <__ratio+0x37c>
 20090e0:	3b 41 00 00 	MOV        R4,R7
 20090e4:	39 84 c0 00 	LSL        R3,R7
 20090e8:	0a 00 0f fc 	BREV       $4092,R1
 20090ec:	38 c4 40 00 	OR         R1,R7
 20090f0:	46 00 00 00 	CLR        R8
 20090f4:	78 83 fe 40 	BRA        @0x02008f38    // 2008f38 <__ratio+0x150>
 20090f8:	1c 00 00 00 	CMP        $0,R3
 20090fc:	78 ab ff e0 	BNZ        @0x020090e0    // 20090e0 <__ratio+0x2f8>
 2009100:	43 40 c0 00 	MOV        R3,R8
 2009104:	78 83 fe 38 	BRA        @0x02008f40    // 2008f40 <__ratio+0x158>
 2009108:	2e 00 00 15 	LDI        $21,R5
 200910c:	1b 41 00 00 	MOV        R4,R3
 2009110:	19 85 40 00 	LSL        R5,R3
 2009114:	2a 00 0f fc 	BREV       $4092,R5
 2009118:	18 c5 40 00 	OR         R5,R3
 200911c:	26 00 00 00 	CLR        R4
 2009120:	78 83 ff 70 	BRA        @0x02009094    // 2009094 <__ratio+0x2ac>
 2009124:	2c 00 00 00 	CMP        $0,R5
 2009128:	78 ab ff e0 	BNZ        @0x0200910c    // 200910c <__ratio+0x324>
 200912c:	53 41 40 00 	MOV        R5,R10
 2009130:	78 83 ff 64 	BRA        @0x02009098    // 2009098 <__ratio+0x2b0>
 2009134:	44 85 7f f8 	LW         -8(R5),R8
 2009138:	9e 15 8d 08 	LDI        $21,R3         | SW         R1,$8(SP)
 200913c:	78 83 fd b0 	BRA        @0x02008ef0    // 2008ef0 <__ratio+0x108>
 2009140:	34 06 00 00 	CMP        R8,R6
 2009144:	78 9b ff ec 	BC         @0x02009134    // 2009134 <__ratio+0x34c>
 2009148:	8d 08 9e 15 	SW         R1,$8(SP)      | LDI        $21,R3
 200914c:	78 83 ff 90 	BRA        @0x020090e0    // 20090e0 <__ratio+0x2f8>
 2009150:	44 06 c0 00 	CMP        R11,R8
 2009154:	78 bb ff b0 	BNC        @0x02009108    // 2009108 <__ratio+0x320>
 2009158:	54 85 bf f8 	LW         -8(R6),R10
 200915c:	2e 00 00 15 	LDI        $21,R5
 2009160:	78 83 fe e8 	BRA        @0x0200904c    // 200904c <__ratio+0x264>
 2009164:	84 0c ac 10 	LW         12(SP),R0      | LW         16(SP),R5
 2009168:	b4 14 bc 18 	LW         20(SP),R6      | LW         24(SP),R7
 200916c:	c4 1c cc 20 	LW         28(SP),R8      | LW         32(SP),R9
 2009170:	d4 24 dc 28 	LW         36(SP),R10     | LW         40(SP),R11
 2009174:	e4 2c ea 30 	LW         44(SP),R12     | ADD        $48,SP
 2009178:	7b 40 00 00 	RTN

0200917c <_mprec_log10>:
 200917c:	e8 10 85 00 	SUB        $16,SP         | SW         R0,(SP)
 2009180:	ad 04 b5 08 	SW         R5,$4(SP)      | SW         R6,$8(SP)
 2009184:	bd 0c af 88 	SW         R7,$12(SP)     | MOV        R1,R5
 2009188:	0c 00 00 18 	CMP        $24,R1
 200918c:	78 b0 00 18 	BGE        @0x020091a8    // 20091a8 <_mprec_log10+0x2c>
 2009190:	29 80 00 03 	LSL        $3,R5
 2009194:	12 03 00 40 	LDI        0x0200e48c,R2  // 200e48c <__mprec_tens>
 2009198:	12 40 e4 8c 
 200919c:	92 a8 8c 90 	ADD        R5,R2          | LW         (R2),R1
 20091a0:	14 84 80 04 	LW         4(R2),R2
 20091a4:	78 80 00 24 	BRA        @0x020091cc    // 20091cc <_mprec_log10+0x50>
 20091a8:	0a 00 0f fc 	BREV       $4092,R1
 20091ac:	16 00 00 00 	CLR        R2
 20091b0:	32 00 24 02 	BREV       $9218,R6
 20091b4:	3e 00 00 00 	CLR        R7
 20091b8:	9f b0 a7 b8 	MOV        R6,R3          | MOV        R7,R4
 20091bc:	87 fa fc f8 	JSR        0x0200d134     // 200d134 <__muldf3>
 20091c0:	02 00 d1 34 
 20091c4:	28 83 ff ff 	ADD        $-1,R5
 20091c8:	78 ab ff ec 	BNZ        @0x020091b8    // 20091b8 <_mprec_log10+0x3c>
 20091cc:	84 00 ac 04 	LW         (SP),R0        | LW         4(SP),R5
 20091d0:	b4 08 bc 0c 	LW         8(SP),R6       | LW         12(SP),R7
 20091d4:	ea 10 ff 80 	ADD        $16,SP         | RTN

020091d8 <__copybits>:
 20091d8:	e8 0c ad 00 	SUB        $12,SP         | SW         R5,(SP)
 20091dc:	b5 04 bd 08 	SW         R6,$4(SP)      | SW         R7,$8(SP)
 20091e0:	10 83 ff ff 	ADD        $-1,R2
 20091e4:	11 c0 00 05 	ASR        $5,R2
 20091e8:	10 80 00 01 	ADD        $1,R2
 20091ec:	11 80 00 02 	LSL        $2,R2
 20091f0:	b7 88 b2 90 	MOV        R1,R6          | ADD        R2,R6
 20091f4:	97 98 92 14 	MOV        R3,R2          | ADD        $20,R2
 20091f8:	24 84 c0 10 	LW         16(R3),R4
 20091fc:	21 80 00 02 	LSL        $2,R4
 2009200:	af 90 aa a0 	MOV        R2,R5          | ADD        R4,R5
 2009204:	14 05 40 00 	CMP        R5,R2
 2009208:	78 b8 00 24 	BNC        @0x02009230    // 2009230 <__copybits+0x58>
 200920c:	23 40 40 00 	MOV        R1,R4
 2009210:	a2 04 bc 90 	ADD        $4,R4          | LW         (R2),R7
 2009214:	92 04 bd a4 	ADD        $4,R2          | SW         R7,$-4(R4)
 2009218:	14 05 40 00 	CMP        R5,R2
 200921c:	78 9b ff f0 	BC         @0x02009210    // 2009210 <__copybits+0x38>
 2009220:	28 04 c0 00 	SUB        R3,R5
 2009224:	2b 41 5f eb 	MOV        $-21+R5,R5
 2009228:	a9 7c aa 04 	AND        $-4,R5         | ADD        $4,R5
 200922c:	08 85 40 00 	ADD        R5,R1
 2009230:	0c 05 80 00 	CMP        R6,R1
 2009234:	78 b8 00 0c 	BNC        @0x02009244    // 2009244 <__copybits+0x6c>
 2009238:	8a 04 96 00 	ADD        $4,R1          | CLR        R2
 200923c:	95 8c 8b b0 	SW         R2,$-4(R1)     | CMP        R6,R1
 2009240:	78 9b ff f4 	BC         @0x02009238    // 2009238 <__copybits+0x60>
 2009244:	ac 00 b4 04 	LW         (SP),R5        | LW         4(SP),R6
 2009248:	bc 08 ea 0c 	LW         8(SP),R7       | ADD        $12,SP
 200924c:	7b 40 00 00 	RTN

02009250 <__any_on>:
 2009250:	a7 88 a2 14 	MOV        R1,R4          | ADD        $20,R4
 2009254:	0c 84 40 10 	LW         16(R1),R1
 2009258:	1b 40 80 00 	MOV        R2,R3
 200925c:	19 c0 00 05 	ASR        $5,R3
 2009260:	0c 04 c0 00 	CMP        R3,R1
 2009264:	78 b0 00 10 	BGE        @0x02009278    // 2009278 <__any_on+0x28>
 2009268:	09 80 00 02 	LSL        $2,R1
 200926c:	97 a0 92 88 	MOV        R4,R2          | ADD        R1,R2
 2009270:	0b 40 80 00 	MOV        R2,R1
 2009274:	78 80 00 9c 	BRA        @0x02009314    // 2009314 <__any_on+0xc4>
 2009278:	1c 04 40 00 	CMP        R1,R3
 200927c:	78 90 00 0c 	BLT        @0x0200928c    // 200928c <__any_on+0x3c>
 2009280:	19 80 00 02 	LSL        $2,R3
 2009284:	8f a0 8a 98 	MOV        R4,R1          | ADD        R3,R1
 2009288:	78 80 00 88 	BRA        @0x02009314    // 2009314 <__any_on+0xc4>
 200928c:	10 40 00 1f 	AND        $31,R2
 2009290:	78 a8 00 bc 	BNZ        @0x02009350    // 2009350 <__any_on+0x100>
 2009294:	19 80 00 02 	LSL        $2,R3
 2009298:	8f a0 8a 98 	MOV        R4,R1          | ADD        R3,R1
 200929c:	78 80 00 74 	BRA        @0x02009314    // 2009314 <__any_on+0xc4>
 20092a0:	e8 04 ad 00 	SUB        $4,SP          | SW         R5,(SP)
 20092a4:	19 80 00 02 	LSL        $2,R3
 20092a8:	8f a0 8a 98 	MOV        R4,R1          | ADD        R3,R1
 20092ac:	ac 88 9f a8 	LW         (R1),R5        | MOV        R5,R3
 20092b0:	19 44 80 00 	LSR        R2,R3
 20092b4:	19 84 80 00 	LSL        R2,R3
 20092b8:	2c 04 c0 00 	CMP        R3,R5
 20092bc:	78 a8 00 30 	BNZ        @0x020092f0    // 20092f0 <__any_on+0xa0>
 20092c0:	24 04 40 00 	CMP        R1,R4
 20092c4:	78 b8 00 30 	BNC        @0x020092f8    // 20092f8 <__any_on+0xa8>
 20092c8:	97 88 92 7c 	MOV        R1,R2          | ADD        $-4,R2
 20092cc:	8c 8c 8b 00 	LW         -4(R1),R1      | CMP        $0,R1
 20092d0:	78 88 00 10 	BZ         @0x020092e4    // 20092e4 <__any_on+0x94>
 20092d4:	78 80 00 28 	BRA        @0x02009300    // 2009300 <__any_on+0xb0>
 20092d8:	92 7c 9c 90 	ADD        $-4,R2         | LW         (R2),R3
 20092dc:	1c 00 00 00 	CMP        $0,R3
 20092e0:	78 a8 00 24 	BNZ        @0x02009308    // 2009308 <__any_on+0xb8>
 20092e4:	24 04 80 00 	CMP        R2,R4
 20092e8:	78 9b ff ec 	BC         @0x020092d8    // 20092d8 <__any_on+0x88>
 20092ec:	78 80 00 1c 	BRA        @0x0200930c    // 200930c <__any_on+0xbc>
 20092f0:	0e 00 00 01 	LDI        $1,R1
 20092f4:	78 80 00 14 	BRA        @0x0200930c    // 200930c <__any_on+0xbc>
 20092f8:	0e 00 00 00 	CLR        R1
 20092fc:	78 80 00 0c 	BRA        @0x0200930c    // 200930c <__any_on+0xbc>
 2009300:	0e 00 00 01 	LDI        $1,R1
 2009304:	78 80 00 04 	BRA        @0x0200930c    // 200930c <__any_on+0xbc>
 2009308:	0e 00 00 01 	LDI        $1,R1
 200930c:	ac 00 ea 04 	LW         (SP),R5        | ADD        $4,SP
 2009310:	7b 40 00 00 	RTN
 2009314:	24 04 40 00 	CMP        R1,R4
 2009318:	78 b8 00 28 	BNC        @0x02009344    // 2009344 <__any_on+0xf4>
 200931c:	97 88 92 7c 	MOV        R1,R2          | ADD        $-4,R2
 2009320:	8c 8c 8b 00 	LW         -4(R1),R1      | CMP        $0,R1
 2009324:	78 88 00 10 	BZ         @0x02009338    // 2009338 <__any_on+0xe8>
 2009328:	78 80 00 1c 	BRA        @0x02009348    // 2009348 <__any_on+0xf8>
 200932c:	92 7c 9c 90 	ADD        $-4,R2         | LW         (R2),R3
 2009330:	1c 00 00 00 	CMP        $0,R3
 2009334:	78 a8 00 14 	BNZ        @0x0200934c    // 200934c <__any_on+0xfc>
 2009338:	24 04 80 00 	CMP        R2,R4
 200933c:	78 9b ff ec 	BC         @0x0200932c    // 200932c <__any_on+0xdc>
 2009340:	7b 40 00 00 	RTN
 2009344:	8e 00 ff 80 	CLR        R1             | RTN
 2009348:	8e 01 ff 80 	LDI        $1,R1          | RTN
 200934c:	8e 01 ff 80 	LDI        $1,R1          | RTN
 2009350:	78 83 ff 4c 	BRA        @0x020092a0    // 20092a0 <__any_on+0x50>

02009354 <_realloc_r>:
 2009354:	14 00 00 00 	CMP        $0,R2
 2009358:	78 a8 00 0c 	BNZ        @0x02009368    // 2009368 <_realloc_r+0x14>
 200935c:	13 40 c0 00 	MOV        R3,R2
 2009360:	7c 87 c0 00 	LJMP       @0x0200099c    // 200099c <_malloc_r>
 2009364:	02 00 09 9c 
 2009368:	e8 28 85 04 	SUB        $40,SP         | SW         R0,$4(SP)
 200936c:	ad 08 b5 0c 	SW         R5,$8(SP)      | SW         R6,$12(SP)
 2009370:	bd 10 c5 14 	SW         R7,$16(SP)     | SW         R8,$20(SP)
 2009374:	cd 18 d5 1c 	SW         R9,$24(SP)     | SW         R10,$28(SP)
 2009378:	dd 20 e5 24 	SW         R11,$32(SP)    | SW         R12,$36(SP)
 200937c:	c7 88 b7 98 	MOV        R1,R8          | MOV        R3,R6
 2009380:	2b 40 80 00 	MOV        R2,R5
 2009384:	87 fa fc f8 	JSR        0x02001770     // 2001770 <__malloc_lock>
 2009388:	02 00 17 70 
 200938c:	cf a8 ca 78 	MOV        R5,R9          | ADD        $-8,R9
 2009390:	8c ac d7 88 	LW         -4(R5),R1      | MOV        R1,R10
 2009394:	d1 7c bf b0 	AND        $-4,R10        | MOV        R6,R7
 2009398:	ba 0b bb 17 	ADD        $11,R7         | CMP        $23,R7
 200939c:	78 98 00 0c 	BC         @0x020093ac    // 20093ac <_realloc_r+0x58>
 20093a0:	b9 78 97 b8 	AND        $-8,R7         | MOV        R7,R2
 20093a4:	11 40 00 1f 	LSR        $31,R2
 20093a8:	78 80 00 04 	BRA        @0x020093b0    // 20093b0 <_realloc_r+0x5c>
 20093ac:	96 00 be 10 	CLR        R2             | LDI        $16,R7
 20093b0:	3c 05 80 00 	CMP        R6,R7
 20093b4:	10 d8 00 01 	OR.C       $1,R2
 20093b8:	14 00 00 00 	CMP        $0,R2
 20093bc:	78 88 00 0c 	BZ         @0x020093cc    // 20093cc <_realloc_r+0x78>
 20093c0:	8e 0c 8d c0 	LDI        $12,R1         | SW         R1,(R8)
 20093c4:	36 00 00 00 	CLR        R6
 20093c8:	78 80 05 18 	BRA        @0x020098e4    // 20098e4 <_realloc_r+0x590>
 20093cc:	54 05 c0 00 	CMP        R7,R10
 20093d0:	78 b8 03 f8 	BNC        @0x020097cc    // 20097cc <_realloc_r+0x478>
 20093d4:	97 c8 92 d0 	MOV        R9,R2          | ADD        R10,R2
 20093d8:	62 03 00 40 	LDI        0x0200ebcc,R12 // 200ebcc <__malloc_av_>
 20093dc:	62 40 eb cc 
 20093e0:	1c 87 00 08 	LW         8(R12),R3
 20093e4:	14 04 c0 00 	CMP        R3,R2
 20093e8:	78 88 04 6c 	BZ         @0x02009858    // 2009858 <_realloc_r+0x504>
 20093ec:	24 84 80 04 	LW         4(R2),R4
 20093f0:	9f a0 99 7e 	MOV        R4,R3          | AND        $-2,R3
 20093f4:	87 90 82 98 	MOV        R2,R0          | ADD        R3,R0
 20093f8:	1c 84 00 04 	LW         4(R0),R3
 20093fc:	18 40 00 01 	AND        $1,R3
 2009400:	78 88 04 44 	BZ         @0x02009848    // 2009848 <_realloc_r+0x4f4>
 2009404:	78 80 04 7c 	BRA        @0x02009884    // 2009884 <_realloc_r+0x530>
 2009408:	48 85 c0 00 	ADD        R7,R9
 200940c:	4c c7 00 08 	SW         R9,$8(R12)
 2009410:	18 05 c0 00 	SUB        R7,R3
 2009414:	18 c0 00 01 	OR         $1,R3
 2009418:	1c c6 40 04 	SW         R3,$4(R9)
 200941c:	8c ac 89 01 	LW         -4(R5),R1      | AND        $1,R1
 2009420:	08 c5 c0 00 	OR         R7,R1
 2009424:	8d ac 8f c0 	SW         R1,$-4(R5)     | MOV        R8,R1
 2009428:	87 fa fc f8 	JSR        0x02001774     // 2001774 <__malloc_unlock>
 200942c:	02 00 17 74 
 2009430:	33 41 40 00 	MOV        R5,R6
 2009434:	78 80 04 ac 	BRA        @0x020098e4    // 20098e4 <_realloc_r+0x590>
 2009438:	0c 84 80 0c 	LW         12(R2),R1
 200943c:	14 84 80 08 	LW         8(R2),R2
 2009440:	0c c4 80 0c 	SW         R1,$12(R2)
 2009444:	14 c4 40 08 	SW         R2,$8(R1)
 2009448:	b7 a8 d7 98 	MOV        R5,R6          | MOV        R3,R10
 200944c:	78 80 03 80 	BRA        @0x020097d0    // 20097d0 <_realloc_r+0x47c>
 2009450:	0c 86 c0 0c 	LW         12(R11),R1
 2009454:	14 86 c0 08 	LW         8(R11),R2
 2009458:	0c c4 80 0c 	SW         R1,$12(R2)
 200945c:	14 c4 40 08 	SW         R2,$8(R1)
 2009460:	b7 d8 b2 08 	MOV        R11,R6         | ADD        $8,R6
 2009464:	d2 7c d3 25 	ADD        $-4,R10        | CMP        $37,R10
 2009468:	78 b8 00 88 	BNC        @0x020094f4    // 20094f4 <_realloc_r+0x1a0>
 200946c:	8f b0 97 a8 	MOV        R6,R1          | MOV        R5,R2
 2009470:	54 00 00 14 	CMP        $20,R10
 2009474:	78 98 00 64 	BC         @0x020094dc    // 20094dc <_realloc_r+0x188>
 2009478:	0c 85 40 00 	LW         (R5),R1
 200947c:	0c c6 c0 08 	SW         R1,$8(R11)
 2009480:	04 85 40 04 	LW         4(R5),R0
 2009484:	04 c6 c0 0c 	SW         R0,$12(R11)
 2009488:	54 00 00 1c 	CMP        $28,R10
 200948c:	78 b8 00 0c 	BNC        @0x0200949c    // 200949c <_realloc_r+0x148>
 2009490:	8f d8 8a 10 	MOV        R11,R1         | ADD        $16,R1
 2009494:	97 a8 92 08 	MOV        R5,R2          | ADD        $8,R2
 2009498:	78 80 00 40 	BRA        @0x020094dc    // 20094dc <_realloc_r+0x188>
 200949c:	0c 85 40 08 	LW         8(R5),R1
 20094a0:	0c c6 c0 10 	SW         R1,$16(R11)
 20094a4:	04 85 40 0c 	LW         12(R5),R0
 20094a8:	04 c6 c0 14 	SW         R0,$20(R11)
 20094ac:	54 00 00 24 	CMP        $36,R10
 20094b0:	78 88 00 0c 	BZ         @0x020094c0    // 20094c0 <_realloc_r+0x16c>
 20094b4:	8f d8 8a 18 	MOV        R11,R1         | ADD        $24,R1
 20094b8:	97 a8 92 10 	MOV        R5,R2          | ADD        $16,R2
 20094bc:	78 80 00 1c 	BRA        @0x020094dc    // 20094dc <_realloc_r+0x188>
 20094c0:	0c 85 40 10 	LW         16(R5),R1
 20094c4:	0c c6 c0 18 	SW         R1,$24(R11)
 20094c8:	8f d8 8a 20 	MOV        R11,R1         | ADD        $32,R1
 20094cc:	97 a8 92 18 	MOV        R5,R2          | ADD        $24,R2
 20094d0:	2c 85 40 14 	LW         20(R5),R5
 20094d4:	2c c6 c0 1c 	SW         R5,$28(R11)
 20094d8:	78 80 00 00 	BRA        @0x020094dc    // 20094dc <_realloc_r+0x188>
 20094dc:	84 90 85 88 	LW         (R2),R0        | SW         R0,(R1)
 20094e0:	04 84 80 04 	LW         4(R2),R0
 20094e4:	04 c4 40 04 	SW         R0,$4(R1)
 20094e8:	14 84 80 08 	LW         8(R2),R2
 20094ec:	14 c4 40 08 	SW         R2,$8(R1)
 20094f0:	78 80 00 14 	BRA        @0x02009508    // 2009508 <_realloc_r+0x1b4>
 20094f4:	9f d0 97 a8 	MOV        R10,R3         | MOV        R5,R2
 20094f8:	8f b0 a5 00 	MOV        R6,R1          | SW         R4,(SP)
 20094fc:	87 fa fc f8 	JSR        0x020074d8     // 20074d8 <memmove>
 2009500:	02 00 74 d8 
 2009504:	24 87 40 00 	LW         (SP),R4
 2009508:	8f d8 8a b8 	MOV        R11,R1         | ADD        R7,R1
 200950c:	0c c7 00 08 	SW         R1,$8(R12)
 2009510:	20 05 c0 00 	SUB        R7,R4
 2009514:	20 c0 00 01 	OR         $1,R4
 2009518:	24 c4 40 04 	SW         R4,$4(R1)
 200951c:	0c 86 c0 04 	LW         4(R11),R1
 2009520:	08 40 00 01 	AND        $1,R1
 2009524:	08 c5 c0 00 	OR         R7,R1
 2009528:	0c c6 c0 04 	SW         R1,$4(R11)
 200952c:	0b 42 00 00 	MOV        R8,R1
 2009530:	87 fa fc f8 	JSR        0x02001774     // 2001774 <__malloc_unlock>
 2009534:	02 00 17 74 
 2009538:	78 80 03 a8 	BRA        @0x020098e4    // 20098e4 <_realloc_r+0x590>
 200953c:	0c 84 80 0c 	LW         12(R2),R1
 2009540:	14 84 80 08 	LW         8(R2),R2
 2009544:	0c c4 80 0c 	SW         R1,$12(R2)
 2009548:	14 c4 40 08 	SW         R2,$8(R1)
 200954c:	0c 86 c0 0c 	LW         12(R11),R1
 2009550:	14 86 c0 08 	LW         8(R11),R2
 2009554:	0c c4 80 0c 	SW         R1,$12(R2)
 2009558:	14 c4 40 08 	SW         R2,$8(R1)
 200955c:	b7 d8 b2 08 	MOV        R11,R6         | ADD        $8,R6
 2009560:	d2 7c d3 25 	ADD        $-4,R10        | CMP        $37,R10
 2009564:	78 b8 00 8c 	BNC        @0x020095f4    // 20095f4 <_realloc_r+0x2a0>
 2009568:	8f b0 97 a8 	MOV        R6,R1          | MOV        R5,R2
 200956c:	54 00 00 14 	CMP        $20,R10
 2009570:	78 98 00 64 	BC         @0x020095d8    // 20095d8 <_realloc_r+0x284>
 2009574:	0c 85 40 00 	LW         (R5),R1
 2009578:	0c c6 c0 08 	SW         R1,$8(R11)
 200957c:	04 85 40 04 	LW         4(R5),R0
 2009580:	04 c6 c0 0c 	SW         R0,$12(R11)
 2009584:	54 00 00 1c 	CMP        $28,R10
 2009588:	78 b8 00 0c 	BNC        @0x02009598    // 2009598 <_realloc_r+0x244>
 200958c:	8f d8 8a 10 	MOV        R11,R1         | ADD        $16,R1
 2009590:	97 a8 92 08 	MOV        R5,R2          | ADD        $8,R2
 2009594:	78 80 00 40 	BRA        @0x020095d8    // 20095d8 <_realloc_r+0x284>
 2009598:	0c 85 40 08 	LW         8(R5),R1
 200959c:	0c c6 c0 10 	SW         R1,$16(R11)
 20095a0:	04 85 40 0c 	LW         12(R5),R0
 20095a4:	04 c6 c0 14 	SW         R0,$20(R11)
 20095a8:	54 00 00 24 	CMP        $36,R10
 20095ac:	78 88 00 0c 	BZ         @0x020095bc    // 20095bc <_realloc_r+0x268>
 20095b0:	8f d8 8a 18 	MOV        R11,R1         | ADD        $24,R1
 20095b4:	97 a8 92 10 	MOV        R5,R2          | ADD        $16,R2
 20095b8:	78 80 00 1c 	BRA        @0x020095d8    // 20095d8 <_realloc_r+0x284>
 20095bc:	0c 85 40 10 	LW         16(R5),R1
 20095c0:	0c c6 c0 18 	SW         R1,$24(R11)
 20095c4:	8f d8 8a 20 	MOV        R11,R1         | ADD        $32,R1
 20095c8:	97 a8 92 18 	MOV        R5,R2          | ADD        $24,R2
 20095cc:	2c 85 40 14 	LW         20(R5),R5
 20095d0:	2c c6 c0 1c 	SW         R5,$28(R11)
 20095d4:	78 80 00 00 	BRA        @0x020095d8    // 20095d8 <_realloc_r+0x284>
 20095d8:	84 90 85 88 	LW         (R2),R0        | SW         R0,(R1)
 20095dc:	04 84 80 04 	LW         4(R2),R0
 20095e0:	04 c4 40 04 	SW         R0,$4(R1)
 20095e4:	14 84 80 08 	LW         8(R2),R2
 20095e8:	14 c4 40 08 	SW         R2,$8(R1)
 20095ec:	d7 e0 cf d8 	MOV        R12,R10        | MOV        R11,R9
 20095f0:	78 80 01 dc 	BRA        @0x020097d0    // 20097d0 <_realloc_r+0x47c>
 20095f4:	9f d0 97 a8 	MOV        R10,R3         | MOV        R5,R2
 20095f8:	0b 41 80 00 	MOV        R6,R1
 20095fc:	87 fa fc f8 	JSR        0x020074d8     // 20074d8 <memmove>
 2009600:	02 00 74 d8 
 2009604:	d7 e0 cf d8 	MOV        R12,R10        | MOV        R11,R9
 2009608:	78 80 01 c4 	BRA        @0x020097d0    // 20097d0 <_realloc_r+0x47c>
 200960c:	e7 d0 e2 88 	MOV        R10,R12        | ADD        R1,R12
 2009610:	64 05 c0 00 	CMP        R7,R12
 2009614:	78 98 00 c0 	BC         @0x020096d8    // 20096d8 <_realloc_r+0x384>
 2009618:	0c 86 c0 0c 	LW         12(R11),R1
 200961c:	14 86 c0 08 	LW         8(R11),R2
 2009620:	0c c4 80 0c 	SW         R1,$12(R2)
 2009624:	14 c4 40 08 	SW         R2,$8(R1)
 2009628:	b7 d8 b2 08 	MOV        R11,R6         | ADD        $8,R6
 200962c:	d2 7c d3 25 	ADD        $-4,R10        | CMP        $37,R10
 2009630:	78 b8 00 8c 	BNC        @0x020096c0    // 20096c0 <_realloc_r+0x36c>
 2009634:	8f b0 97 a8 	MOV        R6,R1          | MOV        R5,R2
 2009638:	54 00 00 14 	CMP        $20,R10
 200963c:	78 98 00 64 	BC         @0x020096a4    // 20096a4 <_realloc_r+0x350>
 2009640:	0c 85 40 00 	LW         (R5),R1
 2009644:	0c c6 c0 08 	SW         R1,$8(R11)
 2009648:	04 85 40 04 	LW         4(R5),R0
 200964c:	04 c6 c0 0c 	SW         R0,$12(R11)
 2009650:	54 00 00 1c 	CMP        $28,R10
 2009654:	78 b8 00 0c 	BNC        @0x02009664    // 2009664 <_realloc_r+0x310>
 2009658:	8f d8 8a 10 	MOV        R11,R1         | ADD        $16,R1
 200965c:	97 a8 92 08 	MOV        R5,R2          | ADD        $8,R2
 2009660:	78 80 00 40 	BRA        @0x020096a4    // 20096a4 <_realloc_r+0x350>
 2009664:	0c 85 40 08 	LW         8(R5),R1
 2009668:	0c c6 c0 10 	SW         R1,$16(R11)
 200966c:	04 85 40 0c 	LW         12(R5),R0
 2009670:	04 c6 c0 14 	SW         R0,$20(R11)
 2009674:	54 00 00 24 	CMP        $36,R10
 2009678:	78 88 00 0c 	BZ         @0x02009688    // 2009688 <_realloc_r+0x334>
 200967c:	8f d8 8a 18 	MOV        R11,R1         | ADD        $24,R1
 2009680:	97 a8 92 10 	MOV        R5,R2          | ADD        $16,R2
 2009684:	78 80 00 1c 	BRA        @0x020096a4    // 20096a4 <_realloc_r+0x350>
 2009688:	0c 85 40 10 	LW         16(R5),R1
 200968c:	0c c6 c0 18 	SW         R1,$24(R11)
 2009690:	8f d8 8a 20 	MOV        R11,R1         | ADD        $32,R1
 2009694:	97 a8 92 18 	MOV        R5,R2          | ADD        $24,R2
 2009698:	2c 85 40 14 	LW         20(R5),R5
 200969c:	2c c6 c0 1c 	SW         R5,$28(R11)
 20096a0:	78 80 00 00 	BRA        @0x020096a4    // 20096a4 <_realloc_r+0x350>
 20096a4:	84 90 85 88 	LW         (R2),R0        | SW         R0,(R1)
 20096a8:	04 84 80 04 	LW         4(R2),R0
 20096ac:	04 c4 40 04 	SW         R0,$4(R1)
 20096b0:	14 84 80 08 	LW         8(R2),R2
 20096b4:	14 c4 40 08 	SW         R2,$8(R1)
 20096b8:	d7 e0 cf d8 	MOV        R12,R10        | MOV        R11,R9
 20096bc:	78 80 01 10 	BRA        @0x020097d0    // 20097d0 <_realloc_r+0x47c>
 20096c0:	9f d0 97 a8 	MOV        R10,R3         | MOV        R5,R2
 20096c4:	0b 41 80 00 	MOV        R6,R1
 20096c8:	87 fa fc f8 	JSR        0x020074d8     // 20074d8 <memmove>
 20096cc:	02 00 74 d8 
 20096d0:	d7 e0 cf d8 	MOV        R12,R10        | MOV        R11,R9
 20096d4:	78 80 00 f8 	BRA        @0x020097d0    // 20097d0 <_realloc_r+0x47c>
 20096d8:	97 b0 8f c0 	MOV        R6,R2          | MOV        R8,R1
 20096dc:	87 fa fc f8 	JSR        0x0200099c     // 200099c <_malloc_r>
 20096e0:	02 00 09 9c 
 20096e4:	b7 88 8b 00 	MOV        R1,R6          | CMP        $0,R1
 20096e8:	78 a8 00 10 	BNZ        @0x020096fc    // 20096fc <_realloc_r+0x3a8>
 20096ec:	0b 42 00 00 	MOV        R8,R1
 20096f0:	87 fa fc f8 	JSR        0x02001774     // 2001774 <__malloc_unlock>
 20096f4:	02 00 17 74 
 20096f8:	78 80 01 e8 	BRA        @0x020098e4    // 20098e4 <_realloc_r+0x590>
 20096fc:	9f 88 9a 78 	MOV        R1,R3          | ADD        $-8,R3
 2009700:	94 ac 91 7e 	LW         -4(R5),R2      | AND        $-2,R2
 2009704:	87 c8 82 90 	MOV        R9,R0          | ADD        R2,R0
 2009708:	1c 04 00 00 	CMP        R0,R3
 200970c:	78 a8 00 0c 	BNZ        @0x0200971c    // 200971c <_realloc_r+0x3c8>
 2009710:	8c 8c 89 7c 	LW         -4(R1),R1      | AND        $-4,R1
 2009714:	d2 88 b7 a8 	ADD        R1,R10         | MOV        R5,R6
 2009718:	78 80 00 b4 	BRA        @0x020097d0    // 20097d0 <_realloc_r+0x47c>
 200971c:	d2 7c d3 25 	ADD        $-4,R10        | CMP        $37,R10
 2009720:	78 b8 00 80 	BNC        @0x020097a4    // 20097a4 <_realloc_r+0x450>
 2009724:	97 a8 d3 14 	MOV        R5,R2          | CMP        $20,R10
 2009728:	78 98 00 60 	BC         @0x0200978c    // 200978c <_realloc_r+0x438>
 200972c:	8c a8 8d b0 	LW         (R5),R1        | SW         R1,(R6)
 2009730:	04 85 40 04 	LW         4(R5),R0
 2009734:	04 c5 80 04 	SW         R0,$4(R6)
 2009738:	54 00 00 1c 	CMP        $28,R10
 200973c:	78 b8 00 0c 	BNC        @0x0200974c    // 200974c <_realloc_r+0x3f8>
 2009740:	8f b0 8a 08 	MOV        R6,R1          | ADD        $8,R1
 2009744:	97 a8 92 08 	MOV        R5,R2          | ADD        $8,R2
 2009748:	78 80 00 40 	BRA        @0x0200978c    // 200978c <_realloc_r+0x438>
 200974c:	0c 85 40 08 	LW         8(R5),R1
 2009750:	0c c5 80 08 	SW         R1,$8(R6)
 2009754:	04 85 40 0c 	LW         12(R5),R0
 2009758:	04 c5 80 0c 	SW         R0,$12(R6)
 200975c:	54 00 00 24 	CMP        $36,R10
 2009760:	78 88 00 0c 	BZ         @0x02009770    // 2009770 <_realloc_r+0x41c>
 2009764:	8f b0 8a 10 	MOV        R6,R1          | ADD        $16,R1
 2009768:	97 a8 92 10 	MOV        R5,R2          | ADD        $16,R2
 200976c:	78 80 00 1c 	BRA        @0x0200978c    // 200978c <_realloc_r+0x438>
 2009770:	0c 85 40 10 	LW         16(R5),R1
 2009774:	0c c5 80 10 	SW         R1,$16(R6)
 2009778:	8f b0 8a 18 	MOV        R6,R1          | ADD        $24,R1
 200977c:	97 a8 92 18 	MOV        R5,R2          | ADD        $24,R2
 2009780:	04 85 40 14 	LW         20(R5),R0
 2009784:	04 c5 80 14 	SW         R0,$20(R6)
 2009788:	78 80 00 00 	BRA        @0x0200978c    // 200978c <_realloc_r+0x438>
 200978c:	84 90 85 88 	LW         (R2),R0        | SW         R0,(R1)
 2009790:	04 84 80 04 	LW         4(R2),R0
 2009794:	04 c4 40 04 	SW         R0,$4(R1)
 2009798:	14 84 80 08 	LW         8(R2),R2
 200979c:	14 c4 40 08 	SW         R2,$8(R1)
 20097a0:	78 80 00 0c 	BRA        @0x020097b0    // 20097b0 <_realloc_r+0x45c>
 20097a4:	9f d0 97 a8 	MOV        R10,R3         | MOV        R5,R2
 20097a8:	87 fa fc f8 	JSR        0x020074d8     // 20074d8 <memmove>
 20097ac:	02 00 74 d8 
 20097b0:	97 a8 8f c0 	MOV        R5,R2          | MOV        R8,R1
 20097b4:	87 fa fc f8 	JSR        0x0200658c     // 200658c <_free_r>
 20097b8:	02 00 65 8c 
 20097bc:	0b 42 00 00 	MOV        R8,R1
 20097c0:	87 fa fc f8 	JSR        0x02001774     // 2001774 <__malloc_unlock>
 20097c4:	02 00 17 74 
 20097c8:	78 80 01 18 	BRA        @0x020098e4    // 20098e4 <_realloc_r+0x590>
 20097cc:	33 41 40 00 	MOV        R5,R6
 20097d0:	8f d0 88 b8 	MOV        R10,R1         | SUB        R7,R1
 20097d4:	0c 00 00 10 	CMP        $16,R1
 20097d8:	78 98 00 3c 	BC         @0x02009818    // 2009818 <_realloc_r+0x4c4>
 20097dc:	97 c8 92 b8 	MOV        R9,R2          | ADD        R7,R2
 20097e0:	1c 86 40 04 	LW         4(R9),R3
 20097e4:	18 40 00 01 	AND        $1,R3
 20097e8:	18 c5 c0 00 	OR         R7,R3
 20097ec:	1c c6 40 04 	SW         R3,$4(R9)
 20097f0:	08 c0 00 01 	OR         $1,R1
 20097f4:	0c c4 80 04 	SW         R1,$4(R2)
 20097f8:	48 86 80 00 	ADD        R10,R9
 20097fc:	0c 86 40 04 	LW         4(R9),R1
 2009800:	08 c0 00 01 	OR         $1,R1
 2009804:	0c c6 40 04 	SW         R1,$4(R9)
 2009808:	92 08 8f c0 	ADD        $8,R2          | MOV        R8,R1
 200980c:	87 fa fc f8 	JSR        0x0200658c     // 200658c <_free_r>
 2009810:	02 00 65 8c 
 2009814:	78 80 00 20 	BRA        @0x02009838    // 2009838 <_realloc_r+0x4e4>
 2009818:	0c 86 40 04 	LW         4(R9),R1
 200981c:	08 40 00 01 	AND        $1,R1
 2009820:	08 c6 80 00 	OR         R10,R1
 2009824:	0c c6 40 04 	SW         R1,$4(R9)
 2009828:	48 86 80 00 	ADD        R10,R9
 200982c:	0c 86 40 04 	LW         4(R9),R1
 2009830:	08 c0 00 01 	OR         $1,R1
 2009834:	0c c6 40 04 	SW         R1,$4(R9)
 2009838:	0b 42 00 00 	MOV        R8,R1
 200983c:	87 fa fc f8 	JSR        0x02001774     // 2001774 <__malloc_unlock>
 2009840:	02 00 17 74 
 2009844:	78 80 00 9c 	BRA        @0x020098e4    // 20098e4 <_realloc_r+0x590>
 2009848:	a1 7c 9f d0 	AND        $-4,R4         | MOV        R10,R3
 200984c:	9a a0 9b b8 	ADD        R4,R3          | CMP        R7,R3
 2009850:	78 bb fb e4 	BNC        @0x02009438    // 2009438 <_realloc_r+0xe4>
 2009854:	78 80 00 58 	BRA        @0x020098b0    // 20098b0 <_realloc_r+0x55c>
 2009858:	1c 84 80 04 	LW         4(R2),R3
 200985c:	99 7c 9a d0 	AND        $-4,R3         | ADD        R10,R3
 2009860:	97 b8 92 10 	MOV        R7,R2          | ADD        $16,R2
 2009864:	1c 04 80 00 	CMP        R2,R3
 2009868:	78 98 00 6c 	BC         @0x020098d8    // 20098d8 <_realloc_r+0x584>
 200986c:	78 83 fb 98 	BRA        @0x02009408    // 2009408 <_realloc_r+0xb4>
 2009870:	0c 85 7f f8 	LW         -8(R5),R1
 2009874:	df c8 d8 88 	MOV        R9,R11         | SUB        R1,R11
 2009878:	0c 86 c0 04 	LW         4(R11),R1
 200987c:	08 43 ff fc 	AND        $-4,R1
 2009880:	78 83 fd 88 	BRA        @0x0200960c    // 200960c <_realloc_r+0x2b8>
 2009884:	08 40 00 01 	AND        $1,R1
 2009888:	78 ab fe 4c 	BNZ        @0x020096d8    // 20096d8 <_realloc_r+0x384>
 200988c:	78 83 ff e0 	BRA        @0x02009870    // 2009870 <_realloc_r+0x51c>
 2009890:	0c 85 7f f8 	LW         -8(R5),R1
 2009894:	df c8 d8 88 	MOV        R9,R11         | SUB        R1,R11
 2009898:	0c 86 c0 04 	LW         4(R11),R1
 200989c:	89 7c e7 88 	AND        $-4,R1         | MOV        R1,R12
 20098a0:	e2 a0 e2 d0 	ADD        R4,R12         | ADD        R10,R12
 20098a4:	64 05 c0 00 	CMP        R7,R12
 20098a8:	78 bb fc 90 	BNC        @0x0200953c    // 200953c <_realloc_r+0x1e8>
 20098ac:	78 83 fd 5c 	BRA        @0x0200960c    // 200960c <_realloc_r+0x2b8>
 20098b0:	08 40 00 01 	AND        $1,R1
 20098b4:	78 8b ff d8 	BZ         @0x02009890    // 2009890 <_realloc_r+0x53c>
 20098b8:	78 83 fe 1c 	BRA        @0x020096d8    // 20096d8 <_realloc_r+0x384>
 20098bc:	0c 85 7f f8 	LW         -8(R5),R1
 20098c0:	df c8 d8 88 	MOV        R9,R11         | SUB        R1,R11
 20098c4:	0c 86 c0 04 	LW         4(R11),R1
 20098c8:	89 7c a7 88 	AND        $-4,R1         | MOV        R1,R4
 20098cc:	a2 98 a3 90 	ADD        R3,R4          | CMP        R2,R4
 20098d0:	78 bb fb 7c 	BNC        @0x02009450    // 2009450 <_realloc_r+0xfc>
 20098d4:	78 83 fd 34 	BRA        @0x0200960c    // 200960c <_realloc_r+0x2b8>
 20098d8:	08 40 00 01 	AND        $1,R1
 20098dc:	78 8b ff dc 	BZ         @0x020098bc    // 20098bc <_realloc_r+0x568>
 20098e0:	78 83 fd f4 	BRA        @0x020096d8    // 20096d8 <_realloc_r+0x384>
 20098e4:	8f b0 84 04 	MOV        R6,R1          | LW         4(SP),R0
 20098e8:	ac 08 b4 0c 	LW         8(SP),R5       | LW         12(SP),R6
 20098ec:	bc 10 c4 14 	LW         16(SP),R7      | LW         20(SP),R8
 20098f0:	cc 18 d4 1c 	LW         24(SP),R9      | LW         28(SP),R10
 20098f4:	dc 20 e4 24 	LW         32(SP),R11     | LW         36(SP),R12
 20098f8:	ea 28 ff 80 	ADD        $40,SP         | RTN

020098fc <__sread>:
 20098fc:	e8 10 85 00 	SUB        $16,SP         | SW         R0,(SP)
 2009900:	ad 04 b5 08 	SW         R5,$4(SP)      | SW         R6,$8(SP)
 2009904:	bd 0c af 90 	SW         R7,$12(SP)     | MOV        R2,R5
 2009908:	15 04 80 0e 	LH         14(R2),R2
 200990c:	11 80 00 10 	LSL        $16,R2
 2009910:	11 c0 00 10 	ASR        $16,R2
 2009914:	87 fa fc f8 	JSR        0x0200c630     // 200c630 <_read_r>
 2009918:	02 00 c6 30 
 200991c:	0c 00 00 00 	CMP        $0,R1
 2009920:	78 90 00 28 	BLT        @0x0200994c    // 200994c <__sread+0x50>
 2009924:	bf 88 b7 88 	MOV        R1,R7          | MOV        R1,R6
 2009928:	31 c0 00 1f 	ASR        $31,R6
 200992c:	14 85 40 50 	LW         80(R5),R2
 2009930:	1c 85 40 54 	LW         84(R5),R3
 2009934:	18 85 c0 00 	ADD        R7,R3
 2009938:	10 98 00 01 	ADD.C      $1,R2
 200993c:	10 85 80 00 	ADD        R6,R2
 2009940:	14 c5 40 50 	SW         R2,$80(R5)
 2009944:	1c c5 40 54 	SW         R3,$84(R5)
 2009948:	78 80 00 0c 	BRA        @0x02009958    // 2009958 <__sread+0x5c>
 200994c:	15 05 40 0c 	LH         12(R5),R2
 2009950:	10 40 ef ff 	AND        $61439,R2
 2009954:	15 45 40 0c 	SH         R2,$12(R5)
 2009958:	84 00 ac 04 	LW         (SP),R0        | LW         4(SP),R5
 200995c:	b4 08 bc 0c 	LW         8(SP),R6       | LW         12(SP),R7
 2009960:	ea 10 ff 80 	ADD        $16,SP         | RTN

02009964 <__seofread>:
 2009964:	8e 00 ff 80 	CLR        R1             | RTN

02009968 <__swrite>:
 2009968:	e8 18 85 00 	SUB        $24,SP         | SW         R0,(SP)
 200996c:	ad 04 b5 08 	SW         R5,$4(SP)      | SW         R6,$8(SP)
 2009970:	bd 0c c5 10 	SW         R7,$12(SP)     | SW         R8,$16(SP)
 2009974:	cd 14 bf 88 	SW         R9,$20(SP)     | MOV        R1,R7
 2009978:	b7 90 c7 98 	MOV        R2,R6          | MOV        R3,R8
 200997c:	4b 41 00 00 	MOV        R4,R9
 2009980:	15 04 80 0c 	LH         12(R2),R2
 2009984:	1b 40 80 00 	MOV        R2,R3
 2009988:	18 40 01 00 	AND        $256,R3
 200998c:	78 88 00 20 	BZ         @0x020099b0    // 20099b0 <__swrite+0x48>
 2009990:	15 05 80 0e 	LH         14(R6),R2
 2009994:	ae 02 9e 00 	LDI        $2,R5          | CLR        R3
 2009998:	26 00 00 00 	CLR        R4
 200999c:	11 80 00 10 	LSL        $16,R2
 20099a0:	11 c0 00 10 	ASR        $16,R2
 20099a4:	87 fa fc f8 	JSR        0x0200c61c     // 200c61c <_lseek_r>
 20099a8:	02 00 c6 1c 
 20099ac:	15 05 80 0c 	LH         12(R6),R2
 20099b0:	10 43 ef ff 	AND        $-4097,R2
 20099b4:	15 45 80 0c 	SH         R2,$12(R6)
 20099b8:	15 05 80 0e 	LH         14(R6),R2
 20099bc:	a7 c8 9f c0 	MOV        R9,R4          | MOV        R8,R3
 20099c0:	11 80 00 10 	LSL        $16,R2
 20099c4:	11 c0 00 10 	ASR        $16,R2
 20099c8:	8f b8 84 00 	MOV        R7,R1          | LW         (SP),R0
 20099cc:	ac 04 b4 08 	LW         4(SP),R5       | LW         8(SP),R6
 20099d0:	bc 0c c4 10 	LW         12(SP),R7      | LW         16(SP),R8
 20099d4:	cc 14 ea 18 	LW         20(SP),R9      | ADD        $24,SP
 20099d8:	7c 87 c0 00 	LJMP       @0x0200c860    // 200c860 <_write_r>
 20099dc:	02 00 c8 60 

020099e0 <__sseek>:
 20099e0:	e8 0c 85 00 	SUB        $12,SP         | SW         R0,(SP)
 20099e4:	ad 04 b5 08 	SW         R5,$4(SP)      | SW         R6,$8(SP)
 20099e8:	33 40 80 00 	MOV        R2,R6
 20099ec:	15 04 80 0e 	LH         14(R2),R2
 20099f0:	11 80 00 10 	LSL        $16,R2
 20099f4:	11 c0 00 10 	ASR        $16,R2
 20099f8:	87 fa fc f8 	JSR        0x0200c61c     // 200c61c <_lseek_r>
 20099fc:	02 00 c6 1c 
 2009a00:	0c 03 ff ff 	CMP        $-1,R1
 2009a04:	14 0b ff ff 	CMP.Z      $-1,R2
 2009a08:	78 a8 00 10 	BNZ        @0x02009a1c    // 2009a1c <__sseek+0x3c>
 2009a0c:	1d 05 80 0c 	LH         12(R6),R3
 2009a10:	18 40 ef ff 	AND        $61439,R3
 2009a14:	1d 45 80 0c 	SH         R3,$12(R6)
 2009a18:	78 80 00 14 	BRA        @0x02009a30    // 2009a30 <__sseek+0x50>
 2009a1c:	1d 05 80 0c 	LH         12(R6),R3
 2009a20:	18 c0 10 00 	OR         $4096,R3
 2009a24:	1d 45 80 0c 	SH         R3,$12(R6)
 2009a28:	0c c5 80 50 	SW         R1,$80(R6)
 2009a2c:	14 c5 80 54 	SW         R2,$84(R6)
 2009a30:	84 00 ac 04 	LW         (SP),R0        | LW         4(SP),R5
 2009a34:	b4 08 ea 0c 	LW         8(SP),R6       | ADD        $12,SP
 2009a38:	7b 40 00 00 	RTN

02009a3c <__sclose>:
 2009a3c:	e8 04 85 00 	SUB        $4,SP          | SW         R0,(SP)
 2009a40:	15 04 80 0e 	LH         14(R2),R2
 2009a44:	11 80 00 10 	LSL        $16,R2
 2009a48:	11 c0 00 10 	ASR        $16,R2
 2009a4c:	84 00 ea 04 	LW         (SP),R0        | ADD        $4,SP
 2009a50:	7c 87 c0 00 	LJMP       @0x0200c5bc    // 200c5bc <_close_r>
 2009a54:	02 00 c5 bc 

02009a58 <strcmp>:
 2009a58:	e8 1c ad 00 	SUB        $28,SP         | SW         R5,(SP)
 2009a5c:	b5 04 bd 08 	SW         R6,$4(SP)      | SW         R7,$8(SP)
 2009a60:	c5 0c cd 10 	SW         R8,$12(SP)     | SW         R9,$16(SP)
 2009a64:	d5 14 dd 18 	SW         R10,$20(SP)    | SW         R11,$24(SP)
 2009a68:	1b 40 40 00 	MOV        R1,R3
 2009a6c:	18 c4 80 00 	OR         R2,R3
 2009a70:	18 40 00 07 	AND        $7,R3
 2009a74:	78 a8 00 a8 	BNZ        @0x02009b20    // 2009b20 <strcmp+0xc8>
 2009a78:	44 84 80 00 	LW         (R2),R8
 2009a7c:	4c 84 80 04 	LW         4(R2),R9
 2009a80:	24 84 40 00 	LW         (R1),R4
 2009a84:	2c 84 40 04 	LW         4(R1),R5
 2009a88:	44 05 00 00 	CMP        R4,R8
 2009a8c:	4c 0d 40 00 	CMP.Z      R5,R9
 2009a90:	78 a8 00 8c 	BNZ        @0x02009b20    // 2009b20 <strcmp+0xc8>
 2009a94:	32 01 7f 7f 	LDI        0xfefefefe,R6  // fefefefe <_top_of_stack+0xfbfefefe>
 2009a98:	32 40 fe fe 
 2009a9c:	bf b1 a7 c0 	MOV        $1+R6,R7       | MOV        R8,R4
 2009aa0:	af c8 aa b8 	MOV        R9,R5          | ADD        R7,R5
 2009aa4:	20 98 00 01 	ADD.C      $1,R4
 2009aa8:	20 85 80 00 	ADD        R6,R4
 2009aac:	49 03 ff ff 	XOR        $-1,R9
 2009ab0:	41 03 ff ff 	XOR        $-1,R8
 2009ab4:	c9 a8 c1 a0 	AND        R5,R9          | AND        R4,R8
 2009ab8:	52 01 01 01 	LDI        0x80808080,R10 // 80808080 <_top_of_stack+0x7d808080>
 2009abc:	52 40 80 80 
 2009ac0:	df d0 c9 d8 	MOV        R10,R11        | AND        R11,R9
 2009ac4:	c1 d0 c3 00 	AND        R10,R8         | CMP        $0,R8
 2009ac8:	4c 08 00 00 	CMP.Z      $0,R9
 2009acc:	78 a8 00 a4 	BNZ        @0x02009b74    // 2009b74 <strcmp+0x11c>
 2009ad0:	78 80 00 2c 	BRA        @0x02009b00    // 2009b00 <strcmp+0xa8>
 2009ad4:	c7 a0 cf a8 	MOV        R4,R8          | MOV        R5,R9
 2009ad8:	48 85 c0 00 	ADD        R7,R9
 2009adc:	40 98 00 01 	ADD.C      $1,R8
 2009ae0:	40 85 80 00 	ADD        R6,R8
 2009ae4:	29 03 ff ff 	XOR        $-1,R5
 2009ae8:	21 03 ff ff 	XOR        $-1,R4
 2009aec:	a9 c8 a1 c0 	AND        R9,R5          | AND        R8,R4
 2009af0:	a9 d8 a1 d0 	AND        R11,R5         | AND        R10,R4
 2009af4:	24 00 00 00 	CMP        $0,R4
 2009af8:	2c 08 00 00 	CMP.Z      $0,R5
 2009afc:	78 a8 00 7c 	BNZ        @0x02009b7c    // 2009b7c <strcmp+0x124>
 2009b00:	8a 08 92 08 	ADD        $8,R1          | ADD        $8,R2
 2009b04:	24 84 40 00 	LW         (R1),R4
 2009b08:	2c 84 40 04 	LW         4(R1),R5
 2009b0c:	44 84 80 00 	LW         (R2),R8
 2009b10:	4c 84 80 04 	LW         4(R2),R9
 2009b14:	24 06 00 00 	CMP        R8,R4
 2009b18:	2c 0e 40 00 	CMP.Z      R9,R5
 2009b1c:	78 8b ff b4 	BZ         @0x02009ad4    // 2009ad4 <strcmp+0x7c>
 2009b20:	1d 84 40 00 	LB         (R1),R3
 2009b24:	1c 00 00 00 	CMP        $0,R3
 2009b28:	78 a8 00 08 	BNZ        @0x02009b34    // 2009b34 <strcmp+0xdc>
 2009b2c:	25 84 80 00 	LB         (R2),R4
 2009b30:	78 80 00 38 	BRA        @0x02009b6c    // 2009b6c <strcmp+0x114>
 2009b34:	25 84 80 00 	LB         (R2),R4
 2009b38:	1c 05 00 00 	CMP        R4,R3
 2009b3c:	78 88 00 04 	BZ         @0x02009b44    // 2009b44 <strcmp+0xec>
 2009b40:	78 80 00 28 	BRA        @0x02009b6c    // 2009b6c <strcmp+0x114>
 2009b44:	8a 01 af 90 	ADD        $1,R1          | MOV        R2,R5
 2009b48:	28 80 00 01 	ADD        $1,R5
 2009b4c:	1d 84 40 00 	LB         (R1),R3
 2009b50:	1c 00 00 00 	CMP        $0,R3
 2009b54:	78 a8 00 08 	BNZ        @0x02009b60    // 2009b60 <strcmp+0x108>
 2009b58:	25 84 80 01 	LB         1(R2),R4
 2009b5c:	78 80 00 0c 	BRA        @0x02009b6c    // 2009b6c <strcmp+0x114>
 2009b60:	25 84 80 01 	LB         1(R2),R4
 2009b64:	97 a8 9b a0 	MOV        R5,R2          | CMP        R4,R3
 2009b68:	78 8b ff d8 	BZ         @0x02009b44    // 2009b44 <strcmp+0xec>
 2009b6c:	8f 98 88 a0 	MOV        R3,R1          | SUB        R4,R1
 2009b70:	78 80 00 0c 	BRA        @0x02009b80    // 2009b80 <strcmp+0x128>
 2009b74:	0b 40 c0 00 	MOV        R3,R1
 2009b78:	78 80 00 04 	BRA        @0x02009b80    // 2009b80 <strcmp+0x128>
 2009b7c:	0e 00 00 00 	CLR        R1
 2009b80:	ac 00 b4 04 	LW         (SP),R5        | LW         4(SP),R6
 2009b84:	bc 08 c4 0c 	LW         8(SP),R7       | LW         12(SP),R8
 2009b88:	cc 10 d4 14 	LW         16(SP),R9      | LW         20(SP),R10
 2009b8c:	dc 18 ea 1c 	LW         24(SP),R11     | ADD        $28,SP
 2009b90:	7b 40 00 00 	RTN

02009b94 <__sprint_r>:
 2009b94:	e8 24 85 00 	SUB        $36,SP         | SW         R0,(SP)
 2009b98:	ad 04 b5 08 	SW         R5,$4(SP)      | SW         R6,$8(SP)
 2009b9c:	bd 0c c5 10 	SW         R7,$12(SP)     | SW         R8,$16(SP)
 2009ba0:	cd 14 d5 18 	SW         R9,$20(SP)     | SW         R10,$24(SP)
 2009ba4:	dd 1c e5 20 	SW         R11,$28(SP)    | SW         R12,$32(SP)
 2009ba8:	4b 40 c0 00 	MOV        R3,R9
 2009bac:	24 84 c0 08 	LW         8(R3),R4
 2009bb0:	24 00 00 00 	CMP        $0,R4
 2009bb4:	78 a8 00 0c 	BNZ        @0x02009bc4    // 2009bc4 <__sprint_r+0x30>
 2009bb8:	24 c4 c0 04 	SW         R4,$4(R3)
 2009bbc:	0b 41 00 00 	MOV        R4,R1
 2009bc0:	78 80 00 84 	BRA        @0x02009c48    // 2009c48 <__sprint_r+0xb4>
 2009bc4:	33 40 80 00 	MOV        R2,R6
 2009bc8:	2c 84 80 68 	LW         104(R2),R5
 2009bcc:	28 40 20 00 	AND        $8192,R5
 2009bd0:	78 88 00 5c 	BZ         @0x02009c30    // 2009c30 <__sprint_r+0x9c>
 2009bd4:	bf 88 d4 98 	MOV        R1,R7          | LW         (R3),R10
 2009bd8:	2c 86 80 00 	LW         (R10),R5
 2009bdc:	5c 86 80 04 	LW         4(R10),R11
 2009be0:	43 42 c0 00 	MOV        R11,R8
 2009be4:	41 40 00 02 	LSR        $2,R8
 2009be8:	78 88 00 2c 	BZ         @0x02009c18    // 2009c18 <__sprint_r+0x84>
 2009bec:	66 00 00 00 	CLR        R12
 2009bf0:	9f b0 94 a8 	MOV        R6,R3          | LW         (R5),R2
 2009bf4:	0b 41 c0 00 	MOV        R7,R1
 2009bf8:	87 fa fc f8 	JSR        0x0200b920     // 200b920 <_fputwc_r>
 2009bfc:	02 00 b9 20 
 2009c00:	0c 03 ff ff 	CMP        $-1,R1
 2009c04:	78 88 00 34 	BZ         @0x02009c3c    // 2009c3c <__sprint_r+0xa8>
 2009c08:	e2 01 aa 04 	ADD        $1,R12         | ADD        $4,R5
 2009c0c:	44 07 00 00 	CMP        R12,R8
 2009c10:	78 ab ff dc 	BNZ        @0x02009bf0    // 2009bf0 <__sprint_r+0x5c>
 2009c14:	24 86 40 08 	LW         8(R9),R4
 2009c18:	d9 7c a0 d8 	AND        $-4,R11        | SUB        R11,R4
 2009c1c:	24 c6 40 08 	SW         R4,$8(R9)
 2009c20:	d2 08 a3 00 	ADD        $8,R10         | CMP        $0,R4
 2009c24:	78 ab ff b0 	BNZ        @0x02009bd8    // 2009bd8 <__sprint_r+0x44>
 2009c28:	0b 41 00 00 	MOV        R4,R1
 2009c2c:	78 80 00 0c 	BRA        @0x02009c3c    // 2009c3c <__sprint_r+0xa8>
 2009c30:	87 fa fc f8 	JSR        0x02006908     // 2006908 <__sfvwrite_r>
 2009c34:	02 00 69 08 
 2009c38:	78 80 00 00 	BRA        @0x02009c3c    // 2009c3c <__sprint_r+0xa8>
 2009c3c:	16 00 00 00 	CLR        R2
 2009c40:	14 c6 40 08 	SW         R2,$8(R9)
 2009c44:	14 c6 40 04 	SW         R2,$4(R9)
 2009c48:	84 00 ac 04 	LW         (SP),R0        | LW         4(SP),R5
 2009c4c:	b4 08 bc 0c 	LW         8(SP),R6       | LW         12(SP),R7
 2009c50:	c4 10 cc 14 	LW         16(SP),R8      | LW         20(SP),R9
 2009c54:	d4 18 dc 1c 	LW         24(SP),R10     | LW         28(SP),R11
 2009c58:	e4 20 ea 24 	LW         32(SP),R12     | ADD        $36,SP
 2009c5c:	7b 40 00 00 	RTN

02009c60 <_vfiprintf_r>:
 2009c60:	68 00 00 e0 	SUB        $224,SP
 2009c64:	04 c7 40 bc 	SW         R0,$188(SP)
 2009c68:	2c c7 40 c0 	SW         R5,$192(SP)
 2009c6c:	34 c7 40 c4 	SW         R6,$196(SP)
 2009c70:	3c c7 40 c8 	SW         R7,$200(SP)
 2009c74:	44 c7 40 cc 	SW         R8,$204(SP)
 2009c78:	4c c7 40 d0 	SW         R9,$208(SP)
 2009c7c:	54 c7 40 d4 	SW         R10,$212(SP)
 2009c80:	5c c7 40 d8 	SW         R11,$216(SP)
 2009c84:	64 c7 40 dc 	SW         R12,$220(SP)
 2009c88:	c7 88 d7 90 	MOV        R1,R8          | MOV        R2,R10
 2009c8c:	af 98 a5 18 	MOV        R3,R5          | SW         R4,$24(SP)
 2009c90:	0c 00 00 00 	CMP        $0,R1
 2009c94:	78 88 00 14 	BZ         @0x02009cac    // 2009cac <_vfiprintf_r+0x4c>
 2009c98:	14 84 40 38 	LW         56(R1),R2
 2009c9c:	14 00 00 00 	CMP        $0,R2
 2009ca0:	78 a8 00 08 	BNZ        @0x02009cac    // 2009cac <_vfiprintf_r+0x4c>
 2009ca4:	87 fa fc f8 	JSR        0x0200622c     // 200622c <__sinit>
 2009ca8:	02 00 62 2c 
 2009cac:	15 06 80 0c 	LH         12(R10),R2
 2009cb0:	0b 40 80 00 	MOV        R2,R1
 2009cb4:	08 40 ff ff 	AND        $65535,R1
 2009cb8:	1b 40 40 00 	MOV        R1,R3
 2009cbc:	18 40 20 00 	AND        $8192,R3
 2009cc0:	78 a8 00 20 	BNZ        @0x02009ce4    // 2009ce4 <_vfiprintf_r+0x84>
 2009cc4:	1c 86 80 68 	LW         104(R10),R3
 2009cc8:	0b 40 80 00 	MOV        R2,R1
 2009ccc:	08 c0 20 00 	OR         $8192,R1
 2009cd0:	0d 46 80 0c 	SH         R1,$12(R10)
 2009cd4:	13 40 c0 00 	MOV        R3,R2
 2009cd8:	10 43 df ff 	AND        $-8193,R2
 2009cdc:	14 c6 80 68 	SW         R2,$104(R10)
 2009ce0:	08 40 ff ff 	AND        $65535,R1
 2009ce4:	97 88 91 08 	MOV        R1,R2          | AND        $8,R2
 2009ce8:	78 88 00 0c 	BZ         @0x02009cf8    // 2009cf8 <_vfiprintf_r+0x98>
 2009cec:	14 86 80 10 	LW         16(R10),R2
 2009cf0:	14 00 00 00 	CMP        $0,R2
 2009cf4:	78 a8 00 18 	BNZ        @0x02009d10    // 2009d10 <_vfiprintf_r+0xb0>
 2009cf8:	97 d0 8f c0 	MOV        R10,R2         | MOV        R8,R1
 2009cfc:	87 fa fc f8 	JSR        0x02003b98     // 2003b98 <__swsetup_r>
 2009d00:	02 00 3b 98 
 2009d04:	0c 00 00 00 	CMP        $0,R1
 2009d08:	78 a8 15 4c 	BNZ        @0x0200b258    // 200b258 <_vfiprintf_r+0x15f8>
 2009d0c:	0d 06 80 0c 	LH         12(R10),R1
 2009d10:	89 1a 8b 0a 	AND        $26,R1         | CMP        $10,R1
 2009d14:	78 a8 00 2c 	BNZ        @0x02009d44    // 2009d44 <_vfiprintf_r+0xe4>
 2009d18:	0d 06 80 0e 	LH         14(R10),R1
 2009d1c:	09 80 00 10 	LSL        $16,R1
 2009d20:	09 c0 00 10 	ASR        $16,R1
 2009d24:	0c 00 00 00 	CMP        $0,R1
 2009d28:	78 90 00 18 	BLT        @0x02009d44    // 2009d44 <_vfiprintf_r+0xe4>
 2009d2c:	a4 18 9f a8 	LW         24(SP),R4      | MOV        R5,R3
 2009d30:	97 d0 8f c0 	MOV        R10,R2         | MOV        R8,R1
 2009d34:	87 fa fc f8 	JSR        0x0200b490     // 200b490 <__sbprintf>
 2009d38:	02 00 b4 90 
 2009d3c:	0c c7 40 1c 	SW         R1,$28(SP)
 2009d40:	78 80 16 fc 	BRA        @0x0200b440    // 200b440 <_vfiprintf_r+0x17e0>
 2009d44:	4b 43 40 00 	MOV        SP,R9
 2009d48:	48 80 00 7c 	ADD        $124,R9
 2009d4c:	4c c7 40 00 	SW         R9,(SP)
 2009d50:	4c c7 40 48 	SW         R9,$72(SP)
 2009d54:	0e 00 00 00 	CLR        R1
 2009d58:	0c c7 40 50 	SW         R1,$80(SP)
 2009d5c:	0c c7 40 4c 	SW         R1,$76(SP)
 2009d60:	ad 08 8d 2c 	SW         R5,$8(SP)      | SW         R1,$44(SP)
 2009d64:	0c c7 40 1c 	SW         R1,$28(SP)
 2009d68:	2c 87 40 08 	LW         8(SP),R5
 2009d6c:	15 85 40 00 	LB         (R5),R2
 2009d70:	93 25 8e 00 	CMP        $37,R2         | CLR        R1
 2009d74:	0a 68 00 01 	LDILO.NZ   $1,R1
 2009d78:	93 00 9e 00 	CMP        $0,R2          | CLR        R3
 2009d7c:	1a 68 00 01 	LDILO.NZ   $1,R3
 2009d80:	08 44 c0 00 	AND        R3,R1
 2009d84:	78 88 01 08 	BZ         @0x02009e90    // 2009e90 <_vfiprintf_r+0x230>
 2009d88:	28 80 00 01 	ADD        $1,R5
 2009d8c:	15 85 40 00 	LB         (R5),R2
 2009d90:	93 00 8e 00 	CMP        $0,R2          | CLR        R1
 2009d94:	0a 68 00 01 	LDILO.NZ   $1,R1
 2009d98:	93 25 9e 00 	CMP        $37,R2         | CLR        R3
 2009d9c:	1a 68 00 01 	LDILO.NZ   $1,R3
 2009da0:	08 44 c0 00 	AND        R3,R1
 2009da4:	78 ab ff e0 	BNZ        @0x02009d88    // 2009d88 <_vfiprintf_r+0x128>
 2009da8:	b7 a8 8c 08 	MOV        R5,R6          | LW         8(SP),R1
 2009dac:	30 04 40 00 	SUB        R1,R6
 2009db0:	78 88 00 dc 	BZ         @0x02009e90    // 2009e90 <_vfiprintf_r+0x230>
 2009db4:	0c c6 40 00 	SW         R1,(R9)
 2009db8:	34 c6 40 04 	SW         R6,$4(R9)
 2009dbc:	0c 87 40 50 	LW         80(SP),R1
 2009dc0:	97 b0 92 88 	MOV        R6,R2          | ADD        R1,R2
 2009dc4:	14 c7 40 50 	SW         R2,$80(SP)
 2009dc8:	0c 87 40 4c 	LW         76(SP),R1
 2009dcc:	08 80 00 01 	ADD        $1,R1
 2009dd0:	0c c7 40 4c 	SW         R1,$76(SP)
 2009dd4:	ca 08 8b 08 	ADD        $8,R9          | CMP        $8,R1
 2009dd8:	78 90 00 a4 	BLT        @0x02009e80    // 2009e80 <_vfiprintf_r+0x220>
 2009ddc:	14 00 00 00 	CMP        $0,R2
 2009de0:	78 a8 00 0c 	BNZ        @0x02009df0    // 2009df0 <_vfiprintf_r+0x190>
 2009de4:	14 c7 40 4c 	SW         R2,$76(SP)
 2009de8:	4b 43 40 7c 	MOV        $124+SP,R9
 2009dec:	78 80 00 90 	BRA        @0x02009e80    // 2009e80 <_vfiprintf_r+0x220>
 2009df0:	3c 86 80 68 	LW         104(R10),R7
 2009df4:	38 40 20 00 	AND        $8192,R7
 2009df8:	78 88 00 60 	BZ         @0x02009e5c    // 2009e5c <_vfiprintf_r+0x1fc>
 2009dfc:	5c 87 40 48 	LW         72(SP),R11
 2009e00:	2c c7 40 08 	SW         R5,$8(SP)
 2009e04:	3c 86 c0 00 	LW         (R11),R7
 2009e08:	64 86 c0 04 	LW         4(R11),R12
 2009e0c:	4b 43 00 00 	MOV        R12,R9
 2009e10:	49 40 00 02 	LSR        $2,R9
 2009e14:	78 88 00 2c 	BZ         @0x02009e44    // 2009e44 <_vfiprintf_r+0x1e4>
 2009e18:	2e 00 00 00 	CLR        R5
 2009e1c:	9f d0 94 b8 	MOV        R10,R3         | LW         (R7),R2
 2009e20:	0b 42 00 00 	MOV        R8,R1
 2009e24:	87 fa fc f8 	JSR        0x0200b920     // 200b920 <_fputwc_r>
 2009e28:	02 00 b9 20 
 2009e2c:	0c 03 ff ff 	CMP        $-1,R1
 2009e30:	78 88 13 c4 	BZ         @0x0200b1f8    // 200b1f8 <_vfiprintf_r+0x1598>
 2009e34:	aa 01 ba 04 	ADD        $1,R5          | ADD        $4,R7
 2009e38:	4c 05 40 00 	CMP        R5,R9
 2009e3c:	78 ab ff dc 	BNZ        @0x02009e1c    // 2009e1c <_vfiprintf_r+0x1bc>
 2009e40:	14 87 40 50 	LW         80(SP),R2
 2009e44:	e1 7c 90 e0 	AND        $-4,R12        | SUB        R12,R2
 2009e48:	14 c7 40 50 	SW         R2,$80(SP)
 2009e4c:	da 08 93 00 	ADD        $8,R11         | CMP        $0,R2
 2009e50:	78 ab ff b0 	BNZ        @0x02009e04    // 2009e04 <_vfiprintf_r+0x1a4>
 2009e54:	2c 87 40 08 	LW         8(SP),R5
 2009e58:	78 80 14 04 	BRA        @0x0200b260    // 200b260 <_vfiprintf_r+0x1600>
 2009e5c:	1b 43 40 48 	MOV        $72+SP,R3
 2009e60:	97 d0 8f c0 	MOV        R10,R2         | MOV        R8,R1
 2009e64:	87 fa fc f8 	JSR        0x02006908     // 2006908 <__sfvwrite_r>
 2009e68:	02 00 69 08 
 2009e6c:	3c c7 40 50 	SW         R7,$80(SP)
 2009e70:	3c c7 40 4c 	SW         R7,$76(SP)
 2009e74:	0c 00 00 00 	CMP        $0,R1
 2009e78:	78 a8 13 80 	BNZ        @0x0200b1fc    // 200b1fc <_vfiprintf_r+0x159c>
 2009e7c:	4b 43 40 7c 	MOV        $124+SP,R9
 2009e80:	94 1c 92 b0 	LW         28(SP),R2      | ADD        R6,R2
 2009e84:	14 c7 40 1c 	SW         R2,$28(SP)
 2009e88:	15 85 40 00 	LB         (R5),R2
 2009e8c:	78 80 00 00 	BRA        @0x02009e90    // 2009e90 <_vfiprintf_r+0x230>
 2009e90:	14 00 00 00 	CMP        $0,R2
 2009e94:	78 88 12 d8 	BZ         @0x0200b170    // 200b170 <_vfiprintf_r+0x1510>
 2009e98:	8f a8 8a 01 	MOV        R5,R1          | ADD        $1,R1
 2009e9c:	1e 00 00 00 	CLR        R3
 2009ea0:	1d c7 40 45 	SB         R3,$69(SP)
 2009ea4:	9e 00 de 00 	CLR        R3             | CLR        R11
 2009ea8:	e6 ff ae 00 	LDI        $-1,R12        | CLR        R5
 2009eac:	9d 0c a6 01 	SW         R3,$12(SP)     | LDI        $1,R4
 2009eb0:	b6 2b be 20 	LDI        $43,R6         | LDI        $32,R7
 2009eb4:	4c c7 40 04 	SW         R9,$4(SP)
 2009eb8:	78 80 00 18 	BRA        @0x02009ed4    // 2009ed4 <_vfiprintf_r+0x274>
 2009ebc:	9f a0 df b0 	MOV        R4,R3          | MOV        R6,R11
 2009ec0:	78 80 00 0c 	BRA        @0x02009ed0    // 2009ed0 <_vfiprintf_r+0x270>
 2009ec4:	9f a0 df b8 	MOV        R4,R3          | MOV        R7,R11
 2009ec8:	78 80 00 04 	BRA        @0x02009ed0    // 2009ed0 <_vfiprintf_r+0x270>
 2009ecc:	0c c7 40 18 	SW         R1,$24(SP)
 2009ed0:	0b 40 80 00 	MOV        R2,R1
 2009ed4:	97 88 92 01 	MOV        R1,R2          | ADD        $1,R2
 2009ed8:	0d 84 40 00 	LB         (R1),R1
 2009edc:	0c 00 00 58 	CMP        $88,R1
 2009ee0:	78 88 01 38 	BZ         @0x0200a01c    // 200a01c <_vfiprintf_r+0x3bc>
 2009ee4:	0c 00 00 59 	CMP        $89,R1
 2009ee8:	78 b0 00 8c 	BGE        @0x02009f78    // 2009f78 <_vfiprintf_r+0x318>
 2009eec:	0c 00 00 2e 	CMP        $46,R1
 2009ef0:	78 88 01 80 	BZ         @0x0200a074    // 200a074 <_vfiprintf_r+0x414>
 2009ef4:	0c 00 00 2f 	CMP        $47,R1
 2009ef8:	78 b0 00 3c 	BGE        @0x02009f38    // 2009f38 <_vfiprintf_r+0x2d8>
 2009efc:	0c 00 00 2a 	CMP        $42,R1
 2009f00:	78 88 01 4c 	BZ         @0x0200a050    // 200a050 <_vfiprintf_r+0x3f0>
 2009f04:	0c 00 00 2b 	CMP        $43,R1
 2009f08:	78 b0 00 18 	BGE        @0x02009f24    // 2009f24 <_vfiprintf_r+0x2c4>
 2009f0c:	0c 00 00 20 	CMP        $32,R1
 2009f10:	78 88 01 28 	BZ         @0x0200a03c    // 200a03c <_vfiprintf_r+0x3dc>
 2009f14:	0c 00 00 23 	CMP        $35,R1
 2009f18:	78 88 01 2c 	BZ         @0x0200a048    // 200a048 <_vfiprintf_r+0x3e8>
 2009f1c:	95 08 cc 04 	SW         R2,$8(SP)      | LW         4(SP),R9
 2009f20:	78 80 07 d8 	BRA        @0x0200a6fc    // 200a6fc <_vfiprintf_r+0xa9c>
 2009f24:	78 8b ff 94 	BZ         @0x02009ebc    // 2009ebc <_vfiprintf_r+0x25c>
 2009f28:	0c 00 00 2d 	CMP        $45,R1
 2009f2c:	78 88 01 3c 	BZ         @0x0200a06c    // 200a06c <_vfiprintf_r+0x40c>
 2009f30:	95 08 cc 04 	SW         R2,$8(SP)      | LW         4(SP),R9
 2009f34:	78 80 07 c4 	BRA        @0x0200a6fc    // 200a6fc <_vfiprintf_r+0xa9c>
 2009f38:	0c 00 00 3a 	CMP        $58,R1
 2009f3c:	78 b0 00 18 	BGE        @0x02009f58    // 2009f58 <_vfiprintf_r+0x2f8>
 2009f40:	0c 00 00 31 	CMP        $49,R1
 2009f44:	78 b0 01 a0 	BGE        @0x0200a0e8    // 200a0e8 <_vfiprintf_r+0x488>
 2009f48:	0c 00 00 30 	CMP        $48,R1
 2009f4c:	78 88 01 90 	BZ         @0x0200a0e0    // 200a0e0 <_vfiprintf_r+0x480>
 2009f50:	95 08 cc 04 	SW         R2,$8(SP)      | LW         4(SP),R9
 2009f54:	78 80 07 a4 	BRA        @0x0200a6fc    // 200a6fc <_vfiprintf_r+0xa9c>
 2009f58:	95 08 cc 04 	SW         R2,$8(SP)      | LW         4(SP),R9
 2009f5c:	0c 00 00 4f 	CMP        $79,R1
 2009f60:	78 88 03 30 	BZ         @0x0200a294    // 200a294 <_vfiprintf_r+0x634>
 2009f64:	0c 00 00 55 	CMP        $85,R1
 2009f68:	78 88 04 50 	BZ         @0x0200a3bc    // 200a3bc <_vfiprintf_r+0x75c>
 2009f6c:	0c 00 00 44 	CMP        $68,R1
 2009f70:	78 a8 07 88 	BNZ        @0x0200a6fc    // 200a6fc <_vfiprintf_r+0xa9c>
 2009f74:	78 80 01 ec 	BRA        @0x0200a164    // 200a164 <_vfiprintf_r+0x504>
 2009f78:	0c 00 00 6e 	CMP        $110,R1
 2009f7c:	78 88 02 b8 	BZ         @0x0200a238    // 200a238 <_vfiprintf_r+0x5d8>
 2009f80:	0c 00 00 6f 	CMP        $111,R1
 2009f84:	78 b0 00 3c 	BGE        @0x02009fc4    // 2009fc4 <_vfiprintf_r+0x364>
 2009f88:	0c 00 00 68 	CMP        $104,R1
 2009f8c:	78 88 01 90 	BZ         @0x0200a120    // 200a120 <_vfiprintf_r+0x4c0>
 2009f90:	0c 00 00 69 	CMP        $105,R1
 2009f94:	78 b0 00 18 	BGE        @0x02009fb0    // 2009fb0 <_vfiprintf_r+0x350>
 2009f98:	95 08 cc 04 	SW         R2,$8(SP)      | LW         4(SP),R9
 2009f9c:	0c 00 00 63 	CMP        $99,R1
 2009fa0:	78 88 01 94 	BZ         @0x0200a138    // 200a138 <_vfiprintf_r+0x4d8>
 2009fa4:	0c 00 00 64 	CMP        $100,R1
 2009fa8:	78 88 00 60 	BZ         @0x0200a00c    // 200a00c <_vfiprintf_r+0x3ac>
 2009fac:	78 80 07 4c 	BRA        @0x0200a6fc    // 200a6fc <_vfiprintf_r+0xa9c>
 2009fb0:	78 88 00 54 	BZ         @0x0200a008    // 200a008 <_vfiprintf_r+0x3a8>
 2009fb4:	0c 00 00 6c 	CMP        $108,R1
 2009fb8:	78 88 01 6c 	BZ         @0x0200a128    // 200a128 <_vfiprintf_r+0x4c8>
 2009fbc:	95 08 cc 04 	SW         R2,$8(SP)      | LW         4(SP),R9
 2009fc0:	78 80 07 38 	BRA        @0x0200a6fc    // 200a6fc <_vfiprintf_r+0xa9c>
 2009fc4:	0c 00 00 71 	CMP        $113,R1
 2009fc8:	78 88 01 64 	BZ         @0x0200a130    // 200a130 <_vfiprintf_r+0x4d0>
 2009fcc:	95 08 cc 04 	SW         R2,$8(SP)      | LW         4(SP),R9
 2009fd0:	0c 00 00 72 	CMP        $114,R1
 2009fd4:	78 b0 00 14 	BGE        @0x02009fec    // 2009fec <_vfiprintf_r+0x38c>
 2009fd8:	0c 00 00 6f 	CMP        $111,R1
 2009fdc:	78 88 02 b8 	BZ         @0x0200a298    // 200a298 <_vfiprintf_r+0x638>
 2009fe0:	0c 00 00 70 	CMP        $112,R1
 2009fe4:	78 88 03 10 	BZ         @0x0200a2f8    // 200a2f8 <_vfiprintf_r+0x698>
 2009fe8:	78 80 07 10 	BRA        @0x0200a6fc    // 200a6fc <_vfiprintf_r+0xa9c>
 2009fec:	0c 00 00 75 	CMP        $117,R1
 2009ff0:	78 88 03 cc 	BZ         @0x0200a3c0    // 200a3c0 <_vfiprintf_r+0x760>
 2009ff4:	0c 00 00 78 	CMP        $120,R1
 2009ff8:	78 88 04 24 	BZ         @0x0200a420    // 200a420 <_vfiprintf_r+0x7c0>
 2009ffc:	0c 00 00 73 	CMP        $115,R1
 200a000:	78 a8 06 f8 	BNZ        @0x0200a6fc    // 200a6fc <_vfiprintf_r+0xa9c>
 200a004:	78 80 03 2c 	BRA        @0x0200a334    // 200a334 <_vfiprintf_r+0x6d4>
 200a008:	95 08 cc 04 	SW         R2,$8(SP)      | LW         4(SP),R9
 200a00c:	1c 00 00 00 	CMP        $0,R3
 200a010:	78 88 01 5c 	BZ         @0x0200a170    // 200a170 <_vfiprintf_r+0x510>
 200a014:	5d c7 40 45 	SB         R11,$69(SP)
 200a018:	78 80 01 54 	BRA        @0x0200a170    // 200a170 <_vfiprintf_r+0x510>
 200a01c:	95 08 cc 04 	SW         R2,$8(SP)      | LW         4(SP),R9
 200a020:	1c 00 00 00 	CMP        $0,R3
 200a024:	5d ef 40 45 	SB.NZ      R11,$69(SP)
 200a028:	1e 00 00 58 	LDI        $88,R3
 200a02c:	0a 03 00 40 	LDI        0x0200e3bc,R1  // 200e3bc <_global_impure_ptr+0x18>
 200a030:	0a 40 e3 bc 
 200a034:	0c c7 40 2c 	SW         R1,$44(SP)
 200a038:	78 80 03 fc 	BRA        @0x0200a438    // 200a438 <_vfiprintf_r+0x7d8>
 200a03c:	5c 00 00 00 	CMP        $0,R11
 200a040:	78 8b fe 80 	BZ         @0x02009ec4    // 2009ec4 <_vfiprintf_r+0x264>
 200a044:	78 83 fe 88 	BRA        @0x02009ed0    // 2009ed0 <_vfiprintf_r+0x270>
 200a048:	28 c0 00 01 	OR         $1,R5
 200a04c:	78 83 fe 80 	BRA        @0x02009ed0    // 2009ed0 <_vfiprintf_r+0x270>
 200a050:	8c 18 8a 04 	LW         24(SP),R1      | ADD        $4,R1
 200a054:	cc 18 cc c8 	LW         24(SP),R9      | LW         (R9),R9
 200a058:	cd 0c cb 00 	SW         R9,$12(SP)     | CMP        $0,R9
 200a05c:	78 b3 fe 6c 	BGE        @0x02009ecc    // 2009ecc <_vfiprintf_r+0x26c>
 200a060:	4b 42 5f ff 	MOV        $-1+R9,R9
 200a064:	49 03 ff ff 	XOR        $-1,R9
 200a068:	cd 0c 8d 18 	SW         R9,$12(SP)     | SW         R1,$24(SP)
 200a06c:	28 c0 00 04 	OR         $4,R5
 200a070:	78 83 fe 5c 	BRA        @0x02009ed0    // 2009ed0 <_vfiprintf_r+0x270>
 200a074:	e7 90 e2 01 	MOV        R2,R12         | ADD        $1,R12
 200a078:	0d 84 80 00 	LB         (R2),R1
 200a07c:	0c 00 00 2a 	CMP        $42,R1
 200a080:	78 88 00 14 	BZ         @0x0200a098    // 200a098 <_vfiprintf_r+0x438>
 200a084:	cf 88 ca 50 	MOV        R1,R9          | ADD        $-48,R9
 200a088:	4c 00 00 0a 	CMP        $10,R9
 200a08c:	78 98 00 24 	BC         @0x0200a0b4    // 200a0b4 <_vfiprintf_r+0x454>
 200a090:	97 e0 e6 00 	MOV        R12,R2         | CLR        R12
 200a094:	78 83 fe 44 	BRA        @0x02009edc    // 2009edc <_vfiprintf_r+0x27c>
 200a098:	8f e0 cc 18 	MOV        R12,R1         | LW         24(SP),R9
 200a09c:	e4 c8 96 ff 	LW         (R9),R12       | LDI        $-1,R2
 200a0a0:	64 04 80 00 	CMP        R2,R12
 200a0a4:	63 50 80 00 	MOV.LT     R2,R12
 200a0a8:	4b 42 40 04 	MOV        $4+R9,R9
 200a0ac:	cd 18 97 88 	SW         R9,$24(SP)     | MOV        R1,R2
 200a0b0:	78 83 fe 1c 	BRA        @0x02009ed0    // 2009ed0 <_vfiprintf_r+0x270>
 200a0b4:	97 e0 e6 00 	MOV        R12,R2         | CLR        R12
 200a0b8:	0b 43 00 00 	MOV        R12,R1
 200a0bc:	09 80 00 02 	LSL        $2,R1
 200a0c0:	8a e0 8a 88 	ADD        R12,R1         | ADD        R1,R1
 200a0c4:	e7 88 e2 c8 	MOV        R1,R12         | ADD        R9,R12
 200a0c8:	10 80 00 01 	ADD        $1,R2
 200a0cc:	0d 84 bf ff 	LB         -1(R2),R1
 200a0d0:	cf 88 ca 50 	MOV        R1,R9          | ADD        $-48,R9
 200a0d4:	4c 00 00 0a 	CMP        $10,R9
 200a0d8:	78 9b ff dc 	BC         @0x0200a0b8    // 200a0b8 <_vfiprintf_r+0x458>
 200a0dc:	78 83 fd fc 	BRA        @0x02009edc    // 2009edc <_vfiprintf_r+0x27c>
 200a0e0:	28 c0 00 80 	OR         $128,R5
 200a0e4:	78 83 fd e8 	BRA        @0x02009ed0    // 2009ed0 <_vfiprintf_r+0x270>
 200a0e8:	ce 00 cd 0c 	CLR        R9             | SW         R9,$12(SP)
 200a0ec:	4b 40 5f d0 	MOV        $-48+R1,R9
 200a0f0:	ad 08 ae 00 	SW         R5,$8(SP)      | CLR        R5
 200a0f4:	0b 41 40 00 	MOV        R5,R1
 200a0f8:	09 80 00 02 	LSL        $2,R1
 200a0fc:	8a a8 8a 88 	ADD        R5,R1          | ADD        R1,R1
 200a100:	af c8 aa 88 	MOV        R9,R5          | ADD        R1,R5
 200a104:	10 80 00 01 	ADD        $1,R2
 200a108:	0d 84 bf ff 	LB         -1(R2),R1
 200a10c:	cf 88 ca 50 	MOV        R1,R9          | ADD        $-48,R9
 200a110:	4c 00 00 0a 	CMP        $10,R9
 200a114:	78 9b ff dc 	BC         @0x0200a0f4    // 200a0f4 <_vfiprintf_r+0x494>
 200a118:	ad 0c ac 08 	SW         R5,$12(SP)     | LW         8(SP),R5
 200a11c:	78 83 fd bc 	BRA        @0x02009edc    // 2009edc <_vfiprintf_r+0x27c>
 200a120:	28 c0 00 40 	OR         $64,R5
 200a124:	78 83 fd a8 	BRA        @0x02009ed0    // 2009ed0 <_vfiprintf_r+0x270>
 200a128:	28 c0 00 10 	OR         $16,R5
 200a12c:	78 83 fd a0 	BRA        @0x02009ed0    // 2009ed0 <_vfiprintf_r+0x270>
 200a130:	28 c0 00 10 	OR         $16,R5
 200a134:	78 83 fd 98 	BRA        @0x02009ed0    // 2009ed0 <_vfiprintf_r+0x270>
 200a138:	94 18 8c 90 	LW         24(SP),R2      | LW         (R2),R1
 200a13c:	0d c7 40 54 	SB         R1,$84(SP)
 200a140:	1e 00 00 00 	CLR        R3
 200a144:	1d c7 40 45 	SB         R3,$69(SP)
 200a148:	13 40 80 04 	MOV        $4+R2,R2
 200a14c:	95 18 a6 01 	SW         R2,$24(SP)     | LDI        $1,R4
 200a150:	a5 04 a5 14 	SW         R4,$4(SP)      | SW         R4,$20(SP)
 200a154:	23 43 40 00 	MOV        SP,R4
 200a158:	20 80 00 54 	ADD        $84,R4
 200a15c:	24 c7 40 30 	SW         R4,$48(SP)
 200a160:	78 80 11 08 	BRA        @0x0200b26c    // 200b26c <_vfiprintf_r+0x160c>
 200a164:	1c 00 00 00 	CMP        $0,R3
 200a168:	5d ef 40 45 	SB.NZ      R11,$69(SP)
 200a16c:	28 c0 00 10 	OR         $16,R5
 200a170:	8f a8 89 10 	MOV        R5,R1          | AND        $16,R1
 200a174:	78 88 00 24 	BZ         @0x0200a19c    // 200a19c <_vfiprintf_r+0x53c>
 200a178:	94 18 8c 90 	LW         24(SP),R2      | LW         (R2),R1
 200a17c:	14 84 80 04 	LW         4(R2),R2
 200a180:	0c c7 40 3c 	SW         R1,$60(SP)
 200a184:	14 c7 40 40 	SW         R2,$64(SP)
 200a188:	8d 24 95 28 	SW         R1,$36(SP)     | SW         R2,$40(SP)
 200a18c:	1c 87 40 18 	LW         24(SP),R3
 200a190:	1b 40 c0 08 	MOV        $8+R3,R3
 200a194:	1c c7 40 18 	SW         R3,$24(SP)
 200a198:	78 80 00 60 	BRA        @0x0200a1fc    // 200a1fc <_vfiprintf_r+0x59c>
 200a19c:	0b 41 40 00 	MOV        R5,R1
 200a1a0:	08 40 00 40 	AND        $64,R1
 200a1a4:	78 88 00 30 	BZ         @0x0200a1d8    // 200a1d8 <_vfiprintf_r+0x578>
 200a1a8:	a4 18 8c a0 	LW         24(SP),R4      | LW         (R4),R1
 200a1ac:	09 80 00 10 	LSL        $16,R1
 200a1b0:	09 c0 00 10 	ASR        $16,R1
 200a1b4:	8d 28 97 88 	SW         R1,$40(SP)     | MOV        R1,R2
 200a1b8:	11 c0 00 1f 	ASR        $31,R2
 200a1bc:	14 c7 40 24 	SW         R2,$36(SP)
 200a1c0:	0c c7 40 40 	SW         R1,$64(SP)
 200a1c4:	14 c7 40 3c 	SW         R2,$60(SP)
 200a1c8:	23 41 00 04 	MOV        $4+R4,R4
 200a1cc:	a5 18 8c 3c 	SW         R4,$24(SP)     | LW         60(SP),R1
 200a1d0:	14 87 40 40 	LW         64(SP),R2
 200a1d4:	78 80 00 24 	BRA        @0x0200a1fc    // 200a1fc <_vfiprintf_r+0x59c>
 200a1d8:	94 18 8c 90 	LW         24(SP),R2      | LW         (R2),R1
 200a1dc:	8d 28 97 88 	SW         R1,$40(SP)     | MOV        R1,R2
 200a1e0:	11 c0 00 1f 	ASR        $31,R2
 200a1e4:	14 c7 40 24 	SW         R2,$36(SP)
 200a1e8:	0c c7 40 40 	SW         R1,$64(SP)
 200a1ec:	95 3c 9c 18 	SW         R2,$60(SP)     | LW         24(SP),R3
 200a1f0:	1b 40 c0 04 	MOV        $4+R3,R3
 200a1f4:	9d 18 8c 3c 	SW         R3,$24(SP)     | LW         60(SP),R1
 200a1f8:	14 87 40 40 	LW         64(SP),R2
 200a1fc:	0c 00 00 00 	CMP        $0,R1
 200a200:	78 90 00 0c 	BLT        @0x0200a210    // 200a210 <_vfiprintf_r+0x5b0>
 200a204:	35 87 40 45 	LB         69(SP),R6
 200a208:	1e 00 00 01 	LDI        $1,R3
 200a20c:	78 80 02 cc 	BRA        @0x0200a4dc    // 200a4dc <_vfiprintf_r+0x87c>
 200a210:	94 24 9c 28 	LW         36(SP),R2      | LW         40(SP),R3
 200a214:	19 03 ff ff 	XOR        $-1,R3
 200a218:	11 03 ff ff 	XOR        $-1,R2
 200a21c:	18 80 00 01 	ADD        $1,R3
 200a220:	10 98 00 01 	ADD.C      $1,R2
 200a224:	95 24 9d 28 	SW         R2,$36(SP)     | SW         R3,$40(SP)
 200a228:	1e 00 00 2d 	LDI        $45,R3
 200a22c:	1d c7 40 45 	SB         R3,$69(SP)
 200a230:	b6 2d 9e 01 	LDI        $45,R6         | LDI        $1,R3
 200a234:	78 80 02 a4 	BRA        @0x0200a4dc    // 200a4dc <_vfiprintf_r+0x87c>
 200a238:	95 08 cc 04 	SW         R2,$8(SP)      | LW         4(SP),R9
 200a23c:	1c 00 00 00 	CMP        $0,R3
 200a240:	5d ef 40 45 	SB.NZ      R11,$69(SP)
 200a244:	8f a8 89 10 	MOV        R5,R1          | AND        $16,R1
 200a248:	78 88 00 24 	BZ         @0x0200a270    // 200a270 <_vfiprintf_r+0x610>
 200a24c:	ac 18 8c a8 	LW         24(SP),R5      | LW         (R5),R1
 200a250:	2c 87 40 1c 	LW         28(SP),R5
 200a254:	2c c4 40 04 	SW         R5,$4(R1)
 200a258:	13 41 40 00 	MOV        R5,R2
 200a25c:	11 c0 00 1f 	ASR        $31,R2
 200a260:	95 88 ac 18 	SW         R2,(R1)        | LW         24(SP),R5
 200a264:	2b 41 40 04 	MOV        $4+R5,R5
 200a268:	2c c7 40 18 	SW         R5,$24(SP)
 200a26c:	78 83 fa f8 	BRA        @0x02009d68    // 2009d68 <_vfiprintf_r+0x108>
 200a270:	28 40 00 40 	AND        $64,R5
 200a274:	ac 18 8c a8 	LW         24(SP),R5      | LW         (R5),R1
 200a278:	2c 87 40 1c 	LW         28(SP),R5
 200a27c:	2d 6c 40 00 	SH.NZ      R5,(R1)
 200a280:	2c cc 40 00 	SW.Z       R5,(R1)
 200a284:	2c 87 40 18 	LW         24(SP),R5
 200a288:	2b 41 40 04 	MOV        $4+R5,R5
 200a28c:	2c c7 40 18 	SW         R5,$24(SP)
 200a290:	78 83 fa d4 	BRA        @0x02009d68    // 2009d68 <_vfiprintf_r+0x108>
 200a294:	28 c0 00 10 	OR         $16,R5
 200a298:	8f a8 89 10 	MOV        R5,R1          | AND        $16,R1
 200a29c:	78 88 00 1c 	BZ         @0x0200a2bc    // 200a2bc <_vfiprintf_r+0x65c>
 200a2a0:	94 18 8c 90 	LW         24(SP),R2      | LW         (R2),R1
 200a2a4:	14 84 80 04 	LW         4(R2),R2
 200a2a8:	8d 24 95 28 	SW         R1,$36(SP)     | SW         R2,$40(SP)
 200a2ac:	1c 87 40 18 	LW         24(SP),R3
 200a2b0:	1b 40 c0 08 	MOV        $8+R3,R3
 200a2b4:	9d 18 9e 00 	SW         R3,$24(SP)     | CLR        R3
 200a2b8:	78 80 02 14 	BRA        @0x0200a4d0    // 200a4d0 <_vfiprintf_r+0x870>
 200a2bc:	13 41 40 00 	MOV        R5,R2
 200a2c0:	10 40 00 40 	AND        $64,R2
 200a2c4:	78 88 00 18 	BZ         @0x0200a2e0    // 200a2e0 <_vfiprintf_r+0x680>
 200a2c8:	a4 18 94 a0 	LW         24(SP),R4      | LW         (R4),R2
 200a2cc:	10 40 ff ff 	AND        $65535,R2
 200a2d0:	95 28 8d 24 	SW         R2,$40(SP)     | SW         R1,$36(SP)
 200a2d4:	23 41 00 04 	MOV        $4+R4,R4
 200a2d8:	a5 18 9e 00 	SW         R4,$24(SP)     | CLR        R3
 200a2dc:	78 80 01 f0 	BRA        @0x0200a4d0    // 200a4d0 <_vfiprintf_r+0x870>
 200a2e0:	8c 18 8c 88 	LW         24(SP),R1      | LW         (R1),R1
 200a2e4:	8d 28 95 24 	SW         R1,$40(SP)     | SW         R2,$36(SP)
 200a2e8:	14 87 40 18 	LW         24(SP),R2
 200a2ec:	13 40 80 04 	MOV        $4+R2,R2
 200a2f0:	95 18 9e 00 	SW         R2,$24(SP)     | CLR        R3
 200a2f4:	78 80 01 d8 	BRA        @0x0200a4d0    // 200a4d0 <_vfiprintf_r+0x870>
 200a2f8:	9c 18 9c 98 	LW         24(SP),R3      | LW         (R3),R3
 200a2fc:	9d 28 a6 00 	SW         R3,$40(SP)     | CLR        R4
 200a300:	24 c7 40 24 	SW         R4,$36(SP)
 200a304:	28 c0 00 02 	OR         $2,R5
 200a308:	0e 00 00 30 	LDI        $48,R1
 200a30c:	0d c7 40 46 	SB         R1,$70(SP)
 200a310:	16 00 00 78 	LDI        $120,R2
 200a314:	15 c7 40 47 	SB         R2,$71(SP)
 200a318:	1c 87 40 18 	LW         24(SP),R3
 200a31c:	1b 40 c0 04 	MOV        $4+R3,R3
 200a320:	1c c7 40 18 	SW         R3,$24(SP)
 200a324:	22 03 00 40 	LDI        0x0200e3d0,R4  // 200e3d0 <_global_impure_ptr+0x2c>
 200a328:	22 40 e3 d0 
 200a32c:	a5 2c 9e 02 	SW         R4,$44(SP)     | LDI        $2,R3
 200a330:	78 80 01 9c 	BRA        @0x0200a4d0    // 200a4d0 <_vfiprintf_r+0x870>
 200a334:	bc 18 ba 04 	LW         24(SP),R7      | ADD        $4,R7
 200a338:	8c 18 8c 88 	LW         24(SP),R1      | LW         (R1),R1
 200a33c:	8d 30 96 00 	SW         R1,$48(SP)     | CLR        R2
 200a340:	15 c7 40 45 	SB         R2,$69(SP)
 200a344:	0c 00 00 00 	CMP        $0,R1
 200a348:	78 a8 00 20 	BNZ        @0x0200a36c    // 200a36c <_vfiprintf_r+0x70c>
 200a34c:	8e 06 e3 88 	LDI        $6,R1          | CMP        R1,R12
 200a350:	0b 5b 00 00 	MOV.C      R12,R1
 200a354:	8d 14 8d 04 	SW         R1,$20(SP)     | SW         R1,$4(SP)
 200a358:	3c c7 40 18 	SW         R7,$24(SP)
 200a35c:	22 03 00 40 	LDI        0x0200e3e4,R4  // 200e3e4 <_global_impure_ptr+0x40>
 200a360:	22 40 e3 e4 
 200a364:	24 c7 40 30 	SW         R4,$48(SP)
 200a368:	78 80 0f 00 	BRA        @0x0200b26c    // 200b26c <_vfiprintf_r+0x160c>
 200a36c:	64 03 ff ff 	CMP        $-1,R12
 200a370:	78 88 00 2c 	BZ         @0x0200a3a0    // 200a3a0 <_vfiprintf_r+0x740>
 200a374:	9f e0 96 00 	MOV        R12,R3         | CLR        R2
 200a378:	87 fa fc f8 	JSR        0x02007354     // 2007354 <memchr>
 200a37c:	02 00 73 54 
 200a380:	0c 00 00 00 	CMP        $0,R1
 200a384:	78 88 03 a4 	BZ         @0x0200a72c    // 200a72c <_vfiprintf_r+0xacc>
 200a388:	a4 30 88 a0 	LW         48(SP),R4      | SUB        R4,R1
 200a38c:	0c c7 40 14 	SW         R1,$20(SP)
 200a390:	35 87 40 45 	LB         69(SP),R6
 200a394:	bd 18 ad 10 	SW         R7,$24(SP)     | SW         R5,$16(SP)
 200a398:	e6 00 af 88 	CLR        R12            | MOV        R1,R5
 200a39c:	78 80 03 9c 	BRA        @0x0200a73c    // 200a73c <_vfiprintf_r+0xadc>
 200a3a0:	87 fa fc f8 	JSR        0x0200191c     // 200191c <strlen>
 200a3a4:	02 00 19 1c 
 200a3a8:	0c c7 40 14 	SW         R1,$20(SP)
 200a3ac:	35 87 40 45 	LB         69(SP),R6
 200a3b0:	bd 18 ad 10 	SW         R7,$24(SP)     | SW         R5,$16(SP)
 200a3b4:	e6 00 af 88 	CLR        R12            | MOV        R1,R5
 200a3b8:	78 80 03 80 	BRA        @0x0200a73c    // 200a73c <_vfiprintf_r+0xadc>
 200a3bc:	28 c0 00 10 	OR         $16,R5
 200a3c0:	8f a8 89 10 	MOV        R5,R1          | AND        $16,R1
 200a3c4:	78 88 00 1c 	BZ         @0x0200a3e4    // 200a3e4 <_vfiprintf_r+0x784>
 200a3c8:	94 18 8c 90 	LW         24(SP),R2      | LW         (R2),R1
 200a3cc:	14 84 80 04 	LW         4(R2),R2
 200a3d0:	8d 24 95 28 	SW         R1,$36(SP)     | SW         R2,$40(SP)
 200a3d4:	1c 87 40 18 	LW         24(SP),R3
 200a3d8:	1b 40 c0 08 	MOV        $8+R3,R3
 200a3dc:	9d 18 9e 01 	SW         R3,$24(SP)     | LDI        $1,R3
 200a3e0:	78 80 00 ec 	BRA        @0x0200a4d0    // 200a4d0 <_vfiprintf_r+0x870>
 200a3e4:	13 41 40 00 	MOV        R5,R2
 200a3e8:	10 40 00 40 	AND        $64,R2
 200a3ec:	78 88 00 18 	BZ         @0x0200a408    // 200a408 <_vfiprintf_r+0x7a8>
 200a3f0:	a4 18 94 a0 	LW         24(SP),R4      | LW         (R4),R2
 200a3f4:	10 40 ff ff 	AND        $65535,R2
 200a3f8:	95 28 8d 24 	SW         R2,$40(SP)     | SW         R1,$36(SP)
 200a3fc:	23 41 00 04 	MOV        $4+R4,R4
 200a400:	a5 18 9e 01 	SW         R4,$24(SP)     | LDI        $1,R3
 200a404:	78 80 00 c8 	BRA        @0x0200a4d0    // 200a4d0 <_vfiprintf_r+0x870>
 200a408:	8c 18 8c 88 	LW         24(SP),R1      | LW         (R1),R1
 200a40c:	8d 28 95 24 	SW         R1,$40(SP)     | SW         R2,$36(SP)
 200a410:	14 87 40 18 	LW         24(SP),R2
 200a414:	13 40 80 04 	MOV        $4+R2,R2
 200a418:	95 18 9e 01 	SW         R2,$24(SP)     | LDI        $1,R3
 200a41c:	78 80 00 b0 	BRA        @0x0200a4d0    // 200a4d0 <_vfiprintf_r+0x870>
 200a420:	1c 00 00 00 	CMP        $0,R3
 200a424:	5d ef 40 45 	SB.NZ      R11,$69(SP)
 200a428:	1e 00 00 78 	LDI        $120,R3
 200a42c:	22 03 00 40 	LDI        0x0200e3d0,R4  // 200e3d0 <_global_impure_ptr+0x2c>
 200a430:	22 40 e3 d0 
 200a434:	24 c7 40 2c 	SW         R4,$44(SP)
 200a438:	8f a8 89 10 	MOV        R5,R1          | AND        $16,R1
 200a43c:	78 88 00 1c 	BZ         @0x0200a45c    // 200a45c <_vfiprintf_r+0x7fc>
 200a440:	94 18 8c 90 	LW         24(SP),R2      | LW         (R2),R1
 200a444:	14 84 80 04 	LW         4(R2),R2
 200a448:	8d 24 95 28 	SW         R1,$36(SP)     | SW         R2,$40(SP)
 200a44c:	24 87 40 18 	LW         24(SP),R4
 200a450:	23 41 00 08 	MOV        $8+R4,R4
 200a454:	24 c7 40 18 	SW         R4,$24(SP)
 200a458:	78 80 00 38 	BRA        @0x0200a494    // 200a494 <_vfiprintf_r+0x834>
 200a45c:	13 41 40 00 	MOV        R5,R2
 200a460:	10 40 00 40 	AND        $64,R2
 200a464:	78 88 00 18 	BZ         @0x0200a480    // 200a480 <_vfiprintf_r+0x820>
 200a468:	a4 18 94 a0 	LW         24(SP),R4      | LW         (R4),R2
 200a46c:	10 40 ff ff 	AND        $65535,R2
 200a470:	95 28 8d 24 	SW         R2,$40(SP)     | SW         R1,$36(SP)
 200a474:	23 41 00 04 	MOV        $4+R4,R4
 200a478:	24 c7 40 18 	SW         R4,$24(SP)
 200a47c:	78 80 00 14 	BRA        @0x0200a494    // 200a494 <_vfiprintf_r+0x834>
 200a480:	8c 18 8c 88 	LW         24(SP),R1      | LW         (R1),R1
 200a484:	8d 28 95 24 	SW         R1,$40(SP)     | SW         R2,$36(SP)
 200a488:	14 87 40 18 	LW         24(SP),R2
 200a48c:	13 40 80 04 	MOV        $4+R2,R2
 200a490:	14 c7 40 18 	SW         R2,$24(SP)
 200a494:	8f a8 89 01 	MOV        R5,R1          | AND        $1,R1
 200a498:	78 88 00 28 	BZ         @0x0200a4c4    // 200a4c4 <_vfiprintf_r+0x864>
 200a49c:	8c 24 94 28 	LW         36(SP),R1      | LW         40(SP),R2
 200a4a0:	0c 00 00 00 	CMP        $0,R1
 200a4a4:	14 08 00 00 	CMP.Z      $0,R2
 200a4a8:	78 88 00 20 	BZ         @0x0200a4cc    // 200a4cc <_vfiprintf_r+0x86c>
 200a4ac:	16 00 00 30 	LDI        $48,R2
 200a4b0:	15 c7 40 46 	SB         R2,$70(SP)
 200a4b4:	1d c7 40 47 	SB         R3,$71(SP)
 200a4b8:	28 c0 00 02 	OR         $2,R5
 200a4bc:	1e 00 00 02 	LDI        $2,R3
 200a4c0:	78 80 00 0c 	BRA        @0x0200a4d0    // 200a4d0 <_vfiprintf_r+0x870>
 200a4c4:	1e 00 00 02 	LDI        $2,R3
 200a4c8:	78 80 00 04 	BRA        @0x0200a4d0    // 200a4d0 <_vfiprintf_r+0x870>
 200a4cc:	1e 00 00 02 	LDI        $2,R3
 200a4d0:	26 00 00 00 	CLR        R4
 200a4d4:	25 c7 40 45 	SB         R4,$69(SP)
 200a4d8:	36 00 00 00 	CLR        R6
 200a4dc:	64 03 ff ff 	CMP        $-1,R12
 200a4e0:	78 88 00 30 	BZ         @0x0200a514    // 200a514 <_vfiprintf_r+0x8b4>
 200a4e4:	23 41 40 00 	MOV        R5,R4
 200a4e8:	20 43 ff 7f 	AND        $-129,R4
 200a4ec:	a5 10 8c 24 	SW         R4,$16(SP)     | LW         36(SP),R1
 200a4f0:	14 87 40 28 	LW         40(SP),R2
 200a4f4:	08 c4 80 00 	OR         R2,R1
 200a4f8:	0e 00 00 00 	CLR        R1
 200a4fc:	0a 68 00 01 	LDILO.NZ   $1,R1
 200a500:	64 00 00 00 	CMP        $0,R12
 200a504:	08 e8 00 01 	OR.NZ      $1,R1
 200a508:	0c 00 00 00 	CMP        $0,R1
 200a50c:	78 88 01 a8 	BZ         @0x0200a6b8    // 200a6b8 <_vfiprintf_r+0xa58>
 200a510:	2b 41 00 00 	MOV        R4,R5
 200a514:	1c 00 00 01 	CMP        $1,R3
 200a518:	78 88 00 9c 	BZ         @0x0200a5b8    // 200a5b8 <_vfiprintf_r+0x958>
 200a51c:	1c 00 00 02 	CMP        $2,R3
 200a520:	78 88 01 2c 	BZ         @0x0200a650    // 200a650 <_vfiprintf_r+0x9f0>
 200a524:	13 43 40 7c 	MOV        $124+SP,R2
 200a528:	ad 04 e5 10 	SW         R5,$4(SP)      | SW         R12,$16(SP)
 200a52c:	a4 24 ac 28 	LW         36(SP),R4      | LW         40(SP),R5
 200a530:	78 80 00 04 	BRA        @0x0200a538    // 200a538 <_vfiprintf_r+0x8d8>
 200a534:	13 41 c0 00 	MOV        R7,R2
 200a538:	bf 90 ba 7f 	MOV        R2,R7          | ADD        $-1,R7
 200a53c:	8f a8 89 07 	MOV        R5,R1          | AND        $7,R1
 200a540:	08 80 00 30 	ADD        $48,R1
 200a544:	0d c4 bf ff 	SB         R1,$-1(R2)
 200a548:	5b 41 00 00 	MOV        R4,R11
 200a54c:	59 80 00 1d 	LSL        $29,R11
 200a550:	1b 41 40 00 	MOV        R5,R3
 200a554:	19 40 00 03 	LSR        $3,R3
 200a558:	63 41 00 00 	MOV        R4,R12
 200a55c:	61 40 00 03 	LSR        $3,R12
 200a560:	a7 e0 af d8 	MOV        R12,R4         | MOV        R11,R5
 200a564:	28 c4 c0 00 	OR         R3,R5
 200a568:	24 00 00 00 	CMP        $0,R4
 200a56c:	2c 08 00 00 	CMP.Z      $0,R5
 200a570:	78 ab ff c0 	BNZ        @0x0200a534    // 200a534 <_vfiprintf_r+0x8d4>
 200a574:	e4 10 a5 24 	LW         16(SP),R12     | SW         R4,$36(SP)
 200a578:	ad 28 ac 04 	SW         R5,$40(SP)     | LW         4(SP),R5
 200a57c:	8b 30 8e 00 	CMP        $48,R1         | CLR        R1
 200a580:	0a 68 00 01 	LDILO.NZ   $1,R1
 200a584:	9f a8 99 88 	MOV        R5,R3          | AND        R1,R3
 200a588:	78 a8 00 10 	BNZ        @0x0200a59c    // 200a59c <_vfiprintf_r+0x93c>
 200a58c:	a4 00 a0 b8 	LW         (SP),R4        | SUB        R7,R4
 200a590:	a5 14 ad 10 	SW         R4,$20(SP)     | SW         R5,$16(SP)
 200a594:	bd 30 af a0 	SW         R7,$48(SP)     | MOV        R4,R5
 200a598:	78 80 01 a0 	BRA        @0x0200a73c    // 200a73c <_vfiprintf_r+0xadc>
 200a59c:	92 7e 95 30 	ADD        $-2,R2         | SW         R2,$48(SP)
 200a5a0:	0e 00 00 30 	LDI        $48,R1
 200a5a4:	0d c5 ff ff 	SB         R1,$-1(R7)
 200a5a8:	9c 00 98 90 	LW         (SP),R3        | SUB        R2,R3
 200a5ac:	9d 14 ad 10 	SW         R3,$20(SP)     | SW         R5,$16(SP)
 200a5b0:	2b 40 c0 00 	MOV        R3,R5
 200a5b4:	78 80 01 84 	BRA        @0x0200a73c    // 200a73c <_vfiprintf_r+0xadc>
 200a5b8:	8c 24 94 28 	LW         36(SP),R1      | LW         40(SP),R2
 200a5bc:	0c 00 00 00 	CMP        $0,R1
 200a5c0:	78 a8 00 24 	BNZ        @0x0200a5e8    // 200a5e8 <_vfiprintf_r+0x988>
 200a5c4:	14 00 00 0a 	CMP        $10,R2
 200a5c8:	78 b8 00 1c 	BNC        @0x0200a5e8    // 200a5e8 <_vfiprintf_r+0x988>
 200a5cc:	8f 90 8a 30 	MOV        R2,R1          | ADD        $48,R1
 200a5d0:	0d c7 40 7b 	SB         R1,$123(SP)
 200a5d4:	ad 10 9d 14 	SW         R5,$16(SP)     | SW         R3,$20(SP)
 200a5d8:	23 43 40 00 	MOV        SP,R4
 200a5dc:	20 80 00 7b 	ADD        $123,R4
 200a5e0:	a5 30 af 98 	SW         R4,$48(SP)     | MOV        R3,R5
 200a5e4:	78 80 01 54 	BRA        @0x0200a73c    // 200a73c <_vfiprintf_r+0xadc>
 200a5e8:	23 43 40 7c 	MOV        $124+SP,R4
 200a5ec:	a5 30 ad 04 	SW         R4,$48(SP)     | SW         R5,$4(SP)
 200a5f0:	af a0 df b0 	MOV        R4,R5          | MOV        R6,R11
 200a5f4:	b4 24 bc 28 	LW         36(SP),R6      | LW         40(SP),R7
 200a5f8:	aa 7f 9e 00 	ADD        $-1,R5         | CLR        R3
 200a5fc:	a6 0a 8f b0 	LDI        $10,R4         | MOV        R6,R1
 200a600:	13 41 c0 00 	MOV        R7,R2
 200a604:	87 fa fc f8 	JSR        0x0200c478     // 200c478 <__umoddi3>
 200a608:	02 00 c4 78 
 200a60c:	10 80 00 30 	ADD        $48,R2
 200a610:	15 c5 40 00 	SB         R2,(R5)
 200a614:	9e 00 a6 0a 	CLR        R3             | LDI        $10,R4
 200a618:	8f b0 97 b8 	MOV        R6,R1          | MOV        R7,R2
 200a61c:	87 fa fc f8 	JSR        0x0200bf20     // 200bf20 <__udivdi3>
 200a620:	02 00 bf 20 
 200a624:	b7 88 bf 90 	MOV        R1,R6          | MOV        R2,R7
 200a628:	0c 00 00 00 	CMP        $0,R1
 200a62c:	14 08 00 00 	CMP.Z      $0,R2
 200a630:	78 ab ff c4 	BNZ        @0x0200a5f8    // 200a5f8 <_vfiprintf_r+0x998>
 200a634:	ad 30 ac 04 	SW         R5,$48(SP)     | LW         4(SP),R5
 200a638:	8d 24 95 28 	SW         R1,$36(SP)     | SW         R2,$40(SP)
 200a63c:	b7 d8 8c 00 	MOV        R11,R6         | LW         (SP),R1
 200a640:	a4 30 88 a0 	LW         48(SP),R4      | SUB        R4,R1
 200a644:	8d 14 ad 10 	SW         R1,$20(SP)     | SW         R5,$16(SP)
 200a648:	2b 40 40 00 	MOV        R1,R5
 200a64c:	78 80 00 ec 	BRA        @0x0200a73c    // 200a73c <_vfiprintf_r+0xadc>
 200a650:	23 43 40 7c 	MOV        $124+SP,R4
 200a654:	a5 30 8f a0 	SW         R4,$48(SP)     | MOV        R4,R1
 200a658:	ad 04 94 24 	SW         R5,$4(SP)      | LW         36(SP),R2
 200a65c:	9c 28 dc 2c 	LW         40(SP),R3      | LW         44(SP),R11
 200a660:	8a 7f a7 98 	ADD        $-1,R1         | MOV        R3,R4
 200a664:	a1 0f af d8 	AND        $15,R4         | MOV        R11,R5
 200a668:	28 85 00 00 	ADD        R4,R5
 200a66c:	25 85 40 00 	LB         (R5),R4
 200a670:	25 c4 40 00 	SB         R4,(R1)
 200a674:	2b 40 80 00 	MOV        R2,R5
 200a678:	29 80 00 1c 	LSL        $28,R5
 200a67c:	23 40 c0 00 	MOV        R3,R4
 200a680:	21 40 00 04 	LSR        $4,R4
 200a684:	3b 40 80 00 	MOV        R2,R7
 200a688:	39 40 00 04 	LSR        $4,R7
 200a68c:	97 b8 9f a8 	MOV        R7,R2          | MOV        R5,R3
 200a690:	18 c5 00 00 	OR         R4,R3
 200a694:	14 00 00 00 	CMP        $0,R2
 200a698:	1c 08 00 00 	CMP.Z      $0,R3
 200a69c:	78 ab ff c0 	BNZ        @0x0200a660    // 200a660 <_vfiprintf_r+0xa00>
 200a6a0:	8d 30 ac 04 	SW         R1,$48(SP)     | LW         4(SP),R5
 200a6a4:	95 24 9d 28 	SW         R2,$36(SP)     | SW         R3,$40(SP)
 200a6a8:	94 00 90 88 	LW         (SP),R2        | SUB        R1,R2
 200a6ac:	95 14 ad 10 	SW         R2,$20(SP)     | SW         R5,$16(SP)
 200a6b0:	2b 40 80 00 	MOV        R2,R5
 200a6b4:	78 80 00 84 	BRA        @0x0200a73c    // 200a73c <_vfiprintf_r+0xadc>
 200a6b8:	1c 00 00 00 	CMP        $0,R3
 200a6bc:	78 a8 00 20 	BNZ        @0x0200a6e0    // 200a6e0 <_vfiprintf_r+0xa80>
 200a6c0:	a9 01 ad 14 	AND        $1,R5          | SW         R5,$20(SP)
 200a6c4:	78 88 00 28 	BZ         @0x0200a6f0    // 200a6f0 <_vfiprintf_r+0xa90>
 200a6c8:	1e 00 00 30 	LDI        $48,R3
 200a6cc:	1d c7 40 7b 	SB         R3,$123(SP)
 200a6d0:	23 43 40 00 	MOV        SP,R4
 200a6d4:	20 80 00 7b 	ADD        $123,R4
 200a6d8:	24 c7 40 30 	SW         R4,$48(SP)
 200a6dc:	78 80 00 5c 	BRA        @0x0200a73c    // 200a73c <_vfiprintf_r+0xadc>
 200a6e0:	ae 00 ad 14 	CLR        R5             | SW         R5,$20(SP)
 200a6e4:	23 43 40 7c 	MOV        $124+SP,R4
 200a6e8:	24 c7 40 30 	SW         R4,$48(SP)
 200a6ec:	78 80 00 4c 	BRA        @0x0200a73c    // 200a73c <_vfiprintf_r+0xadc>
 200a6f0:	2b 43 40 7c 	MOV        $124+SP,R5
 200a6f4:	ad 30 ac 14 	SW         R5,$48(SP)     | LW         20(SP),R5
 200a6f8:	78 80 00 40 	BRA        @0x0200a73c    // 200a73c <_vfiprintf_r+0xadc>
 200a6fc:	1c 00 00 00 	CMP        $0,R3
 200a700:	5d ef 40 45 	SB.NZ      R11,$69(SP)
 200a704:	0c 00 00 00 	CMP        $0,R1
 200a708:	78 88 0a 64 	BZ         @0x0200b170    // 200b170 <_vfiprintf_r+0x1510>
 200a70c:	0d c7 40 54 	SB         R1,$84(SP)
 200a710:	0e 00 00 00 	CLR        R1
 200a714:	0d c7 40 45 	SB         R1,$69(SP)
 200a718:	a6 01 a5 04 	LDI        $1,R4          | SW         R4,$4(SP)
 200a71c:	a5 14 a7 e8 	SW         R4,$20(SP)     | MOV        SP,R4
 200a720:	20 80 00 54 	ADD        $84,R4
 200a724:	24 c7 40 30 	SW         R4,$48(SP)
 200a728:	78 80 0b 40 	BRA        @0x0200b26c    // 200b26c <_vfiprintf_r+0x160c>
 200a72c:	35 87 40 45 	LB         69(SP),R6
 200a730:	bd 18 e5 14 	SW         R7,$24(SP)     | SW         R12,$20(SP)
 200a734:	ad 10 e6 00 	SW         R5,$16(SP)     | CLR        R12
 200a738:	2c 87 40 14 	LW         20(SP),R5
 200a73c:	2c 07 00 00 	CMP        R12,R5
 200a740:	2b 53 00 00 	MOV.LT     R12,R5
 200a744:	ad 04 b3 00 	SW         R5,$4(SP)      | CMP        $0,R6
 200a748:	78 88 00 04 	BZ         @0x0200a750    // 200a750 <_vfiprintf_r+0xaf0>
 200a74c:	aa 01 ad 04 	ADD        $1,R5          | SW         R5,$4(SP)
 200a750:	a4 10 a1 02 	LW         16(SP),R4      | AND        $2,R4
 200a754:	24 c7 40 20 	SW         R4,$32(SP)
 200a758:	78 88 00 08 	BZ         @0x0200a764    // 200a764 <_vfiprintf_r+0xb04>
 200a75c:	ac 04 aa 02 	LW         4(SP),R5       | ADD        $2,R5
 200a760:	2c c7 40 04 	SW         R5,$4(SP)
 200a764:	5c 87 40 10 	LW         16(SP),R11
 200a768:	58 40 00 84 	AND        $132,R11
 200a76c:	78 88 00 10 	BZ         @0x0200a780    // 200a780 <_vfiprintf_r+0xb20>
 200a770:	1c 87 40 50 	LW         80(SP),R3
 200a774:	0c 87 40 4c 	LW         76(SP),R1
 200a778:	97 88 92 01 	MOV        R1,R2          | ADD        $1,R2
 200a77c:	78 80 01 e0 	BRA        @0x0200a960    // 200a960 <_vfiprintf_r+0xd00>
 200a780:	ac 0c a4 04 	LW         12(SP),R5      | LW         4(SP),R4
 200a784:	a8 a0 ab 01 	SUB        R4,R5          | CMP        $1,R5
 200a788:	78 b0 00 10 	BGE        @0x0200a79c    // 200a79c <_vfiprintf_r+0xb3c>
 200a78c:	1c 87 40 50 	LW         80(SP),R3
 200a790:	0c 87 40 4c 	LW         76(SP),R1
 200a794:	97 88 92 01 	MOV        R1,R2          | ADD        $1,R2
 200a798:	78 80 01 c4 	BRA        @0x0200a960    // 200a960 <_vfiprintf_r+0xd00>
 200a79c:	2c 00 00 11 	CMP        $17,R5
 200a7a0:	78 b0 00 10 	BGE        @0x0200a7b4    // 200a7b4 <_vfiprintf_r+0xb54>
 200a7a4:	14 87 40 50 	LW         80(SP),R2
 200a7a8:	0c 87 40 4c 	LW         76(SP),R1
 200a7ac:	08 80 00 01 	ADD        $1,R1
 200a7b0:	78 80 00 ec 	BRA        @0x0200a8a0    // 200a8a0 <_vfiprintf_r+0xc40>
 200a7b4:	14 87 40 50 	LW         80(SP),R2
 200a7b8:	24 87 40 4c 	LW         76(SP),R4
 200a7bc:	64 c7 40 34 	SW         R12,$52(SP)
 200a7c0:	0a 03 00 40 	LDI        0x0200e564,R1  // 200e564 <blanks.4472>
 200a7c4:	0a 40 e5 64 
 200a7c8:	8d c8 9e 10 	SW         R1,(R9)        | LDI        $16,R3
 200a7cc:	1c c6 40 04 	SW         R3,$4(R9)
 200a7d0:	10 84 c0 00 	ADD        R3,R2
 200a7d4:	14 c7 40 50 	SW         R2,$80(SP)
 200a7d8:	9f a0 9a 01 	MOV        R4,R3          | ADD        $1,R3
 200a7dc:	1c c7 40 4c 	SW         R3,$76(SP)
 200a7e0:	1c 00 00 08 	CMP        $8,R3
 200a7e4:	78 b0 00 0c 	BGE        @0x0200a7f4    // 200a7f4 <_vfiprintf_r+0xb94>
 200a7e8:	ca 08 8f a0 	ADD        $8,R9          | MOV        R4,R1
 200a7ec:	8a 02 a7 98 	ADD        $2,R1          | MOV        R3,R4
 200a7f0:	78 80 00 a0 	BRA        @0x0200a894    // 200a894 <_vfiprintf_r+0xc34>
 200a7f4:	14 00 00 00 	CMP        $0,R2
 200a7f8:	78 a8 00 0c 	BNZ        @0x0200a808    // 200a808 <_vfiprintf_r+0xba8>
 200a7fc:	a7 d8 8e 01 	MOV        R11,R4         | LDI        $1,R1
 200a800:	4b 43 40 7c 	MOV        $124+SP,R9
 200a804:	78 80 00 8c 	BRA        @0x0200a894    // 200a894 <_vfiprintf_r+0xc34>
 200a808:	0c 86 80 68 	LW         104(R10),R1
 200a80c:	08 40 20 00 	AND        $8192,R1
 200a810:	78 88 00 60 	BZ         @0x0200a874    // 200a874 <_vfiprintf_r+0xc14>
 200a814:	4c 87 40 48 	LW         72(SP),R9
 200a818:	2c c7 40 38 	SW         R5,$56(SP)
 200a81c:	34 86 40 00 	LW         (R9),R6
 200a820:	64 86 40 04 	LW         4(R9),R12
 200a824:	3b 43 00 00 	MOV        R12,R7
 200a828:	39 40 00 02 	LSR        $2,R7
 200a82c:	78 88 00 2c 	BZ         @0x0200a85c    // 200a85c <_vfiprintf_r+0xbfc>
 200a830:	2b 42 c0 00 	MOV        R11,R5
 200a834:	9f d0 94 b0 	MOV        R10,R3         | LW         (R6),R2
 200a838:	0b 42 00 00 	MOV        R8,R1
 200a83c:	87 fa fc f8 	JSR        0x0200b920     // 200b920 <_fputwc_r>
 200a840:	02 00 b9 20 
 200a844:	0c 03 ff ff 	CMP        $-1,R1
 200a848:	78 88 09 b4 	BZ         @0x0200b200    // 200b200 <_vfiprintf_r+0x15a0>
 200a84c:	aa 01 b2 04 	ADD        $1,R5          | ADD        $4,R6
 200a850:	3c 05 40 00 	CMP        R5,R7
 200a854:	78 ab ff dc 	BNZ        @0x0200a834    // 200a834 <_vfiprintf_r+0xbd4>
 200a858:	14 87 40 50 	LW         80(SP),R2
 200a85c:	e1 7c 90 e0 	AND        $-4,R12        | SUB        R12,R2
 200a860:	14 c7 40 50 	SW         R2,$80(SP)
 200a864:	ca 08 93 00 	ADD        $8,R9          | CMP        $0,R2
 200a868:	78 ab ff b0 	BNZ        @0x0200a81c    // 200a81c <_vfiprintf_r+0xbbc>
 200a86c:	2c 87 40 38 	LW         56(SP),R5
 200a870:	78 80 0a 00 	BRA        @0x0200b274    // 200b274 <_vfiprintf_r+0x1614>
 200a874:	1b 43 40 48 	MOV        $72+SP,R3
 200a878:	97 d0 8f c0 	MOV        R10,R2         | MOV        R8,R1
 200a87c:	87 fa fc f8 	JSR        0x02006908     // 2006908 <__sfvwrite_r>
 200a880:	02 00 69 08 
 200a884:	a7 88 8b 00 	MOV        R1,R4          | CMP        $0,R1
 200a888:	78 a8 09 78 	BNZ        @0x0200b204    // 200b204 <_vfiprintf_r+0x15a4>
 200a88c:	8e 01 97 a0 	LDI        $1,R1          | MOV        R4,R2
 200a890:	4b 43 40 7c 	MOV        $124+SP,R9
 200a894:	aa 70 ab 11 	ADD        $-16,R5        | CMP        $17,R5
 200a898:	78 b3 ff 24 	BGE        @0x0200a7c0    // 200a7c0 <_vfiprintf_r+0xb60>
 200a89c:	64 87 40 34 	LW         52(SP),R12
 200a8a0:	22 03 00 40 	LDI        0x0200e564,R4  // 200e564 <blanks.4472>
 200a8a4:	22 40 e5 64 
 200a8a8:	24 c6 40 00 	SW         R4,(R9)
 200a8ac:	2c c6 40 04 	SW         R5,$4(R9)
 200a8b0:	9f a8 9a 90 	MOV        R5,R3          | ADD        R2,R3
 200a8b4:	1c c7 40 50 	SW         R3,$80(SP)
 200a8b8:	0c c7 40 4c 	SW         R1,$76(SP)
 200a8bc:	0c 00 00 08 	CMP        $8,R1
 200a8c0:	78 b0 00 0c 	BGE        @0x0200a8d0    // 200a8d0 <_vfiprintf_r+0xc70>
 200a8c4:	ca 08 97 88 	ADD        $8,R9          | MOV        R1,R2
 200a8c8:	10 80 00 01 	ADD        $1,R2
 200a8cc:	78 80 00 90 	BRA        @0x0200a960    // 200a960 <_vfiprintf_r+0xd00>
 200a8d0:	1c 00 00 00 	CMP        $0,R3
 200a8d4:	78 88 0a 60 	BZ         @0x0200b338    // 200b338 <_vfiprintf_r+0x16d8>
 200a8d8:	0c 86 80 68 	LW         104(R10),R1
 200a8dc:	08 40 20 00 	AND        $8192,R1
 200a8e0:	78 88 00 60 	BZ         @0x0200a944    // 200a944 <_vfiprintf_r+0xce4>
 200a8e4:	4c 87 40 48 	LW         72(SP),R9
 200a8e8:	64 c7 40 34 	SW         R12,$52(SP)
 200a8ec:	2c 86 40 00 	LW         (R9),R5
 200a8f0:	3c 86 40 04 	LW         4(R9),R7
 200a8f4:	33 41 c0 00 	MOV        R7,R6
 200a8f8:	31 40 00 02 	LSR        $2,R6
 200a8fc:	78 88 00 2c 	BZ         @0x0200a92c    // 200a92c <_vfiprintf_r+0xccc>
 200a900:	63 42 c0 00 	MOV        R11,R12
 200a904:	9f d0 94 a8 	MOV        R10,R3         | LW         (R5),R2
 200a908:	0b 42 00 00 	MOV        R8,R1
 200a90c:	87 fa fc f8 	JSR        0x0200b920     // 200b920 <_fputwc_r>
 200a910:	02 00 b9 20 
 200a914:	0c 03 ff ff 	CMP        $-1,R1
 200a918:	78 88 08 ec 	BZ         @0x0200b208    // 200b208 <_vfiprintf_r+0x15a8>
 200a91c:	e2 01 aa 04 	ADD        $1,R12         | ADD        $4,R5
 200a920:	34 07 00 00 	CMP        R12,R6
 200a924:	78 ab ff dc 	BNZ        @0x0200a904    // 200a904 <_vfiprintf_r+0xca4>
 200a928:	1c 87 40 50 	LW         80(SP),R3
 200a92c:	b9 7c 98 b8 	AND        $-4,R7         | SUB        R7,R3
 200a930:	1c c7 40 50 	SW         R3,$80(SP)
 200a934:	ca 08 9b 00 	ADD        $8,R9          | CMP        $0,R3
 200a938:	78 ab ff b0 	BNZ        @0x0200a8ec    // 200a8ec <_vfiprintf_r+0xc8c>
 200a93c:	64 87 40 34 	LW         52(SP),R12
 200a940:	78 80 09 f4 	BRA        @0x0200b338    // 200b338 <_vfiprintf_r+0x16d8>
 200a944:	1b 43 40 48 	MOV        $72+SP,R3
 200a948:	97 d0 8f c0 	MOV        R10,R2         | MOV        R8,R1
 200a94c:	87 fa fc f8 	JSR        0x02006908     // 2006908 <__sfvwrite_r>
 200a950:	02 00 69 08 
 200a954:	0c 00 00 00 	CMP        $0,R1
 200a958:	78 88 09 dc 	BZ         @0x0200b338    // 200b338 <_vfiprintf_r+0x16d8>
 200a95c:	78 80 08 ec 	BRA        @0x0200b24c    // 200b24c <_vfiprintf_r+0x15ec>
 200a960:	25 87 40 45 	LB         69(SP),R4
 200a964:	24 00 00 00 	CMP        $0,R4
 200a968:	78 88 00 bc 	BZ         @0x0200aa28    // 200aa28 <_vfiprintf_r+0xdc8>
 200a96c:	2b 43 40 45 	MOV        $69+SP,R5
 200a970:	ad c8 8e 01 	SW         R5,(R9)        | LDI        $1,R1
 200a974:	0c c6 40 04 	SW         R1,$4(R9)
 200a978:	18 84 40 00 	ADD        R1,R3
 200a97c:	1c c7 40 50 	SW         R3,$80(SP)
 200a980:	14 c7 40 4c 	SW         R2,$76(SP)
 200a984:	14 00 00 08 	CMP        $8,R2
 200a988:	78 b0 00 0c 	BGE        @0x0200a998    // 200a998 <_vfiprintf_r+0xd38>
 200a98c:	ca 08 8f 90 	ADD        $8,R9          | MOV        R2,R1
 200a990:	13 40 80 01 	MOV        $1+R2,R2
 200a994:	78 80 00 90 	BRA        @0x0200aa28    // 200aa28 <_vfiprintf_r+0xdc8>
 200a998:	1c 00 00 00 	CMP        $0,R3
 200a99c:	78 88 09 c4 	BZ         @0x0200b364    // 200b364 <_vfiprintf_r+0x1704>
 200a9a0:	0c 86 80 68 	LW         104(R10),R1
 200a9a4:	08 40 20 00 	AND        $8192,R1
 200a9a8:	78 88 00 60 	BZ         @0x0200aa0c    // 200aa0c <_vfiprintf_r+0xdac>
 200a9ac:	4c 87 40 48 	LW         72(SP),R9
 200a9b0:	5c c7 40 34 	SW         R11,$52(SP)
 200a9b4:	2c 86 40 00 	LW         (R9),R5
 200a9b8:	3c 86 40 04 	LW         4(R9),R7
 200a9bc:	33 41 c0 00 	MOV        R7,R6
 200a9c0:	31 40 00 02 	LSR        $2,R6
 200a9c4:	78 88 00 2c 	BZ         @0x0200a9f4    // 200a9f4 <_vfiprintf_r+0xd94>
 200a9c8:	5e 00 00 00 	CLR        R11
 200a9cc:	9f d0 94 a8 	MOV        R10,R3         | LW         (R5),R2
 200a9d0:	0b 42 00 00 	MOV        R8,R1
 200a9d4:	87 fa fc f8 	JSR        0x0200b920     // 200b920 <_fputwc_r>
 200a9d8:	02 00 b9 20 
 200a9dc:	0c 03 ff ff 	CMP        $-1,R1
 200a9e0:	78 88 08 28 	BZ         @0x0200b20c    // 200b20c <_vfiprintf_r+0x15ac>
 200a9e4:	da 01 aa 04 	ADD        $1,R11         | ADD        $4,R5
 200a9e8:	34 06 c0 00 	CMP        R11,R6
 200a9ec:	78 ab ff dc 	BNZ        @0x0200a9cc    // 200a9cc <_vfiprintf_r+0xd6c>
 200a9f0:	1c 87 40 50 	LW         80(SP),R3
 200a9f4:	b9 7c 98 b8 	AND        $-4,R7         | SUB        R7,R3
 200a9f8:	1c c7 40 50 	SW         R3,$80(SP)
 200a9fc:	ca 08 9b 00 	ADD        $8,R9          | CMP        $0,R3
 200aa00:	78 ab ff b0 	BNZ        @0x0200a9b4    // 200a9b4 <_vfiprintf_r+0xd54>
 200aa04:	5c 87 40 34 	LW         52(SP),R11
 200aa08:	78 80 09 58 	BRA        @0x0200b364    // 200b364 <_vfiprintf_r+0x1704>
 200aa0c:	1b 43 40 48 	MOV        $72+SP,R3
 200aa10:	97 d0 8f c0 	MOV        R10,R2         | MOV        R8,R1
 200aa14:	87 fa fc f8 	JSR        0x02006908     // 2006908 <__sfvwrite_r>
 200aa18:	02 00 69 08 
 200aa1c:	0c 00 00 00 	CMP        $0,R1
 200aa20:	78 88 09 40 	BZ         @0x0200b364    // 200b364 <_vfiprintf_r+0x1704>
 200aa24:	78 80 08 24 	BRA        @0x0200b24c    // 200b24c <_vfiprintf_r+0x15ec>
 200aa28:	a4 20 a3 00 	LW         32(SP),R4      | CMP        $0,R4
 200aa2c:	78 88 00 d0 	BZ         @0x0200ab00    // 200ab00 <_vfiprintf_r+0xea0>
 200aa30:	2b 43 40 46 	MOV        $70+SP,R5
 200aa34:	ad c8 8e 02 	SW         R5,(R9)        | LDI        $2,R1
 200aa38:	0c c6 40 04 	SW         R1,$4(R9)
 200aa3c:	18 84 40 00 	ADD        R1,R3
 200aa40:	1c c7 40 50 	SW         R3,$80(SP)
 200aa44:	14 c7 40 4c 	SW         R2,$76(SP)
 200aa48:	14 00 00 08 	CMP        $8,R2
 200aa4c:	78 b0 00 10 	BGE        @0x0200aa60    // 200aa60 <_vfiprintf_r+0xe00>
 200aa50:	0b 40 80 00 	MOV        R2,R1
 200aa54:	ca 08 97 88 	ADD        $8,R9          | MOV        R1,R2
 200aa58:	10 80 00 01 	ADD        $1,R2
 200aa5c:	78 80 00 a0 	BRA        @0x0200ab00    // 200ab00 <_vfiprintf_r+0xea0>
 200aa60:	1c 00 00 00 	CMP        $0,R3
 200aa64:	78 a8 00 0c 	BNZ        @0x0200aa74    // 200aa74 <_vfiprintf_r+0xe14>
 200aa68:	96 01 8e 00 	LDI        $1,R2          | CLR        R1
 200aa6c:	4b 43 40 7c 	MOV        $124+SP,R9
 200aa70:	78 80 00 8c 	BRA        @0x0200ab00    // 200ab00 <_vfiprintf_r+0xea0>
 200aa74:	0c 86 80 68 	LW         104(R10),R1
 200aa78:	08 40 20 00 	AND        $8192,R1
 200aa7c:	78 88 00 60 	BZ         @0x0200aae0    // 200aae0 <_vfiprintf_r+0xe80>
 200aa80:	4c 87 40 48 	LW         72(SP),R9
 200aa84:	5c c7 40 20 	SW         R11,$32(SP)
 200aa88:	2c 86 40 00 	LW         (R9),R5
 200aa8c:	3c 86 40 04 	LW         4(R9),R7
 200aa90:	33 41 c0 00 	MOV        R7,R6
 200aa94:	31 40 00 02 	LSR        $2,R6
 200aa98:	78 88 00 2c 	BZ         @0x0200aac8    // 200aac8 <_vfiprintf_r+0xe68>
 200aa9c:	5e 00 00 00 	CLR        R11
 200aaa0:	9f d0 94 a8 	MOV        R10,R3         | LW         (R5),R2
 200aaa4:	0b 42 00 00 	MOV        R8,R1
 200aaa8:	87 fa fc f8 	JSR        0x0200b920     // 200b920 <_fputwc_r>
 200aaac:	02 00 b9 20 
 200aab0:	0c 03 ff ff 	CMP        $-1,R1
 200aab4:	78 88 07 58 	BZ         @0x0200b210    // 200b210 <_vfiprintf_r+0x15b0>
 200aab8:	da 01 aa 04 	ADD        $1,R11         | ADD        $4,R5
 200aabc:	34 06 c0 00 	CMP        R11,R6
 200aac0:	78 ab ff dc 	BNZ        @0x0200aaa0    // 200aaa0 <_vfiprintf_r+0xe40>
 200aac4:	1c 87 40 50 	LW         80(SP),R3
 200aac8:	b9 7c 98 b8 	AND        $-4,R7         | SUB        R7,R3
 200aacc:	1c c7 40 50 	SW         R3,$80(SP)
 200aad0:	ca 08 9b 00 	ADD        $8,R9          | CMP        $0,R3
 200aad4:	78 ab ff b0 	BNZ        @0x0200aa88    // 200aa88 <_vfiprintf_r+0xe28>
 200aad8:	5c 87 40 20 	LW         32(SP),R11
 200aadc:	78 80 07 a0 	BRA        @0x0200b280    // 200b280 <_vfiprintf_r+0x1620>
 200aae0:	1b 43 40 48 	MOV        $72+SP,R3
 200aae4:	97 d0 8f c0 	MOV        R10,R2         | MOV        R8,R1
 200aae8:	87 fa fc f8 	JSR        0x02006908     // 2006908 <__sfvwrite_r>
 200aaec:	02 00 69 08 
 200aaf0:	0c 00 00 00 	CMP        $0,R1
 200aaf4:	78 a8 07 1c 	BNZ        @0x0200b214    // 200b214 <_vfiprintf_r+0x15b4>
 200aaf8:	96 01 9f 88 	LDI        $1,R2          | MOV        R1,R3
 200aafc:	4b 43 40 7c 	MOV        $124+SP,R9
 200ab00:	5c 00 00 80 	CMP        $128,R11
 200ab04:	78 a8 01 c0 	BNZ        @0x0200acc8    // 200acc8 <_vfiprintf_r+0x1068>
 200ab08:	b4 0c a4 04 	LW         12(SP),R6      | LW         4(SP),R4
 200ab0c:	b0 a0 b3 01 	SUB        R4,R6          | CMP        $1,R6
 200ab10:	78 90 01 b4 	BLT        @0x0200acc8    // 200acc8 <_vfiprintf_r+0x1068>
 200ab14:	34 00 00 11 	CMP        $17,R6
 200ab18:	78 90 00 e0 	BLT        @0x0200abfc    // 200abfc <_vfiprintf_r+0xf9c>
 200ab1c:	64 c7 40 20 	SW         R12,$32(SP)
 200ab20:	2a 03 00 40 	LDI        0x0200e554,R5  // 200e554 <zeroes.4473>
 200ab24:	2a 40 e5 54 
 200ab28:	ad c8 96 10 	SW         R5,(R9)        | LDI        $16,R2
 200ab2c:	14 c6 40 04 	SW         R2,$4(R9)
 200ab30:	18 84 80 00 	ADD        R2,R3
 200ab34:	1c c7 40 50 	SW         R3,$80(SP)
 200ab38:	97 88 92 01 	MOV        R1,R2          | ADD        $1,R2
 200ab3c:	14 c7 40 4c 	SW         R2,$76(SP)
 200ab40:	14 00 00 08 	CMP        $8,R2
 200ab44:	78 b0 00 0c 	BGE        @0x0200ab54    // 200ab54 <_vfiprintf_r+0xef4>
 200ab48:	ca 08 a7 88 	ADD        $8,R9          | MOV        R1,R4
 200ab4c:	a2 02 8f 90 	ADD        $2,R4          | MOV        R2,R1
 200ab50:	78 80 00 98 	BRA        @0x0200abec    // 200abec <_vfiprintf_r+0xf8c>
 200ab54:	1c 00 00 00 	CMP        $0,R3
 200ab58:	78 a8 00 0c 	BNZ        @0x0200ab68    // 200ab68 <_vfiprintf_r+0xf08>
 200ab5c:	a6 01 8e 00 	LDI        $1,R4          | CLR        R1
 200ab60:	4b 43 40 7c 	MOV        $124+SP,R9
 200ab64:	78 80 00 84 	BRA        @0x0200abec    // 200abec <_vfiprintf_r+0xf8c>
 200ab68:	0c 86 80 68 	LW         104(R10),R1
 200ab6c:	08 40 20 00 	AND        $8192,R1
 200ab70:	78 88 00 58 	BZ         @0x0200abcc    // 200abcc <_vfiprintf_r+0xf6c>
 200ab74:	4c 87 40 48 	LW         72(SP),R9
 200ab78:	2c 86 40 00 	LW         (R9),R5
 200ab7c:	5c 86 40 04 	LW         4(R9),R11
 200ab80:	3b 42 c0 00 	MOV        R11,R7
 200ab84:	39 40 00 02 	LSR        $2,R7
 200ab88:	78 88 00 2c 	BZ         @0x0200abb8    // 200abb8 <_vfiprintf_r+0xf58>
 200ab8c:	66 00 00 00 	CLR        R12
 200ab90:	9f d0 94 a8 	MOV        R10,R3         | LW         (R5),R2
 200ab94:	0b 42 00 00 	MOV        R8,R1
 200ab98:	87 fa fc f8 	JSR        0x0200b920     // 200b920 <_fputwc_r>
 200ab9c:	02 00 b9 20 
 200aba0:	0c 03 ff ff 	CMP        $-1,R1
 200aba4:	78 88 06 70 	BZ         @0x0200b218    // 200b218 <_vfiprintf_r+0x15b8>
 200aba8:	e2 01 aa 04 	ADD        $1,R12         | ADD        $4,R5
 200abac:	3c 07 00 00 	CMP        R12,R7
 200abb0:	78 ab ff dc 	BNZ        @0x0200ab90    // 200ab90 <_vfiprintf_r+0xf30>
 200abb4:	1c 87 40 50 	LW         80(SP),R3
 200abb8:	d9 7c 98 d8 	AND        $-4,R11        | SUB        R11,R3
 200abbc:	1c c7 40 50 	SW         R3,$80(SP)
 200abc0:	ca 08 9b 00 	ADD        $8,R9          | CMP        $0,R3
 200abc4:	78 ab ff b0 	BNZ        @0x0200ab78    // 200ab78 <_vfiprintf_r+0xf18>
 200abc8:	78 80 06 c0 	BRA        @0x0200b28c    // 200b28c <_vfiprintf_r+0x162c>
 200abcc:	1b 43 40 48 	MOV        $72+SP,R3
 200abd0:	97 d0 8f c0 	MOV        R10,R2         | MOV        R8,R1
 200abd4:	87 fa fc f8 	JSR        0x02006908     // 2006908 <__sfvwrite_r>
 200abd8:	02 00 69 08 
 200abdc:	0c 00 00 00 	CMP        $0,R1
 200abe0:	78 a8 06 38 	BNZ        @0x0200b21c    // 200b21c <_vfiprintf_r+0x15bc>
 200abe4:	a6 01 9f 88 	LDI        $1,R4          | MOV        R1,R3
 200abe8:	4b 43 40 7c 	MOV        $124+SP,R9
 200abec:	b2 70 b3 11 	ADD        $-16,R6        | CMP        $17,R6
 200abf0:	78 b3 ff 2c 	BGE        @0x0200ab20    // 200ab20 <_vfiprintf_r+0xec0>
 200abf4:	64 87 40 20 	LW         32(SP),R12
 200abf8:	78 80 00 04 	BRA        @0x0200ac00    // 200ac00 <_vfiprintf_r+0xfa0>
 200abfc:	23 40 80 00 	MOV        R2,R4
 200ac00:	2a 03 00 40 	LDI        0x0200e554,R5  // 200e554 <zeroes.4473>
 200ac04:	2a 40 e5 54 
 200ac08:	2c c6 40 00 	SW         R5,(R9)
 200ac0c:	34 c6 40 04 	SW         R6,$4(R9)
 200ac10:	18 85 80 00 	ADD        R6,R3
 200ac14:	1c c7 40 50 	SW         R3,$80(SP)
 200ac18:	24 c7 40 4c 	SW         R4,$76(SP)
 200ac1c:	24 00 00 08 	CMP        $8,R4
 200ac20:	78 b0 00 0c 	BGE        @0x0200ac30    // 200ac30 <_vfiprintf_r+0xfd0>
 200ac24:	ca 08 97 a0 	ADD        $8,R9          | MOV        R4,R2
 200ac28:	92 01 8f a0 	ADD        $1,R2          | MOV        R4,R1
 200ac2c:	78 80 00 98 	BRA        @0x0200acc8    // 200acc8 <_vfiprintf_r+0x1068>
 200ac30:	1c 00 00 00 	CMP        $0,R3
 200ac34:	78 a8 00 0c 	BNZ        @0x0200ac44    // 200ac44 <_vfiprintf_r+0xfe4>
 200ac38:	96 01 8e 00 	LDI        $1,R2          | CLR        R1
 200ac3c:	4b 43 40 7c 	MOV        $124+SP,R9
 200ac40:	78 80 00 84 	BRA        @0x0200acc8    // 200acc8 <_vfiprintf_r+0x1068>
 200ac44:	0c 86 80 68 	LW         104(R10),R1
 200ac48:	08 40 20 00 	AND        $8192,R1
 200ac4c:	78 88 00 58 	BZ         @0x0200aca8    // 200aca8 <_vfiprintf_r+0x1048>
 200ac50:	5c 87 40 48 	LW         72(SP),R11
 200ac54:	2c 86 c0 00 	LW         (R11),R5
 200ac58:	3c 86 c0 04 	LW         4(R11),R7
 200ac5c:	33 41 c0 00 	MOV        R7,R6
 200ac60:	31 40 00 02 	LSR        $2,R6
 200ac64:	78 88 00 2c 	BZ         @0x0200ac94    // 200ac94 <_vfiprintf_r+0x1034>
 200ac68:	4e 00 00 00 	CLR        R9
 200ac6c:	9f d0 94 a8 	MOV        R10,R3         | LW         (R5),R2
 200ac70:	0b 42 00 00 	MOV        R8,R1
 200ac74:	87 fa fc f8 	JSR        0x0200b920     // 200b920 <_fputwc_r>
 200ac78:	02 00 b9 20 
 200ac7c:	0c 03 ff ff 	CMP        $-1,R1
 200ac80:	78 88 05 9c 	BZ         @0x0200b220    // 200b220 <_vfiprintf_r+0x15c0>
 200ac84:	ca 01 aa 04 	ADD        $1,R9          | ADD        $4,R5
 200ac88:	34 06 40 00 	CMP        R9,R6
 200ac8c:	78 ab ff dc 	BNZ        @0x0200ac6c    // 200ac6c <_vfiprintf_r+0x100c>
 200ac90:	1c 87 40 50 	LW         80(SP),R3
 200ac94:	b9 7c 98 b8 	AND        $-4,R7         | SUB        R7,R3
 200ac98:	1c c7 40 50 	SW         R3,$80(SP)
 200ac9c:	da 08 9b 00 	ADD        $8,R11         | CMP        $0,R3
 200aca0:	78 ab ff b0 	BNZ        @0x0200ac54    // 200ac54 <_vfiprintf_r+0xff4>
 200aca4:	78 80 05 f0 	BRA        @0x0200b298    // 200b298 <_vfiprintf_r+0x1638>
 200aca8:	1b 43 40 48 	MOV        $72+SP,R3
 200acac:	97 d0 8f c0 	MOV        R10,R2         | MOV        R8,R1
 200acb0:	87 fa fc f8 	JSR        0x02006908     // 2006908 <__sfvwrite_r>
 200acb4:	02 00 69 08 
 200acb8:	0c 00 00 00 	CMP        $0,R1
 200acbc:	78 a8 05 64 	BNZ        @0x0200b224    // 200b224 <_vfiprintf_r+0x15c4>
 200acc0:	96 01 9f 88 	LDI        $1,R2          | MOV        R1,R3
 200acc4:	4b 43 40 7c 	MOV        $124+SP,R9
 200acc8:	b7 e0 a4 14 	MOV        R12,R6         | LW         20(SP),R4
 200accc:	b0 a0 b3 01 	SUB        R4,R6          | CMP        $1,R6
 200acd0:	78 90 01 94 	BLT        @0x0200ae68    // 200ae68 <_vfiprintf_r+0x1208>
 200acd4:	34 00 00 11 	CMP        $17,R6
 200acd8:	78 90 00 d4 	BLT        @0x0200adb0    // 200adb0 <_vfiprintf_r+0x1150>
 200acdc:	2a 03 00 40 	LDI        0x0200e554,R5  // 200e554 <zeroes.4473>
 200ace0:	2a 40 e5 54 
 200ace4:	ad c8 96 10 	SW         R5,(R9)        | LDI        $16,R2
 200ace8:	14 c6 40 04 	SW         R2,$4(R9)
 200acec:	18 84 80 00 	ADD        R2,R3
 200acf0:	1c c7 40 50 	SW         R3,$80(SP)
 200acf4:	a7 88 a2 01 	MOV        R1,R4          | ADD        $1,R4
 200acf8:	24 c7 40 4c 	SW         R4,$76(SP)
 200acfc:	24 00 00 08 	CMP        $8,R4
 200ad00:	78 b0 00 0c 	BGE        @0x0200ad10    // 200ad10 <_vfiprintf_r+0x10b0>
 200ad04:	ca 08 97 88 	ADD        $8,R9          | MOV        R1,R2
 200ad08:	92 02 8f a0 	ADD        $2,R2          | MOV        R4,R1
 200ad0c:	78 80 00 98 	BRA        @0x0200ada8    // 200ada8 <_vfiprintf_r+0x1148>
 200ad10:	1c 00 00 00 	CMP        $0,R3
 200ad14:	78 a8 00 0c 	BNZ        @0x0200ad24    // 200ad24 <_vfiprintf_r+0x10c4>
 200ad18:	96 01 8e 00 	LDI        $1,R2          | CLR        R1
 200ad1c:	4b 43 40 7c 	MOV        $124+SP,R9
 200ad20:	78 80 00 84 	BRA        @0x0200ada8    // 200ada8 <_vfiprintf_r+0x1148>
 200ad24:	0c 86 80 68 	LW         104(R10),R1
 200ad28:	08 40 20 00 	AND        $8192,R1
 200ad2c:	78 88 00 58 	BZ         @0x0200ad88    // 200ad88 <_vfiprintf_r+0x1128>
 200ad30:	4c 87 40 48 	LW         72(SP),R9
 200ad34:	2c 86 40 00 	LW         (R9),R5
 200ad38:	5c 86 40 04 	LW         4(R9),R11
 200ad3c:	3b 42 c0 00 	MOV        R11,R7
 200ad40:	39 40 00 02 	LSR        $2,R7
 200ad44:	78 88 00 2c 	BZ         @0x0200ad74    // 200ad74 <_vfiprintf_r+0x1114>
 200ad48:	66 00 00 00 	CLR        R12
 200ad4c:	9f d0 94 a8 	MOV        R10,R3         | LW         (R5),R2
 200ad50:	0b 42 00 00 	MOV        R8,R1
 200ad54:	87 fa fc f8 	JSR        0x0200b920     // 200b920 <_fputwc_r>
 200ad58:	02 00 b9 20 
 200ad5c:	0c 03 ff ff 	CMP        $-1,R1
 200ad60:	78 88 04 c4 	BZ         @0x0200b228    // 200b228 <_vfiprintf_r+0x15c8>
 200ad64:	e2 01 aa 04 	ADD        $1,R12         | ADD        $4,R5
 200ad68:	3c 07 00 00 	CMP        R12,R7
 200ad6c:	78 ab ff dc 	BNZ        @0x0200ad4c    // 200ad4c <_vfiprintf_r+0x10ec>
 200ad70:	1c 87 40 50 	LW         80(SP),R3
 200ad74:	d9 7c 98 d8 	AND        $-4,R11        | SUB        R11,R3
 200ad78:	1c c7 40 50 	SW         R3,$80(SP)
 200ad7c:	ca 08 9b 00 	ADD        $8,R9          | CMP        $0,R3
 200ad80:	78 ab ff b0 	BNZ        @0x0200ad34    // 200ad34 <_vfiprintf_r+0x10d4>
 200ad84:	78 80 05 1c 	BRA        @0x0200b2a4    // 200b2a4 <_vfiprintf_r+0x1644>
 200ad88:	1b 43 40 48 	MOV        $72+SP,R3
 200ad8c:	97 d0 8f c0 	MOV        R10,R2         | MOV        R8,R1
 200ad90:	87 fa fc f8 	JSR        0x02006908     // 2006908 <__sfvwrite_r>
 200ad94:	02 00 69 08 
 200ad98:	0c 00 00 00 	CMP        $0,R1
 200ad9c:	78 a8 04 8c 	BNZ        @0x0200b22c    // 200b22c <_vfiprintf_r+0x15cc>
 200ada0:	96 01 9f 88 	LDI        $1,R2          | MOV        R1,R3
 200ada4:	4b 43 40 7c 	MOV        $124+SP,R9
 200ada8:	b2 70 b3 11 	ADD        $-16,R6        | CMP        $17,R6
 200adac:	78 b3 ff 2c 	BGE        @0x0200acdc    // 200acdc <_vfiprintf_r+0x107c>
 200adb0:	22 03 00 40 	LDI        0x0200e554,R4  // 200e554 <zeroes.4473>
 200adb4:	22 40 e5 54 
 200adb8:	24 c6 40 00 	SW         R4,(R9)
 200adbc:	34 c6 40 04 	SW         R6,$4(R9)
 200adc0:	18 85 80 00 	ADD        R6,R3
 200adc4:	1c c7 40 50 	SW         R3,$80(SP)
 200adc8:	14 c7 40 4c 	SW         R2,$76(SP)
 200adcc:	14 00 00 08 	CMP        $8,R2
 200add0:	78 b0 00 0c 	BGE        @0x0200ade0    // 200ade0 <_vfiprintf_r+0x1180>
 200add4:	ca 08 92 01 	ADD        $8,R9          | ADD        $1,R2
 200add8:	24 87 40 14 	LW         20(SP),R4
 200addc:	78 80 00 88 	BRA        @0x0200ae68    // 200ae68 <_vfiprintf_r+0x1208>
 200ade0:	1c 00 00 00 	CMP        $0,R3
 200ade4:	78 88 05 94 	BZ         @0x0200b37c    // 200b37c <_vfiprintf_r+0x171c>
 200ade8:	0c 86 80 68 	LW         104(R10),R1
 200adec:	08 40 20 00 	AND        $8192,R1
 200adf0:	78 88 00 58 	BZ         @0x0200ae4c    // 200ae4c <_vfiprintf_r+0x11ec>
 200adf4:	3c 87 40 48 	LW         72(SP),R7
 200adf8:	2c 85 c0 00 	LW         (R7),R5
 200adfc:	5c 85 c0 04 	LW         4(R7),R11
 200ae00:	4b 42 c0 00 	MOV        R11,R9
 200ae04:	49 40 00 02 	LSR        $2,R9
 200ae08:	78 88 00 2c 	BZ         @0x0200ae38    // 200ae38 <_vfiprintf_r+0x11d8>
 200ae0c:	36 00 00 00 	CLR        R6
 200ae10:	9f d0 94 a8 	MOV        R10,R3         | LW         (R5),R2
 200ae14:	0b 42 00 00 	MOV        R8,R1
 200ae18:	87 fa fc f8 	JSR        0x0200b920     // 200b920 <_fputwc_r>
 200ae1c:	02 00 b9 20 
 200ae20:	0c 03 ff ff 	CMP        $-1,R1
 200ae24:	78 88 04 08 	BZ         @0x0200b230    // 200b230 <_vfiprintf_r+0x15d0>
 200ae28:	b2 01 aa 04 	ADD        $1,R6          | ADD        $4,R5
 200ae2c:	4c 05 80 00 	CMP        R6,R9
 200ae30:	78 ab ff dc 	BNZ        @0x0200ae10    // 200ae10 <_vfiprintf_r+0x11b0>
 200ae34:	1c 87 40 50 	LW         80(SP),R3
 200ae38:	d9 7c 98 d8 	AND        $-4,R11        | SUB        R11,R3
 200ae3c:	1c c7 40 50 	SW         R3,$80(SP)
 200ae40:	ba 08 9b 00 	ADD        $8,R7          | CMP        $0,R3
 200ae44:	78 ab ff b0 	BNZ        @0x0200adf8    // 200adf8 <_vfiprintf_r+0x1198>
 200ae48:	78 80 05 30 	BRA        @0x0200b37c    // 200b37c <_vfiprintf_r+0x171c>
 200ae4c:	1b 43 40 48 	MOV        $72+SP,R3
 200ae50:	97 d0 8f c0 	MOV        R10,R2         | MOV        R8,R1
 200ae54:	87 fa fc f8 	JSR        0x02006908     // 2006908 <__sfvwrite_r>
 200ae58:	02 00 69 08 
 200ae5c:	0c 00 00 00 	CMP        $0,R1
 200ae60:	78 88 05 18 	BZ         @0x0200b37c    // 200b37c <_vfiprintf_r+0x171c>
 200ae64:	78 80 03 e4 	BRA        @0x0200b24c    // 200b24c <_vfiprintf_r+0x15ec>
 200ae68:	ac 30 ad c8 	LW         48(SP),R5      | SW         R5,(R9)
 200ae6c:	24 c6 40 04 	SW         R4,$4(R9)
 200ae70:	8f a0 8a 98 	MOV        R4,R1          | ADD        R3,R1
 200ae74:	0c c7 40 50 	SW         R1,$80(SP)
 200ae78:	14 c7 40 4c 	SW         R2,$76(SP)
 200ae7c:	14 00 00 08 	CMP        $8,R2
 200ae80:	78 90 00 8c 	BLT        @0x0200af10    // 200af10 <_vfiprintf_r+0x12b0>
 200ae84:	0c 00 00 00 	CMP        $0,R1
 200ae88:	78 88 04 48 	BZ         @0x0200b2d4    // 200b2d4 <_vfiprintf_r+0x1674>
 200ae8c:	2c 86 80 68 	LW         104(R10),R5
 200ae90:	28 40 20 00 	AND        $8192,R5
 200ae94:	78 88 00 58 	BZ         @0x0200aef0    // 200aef0 <_vfiprintf_r+0x1290>
 200ae98:	4c 87 40 48 	LW         72(SP),R9
 200ae9c:	2c 86 40 00 	LW         (R9),R5
 200aea0:	5c 86 40 04 	LW         4(R9),R11
 200aea4:	3b 42 c0 00 	MOV        R11,R7
 200aea8:	39 40 00 02 	LSR        $2,R7
 200aeac:	78 88 00 2c 	BZ         @0x0200aedc    // 200aedc <_vfiprintf_r+0x127c>
 200aeb0:	36 00 00 00 	CLR        R6
 200aeb4:	9f d0 94 a8 	MOV        R10,R3         | LW         (R5),R2
 200aeb8:	0b 42 00 00 	MOV        R8,R1
 200aebc:	87 fa fc f8 	JSR        0x0200b920     // 200b920 <_fputwc_r>
 200aec0:	02 00 b9 20 
 200aec4:	0c 03 ff ff 	CMP        $-1,R1
 200aec8:	78 88 03 68 	BZ         @0x0200b234    // 200b234 <_vfiprintf_r+0x15d4>
 200aecc:	b2 01 aa 04 	ADD        $1,R6          | ADD        $4,R5
 200aed0:	3c 05 80 00 	CMP        R6,R7
 200aed4:	78 ab ff dc 	BNZ        @0x0200aeb4    // 200aeb4 <_vfiprintf_r+0x1254>
 200aed8:	0c 87 40 50 	LW         80(SP),R1
 200aedc:	d9 7c 88 d8 	AND        $-4,R11        | SUB        R11,R1
 200aee0:	0c c7 40 50 	SW         R1,$80(SP)
 200aee4:	ca 08 8b 00 	ADD        $8,R9          | CMP        $0,R1
 200aee8:	78 ab ff b0 	BNZ        @0x0200ae9c    // 200ae9c <_vfiprintf_r+0x123c>
 200aeec:	78 80 03 c0 	BRA        @0x0200b2b0    // 200b2b0 <_vfiprintf_r+0x1650>
 200aef0:	1b 43 40 48 	MOV        $72+SP,R3
 200aef4:	97 d0 8f c0 	MOV        R10,R2         | MOV        R8,R1
 200aef8:	87 fa fc f8 	JSR        0x02006908     // 2006908 <__sfvwrite_r>
 200aefc:	02 00 69 08 
 200af00:	2c c7 40 50 	SW         R5,$80(SP)
 200af04:	0c 00 00 00 	CMP        $0,R1
 200af08:	78 88 03 c8 	BZ         @0x0200b2d4    // 200b2d4 <_vfiprintf_r+0x1674>
 200af0c:	78 80 03 3c 	BRA        @0x0200b24c    // 200b24c <_vfiprintf_r+0x15ec>
 200af10:	ca 08 9c 10 	ADD        $8,R9          | LW         16(SP),R3
 200af14:	18 40 00 04 	AND        $4,R3
 200af18:	78 88 01 ac 	BZ         @0x0200b0c8    // 200b0c8 <_vfiprintf_r+0x1468>
 200af1c:	b4 0c ac 04 	LW         12(SP),R6      | LW         4(SP),R5
 200af20:	b0 a8 b3 01 	SUB        R5,R6          | CMP        $1,R6
 200af24:	78 b0 00 10 	BGE        @0x0200af38    // 200af38 <_vfiprintf_r+0x12d8>
 200af28:	78 80 01 9c 	BRA        @0x0200b0c8    // 200b0c8 <_vfiprintf_r+0x1468>
 200af2c:	96 00 8e 00 	CLR        R2             | CLR        R1
 200af30:	4b 43 40 7c 	MOV        $124+SP,R9
 200af34:	78 80 00 00 	BRA        @0x0200af38    // 200af38 <_vfiprintf_r+0x12d8>
 200af38:	a7 90 a2 01 	MOV        R2,R4          | ADD        $1,R4
 200af3c:	34 00 00 11 	CMP        $17,R6
 200af40:	78 90 00 d4 	BLT        @0x0200b018    // 200b018 <_vfiprintf_r+0x13b8>
 200af44:	1a 03 00 40 	LDI        0x0200e564,R3  // 200e564 <blanks.4472>
 200af48:	1a 40 e5 64 
 200af4c:	9d c8 a6 10 	SW         R3,(R9)        | LDI        $16,R4
 200af50:	24 c6 40 04 	SW         R4,$4(R9)
 200af54:	08 85 00 00 	ADD        R4,R1
 200af58:	0c c7 40 50 	SW         R1,$80(SP)
 200af5c:	9f 90 9a 01 	MOV        R2,R3          | ADD        $1,R3
 200af60:	1c c7 40 4c 	SW         R3,$76(SP)
 200af64:	1c 00 00 08 	CMP        $8,R3
 200af68:	78 88 00 0c 	BZ         @0x0200af78    // 200af78 <_vfiprintf_r+0x1318>
 200af6c:	ca 08 a7 90 	ADD        $8,R9          | MOV        R2,R4
 200af70:	a2 02 97 98 	ADD        $2,R4          | MOV        R3,R2
 200af74:	78 80 00 98 	BRA        @0x0200b010    // 200b010 <_vfiprintf_r+0x13b0>
 200af78:	0c 00 00 00 	CMP        $0,R1
 200af7c:	78 a8 00 0c 	BNZ        @0x0200af8c    // 200af8c <_vfiprintf_r+0x132c>
 200af80:	a6 01 97 88 	LDI        $1,R4          | MOV        R1,R2
 200af84:	4b 43 40 7c 	MOV        $124+SP,R9
 200af88:	78 80 00 84 	BRA        @0x0200b010    // 200b010 <_vfiprintf_r+0x13b0>
 200af8c:	14 86 80 68 	LW         104(R10),R2
 200af90:	10 40 20 00 	AND        $8192,R2
 200af94:	78 88 00 58 	BZ         @0x0200aff0    // 200aff0 <_vfiprintf_r+0x1390>
 200af98:	4c 87 40 48 	LW         72(SP),R9
 200af9c:	2c 86 40 00 	LW         (R9),R5
 200afa0:	5c 86 40 04 	LW         4(R9),R11
 200afa4:	3b 42 c0 00 	MOV        R11,R7
 200afa8:	39 40 00 02 	LSR        $2,R7
 200afac:	78 88 00 2c 	BZ         @0x0200afdc    // 200afdc <_vfiprintf_r+0x137c>
 200afb0:	66 00 00 00 	CLR        R12
 200afb4:	9f d0 94 a8 	MOV        R10,R3         | LW         (R5),R2
 200afb8:	0b 42 00 00 	MOV        R8,R1
 200afbc:	87 fa fc f8 	JSR        0x0200b920     // 200b920 <_fputwc_r>
 200afc0:	02 00 b9 20 
 200afc4:	0c 03 ff ff 	CMP        $-1,R1
 200afc8:	78 88 02 6c 	BZ         @0x0200b238    // 200b238 <_vfiprintf_r+0x15d8>
 200afcc:	e2 01 aa 04 	ADD        $1,R12         | ADD        $4,R5
 200afd0:	3c 07 00 00 	CMP        R12,R7
 200afd4:	78 ab ff dc 	BNZ        @0x0200afb4    // 200afb4 <_vfiprintf_r+0x1354>
 200afd8:	0c 87 40 50 	LW         80(SP),R1
 200afdc:	d9 7c 88 d8 	AND        $-4,R11        | SUB        R11,R1
 200afe0:	0c c7 40 50 	SW         R1,$80(SP)
 200afe4:	ca 08 8b 00 	ADD        $8,R9          | CMP        $0,R1
 200afe8:	78 ab ff b0 	BNZ        @0x0200af9c    // 200af9c <_vfiprintf_r+0x133c>
 200afec:	78 80 02 f0 	BRA        @0x0200b2e0    // 200b2e0 <_vfiprintf_r+0x1680>
 200aff0:	1b 43 40 48 	MOV        $72+SP,R3
 200aff4:	97 d0 8f c0 	MOV        R10,R2         | MOV        R8,R1
 200aff8:	87 fa fc f8 	JSR        0x02006908     // 2006908 <__sfvwrite_r>
 200affc:	02 00 69 08 
 200b000:	97 88 8b 00 	MOV        R1,R2          | CMP        $0,R1
 200b004:	78 a8 02 34 	BNZ        @0x0200b23c    // 200b23c <_vfiprintf_r+0x15dc>
 200b008:	a6 01 8f 88 	LDI        $1,R4          | MOV        R1,R1
 200b00c:	4b 43 40 7c 	MOV        $124+SP,R9
 200b010:	b2 70 b3 11 	ADD        $-16,R6        | CMP        $17,R6
 200b014:	78 b3 ff 2c 	BGE        @0x0200af44    // 200af44 <_vfiprintf_r+0x12e4>
 200b018:	2a 03 00 40 	LDI        0x0200e564,R5  // 200e564 <blanks.4472>
 200b01c:	2a 40 e5 64 
 200b020:	2c c6 40 00 	SW         R5,(R9)
 200b024:	34 c6 40 04 	SW         R6,$4(R9)
 200b028:	08 85 80 00 	ADD        R6,R1
 200b02c:	0c c7 40 50 	SW         R1,$80(SP)
 200b030:	24 c7 40 4c 	SW         R4,$76(SP)
 200b034:	24 00 00 08 	CMP        $8,R4
 200b038:	78 a8 00 8c 	BNZ        @0x0200b0c8    // 200b0c8 <_vfiprintf_r+0x1468>
 200b03c:	0c 00 00 00 	CMP        $0,R1
 200b040:	78 88 02 c0 	BZ         @0x0200b304    // 200b304 <_vfiprintf_r+0x16a4>
 200b044:	2c 86 80 68 	LW         104(R10),R5
 200b048:	28 40 20 00 	AND        $8192,R5
 200b04c:	78 88 00 58 	BZ         @0x0200b0a8    // 200b0a8 <_vfiprintf_r+0x1448>
 200b050:	5c 87 40 48 	LW         72(SP),R11
 200b054:	2c 86 c0 00 	LW         (R11),R5
 200b058:	4c 86 c0 04 	LW         4(R11),R9
 200b05c:	3b 42 40 00 	MOV        R9,R7
 200b060:	39 40 00 02 	LSR        $2,R7
 200b064:	78 88 00 2c 	BZ         @0x0200b094    // 200b094 <_vfiprintf_r+0x1434>
 200b068:	36 00 00 00 	CLR        R6
 200b06c:	9f d0 94 a8 	MOV        R10,R3         | LW         (R5),R2
 200b070:	0b 42 00 00 	MOV        R8,R1
 200b074:	87 fa fc f8 	JSR        0x0200b920     // 200b920 <_fputwc_r>
 200b078:	02 00 b9 20 
 200b07c:	0c 03 ff ff 	CMP        $-1,R1
 200b080:	78 88 01 bc 	BZ         @0x0200b240    // 200b240 <_vfiprintf_r+0x15e0>
 200b084:	b2 01 aa 04 	ADD        $1,R6          | ADD        $4,R5
 200b088:	3c 05 80 00 	CMP        R6,R7
 200b08c:	78 ab ff dc 	BNZ        @0x0200b06c    // 200b06c <_vfiprintf_r+0x140c>
 200b090:	0c 87 40 50 	LW         80(SP),R1
 200b094:	c9 7c 88 c8 	AND        $-4,R9         | SUB        R9,R1
 200b098:	0c c7 40 50 	SW         R1,$80(SP)
 200b09c:	da 08 8b 00 	ADD        $8,R11         | CMP        $0,R1
 200b0a0:	78 ab ff b0 	BNZ        @0x0200b054    // 200b054 <_vfiprintf_r+0x13f4>
 200b0a4:	78 80 02 44 	BRA        @0x0200b2ec    // 200b2ec <_vfiprintf_r+0x168c>
 200b0a8:	1b 43 40 48 	MOV        $72+SP,R3
 200b0ac:	97 d0 8f c0 	MOV        R10,R2         | MOV        R8,R1
 200b0b0:	87 fa fc f8 	JSR        0x02006908     // 2006908 <__sfvwrite_r>
 200b0b4:	02 00 69 08 
 200b0b8:	2c c7 40 50 	SW         R5,$80(SP)
 200b0bc:	0c 00 00 00 	CMP        $0,R1
 200b0c0:	78 88 02 40 	BZ         @0x0200b304    // 200b304 <_vfiprintf_r+0x16a4>
 200b0c4:	78 80 01 84 	BRA        @0x0200b24c    // 200b24c <_vfiprintf_r+0x15ec>
 200b0c8:	94 0c cc 04 	LW         12(SP),R2      | LW         4(SP),R9
 200b0cc:	14 06 40 00 	CMP        R9,R2
 200b0d0:	13 52 40 00 	MOV.LT     R9,R2
 200b0d4:	ac 1c aa 90 	LW         28(SP),R5      | ADD        R2,R5
 200b0d8:	ad 1c 8b 00 	SW         R5,$28(SP)     | CMP        $0,R1
 200b0dc:	78 88 00 80 	BZ         @0x0200b160    // 200b160 <_vfiprintf_r+0x1500>
 200b0e0:	2c 86 80 68 	LW         104(R10),R5
 200b0e4:	28 40 20 00 	AND        $8192,R5
 200b0e8:	78 88 00 58 	BZ         @0x0200b144    // 200b144 <_vfiprintf_r+0x14e4>
 200b0ec:	4c 87 40 48 	LW         72(SP),R9
 200b0f0:	2c 86 40 00 	LW         (R9),R5
 200b0f4:	5c 86 40 04 	LW         4(R9),R11
 200b0f8:	3b 42 c0 00 	MOV        R11,R7
 200b0fc:	39 40 00 02 	LSR        $2,R7
 200b100:	78 88 00 2c 	BZ         @0x0200b130    // 200b130 <_vfiprintf_r+0x14d0>
 200b104:	36 00 00 00 	CLR        R6
 200b108:	9f d0 94 a8 	MOV        R10,R3         | LW         (R5),R2
 200b10c:	0b 42 00 00 	MOV        R8,R1
 200b110:	87 fa fc f8 	JSR        0x0200b920     // 200b920 <_fputwc_r>
 200b114:	02 00 b9 20 
 200b118:	0c 03 ff ff 	CMP        $-1,R1
 200b11c:	78 88 01 24 	BZ         @0x0200b244    // 200b244 <_vfiprintf_r+0x15e4>
 200b120:	b2 01 aa 04 	ADD        $1,R6          | ADD        $4,R5
 200b124:	3c 05 80 00 	CMP        R6,R7
 200b128:	78 ab ff dc 	BNZ        @0x0200b108    // 200b108 <_vfiprintf_r+0x14a8>
 200b12c:	0c 87 40 50 	LW         80(SP),R1
 200b130:	d9 7c 88 d8 	AND        $-4,R11        | SUB        R11,R1
 200b134:	0c c7 40 50 	SW         R1,$80(SP)
 200b138:	ca 08 8b 00 	ADD        $8,R9          | CMP        $0,R1
 200b13c:	78 ab ff b0 	BNZ        @0x0200b0f0    // 200b0f0 <_vfiprintf_r+0x1490>
 200b140:	78 80 00 1c 	BRA        @0x0200b160    // 200b160 <_vfiprintf_r+0x1500>
 200b144:	1b 43 40 48 	MOV        $72+SP,R3
 200b148:	97 d0 8f c0 	MOV        R10,R2         | MOV        R8,R1
 200b14c:	87 fa fc f8 	JSR        0x02006908     // 2006908 <__sfvwrite_r>
 200b150:	02 00 69 08 
 200b154:	2c c7 40 50 	SW         R5,$80(SP)
 200b158:	0c 00 00 00 	CMP        $0,R1
 200b15c:	78 a8 00 e8 	BNZ        @0x0200b248    // 200b248 <_vfiprintf_r+0x15e8>
 200b160:	4e 00 00 00 	CLR        R9
 200b164:	4c c7 40 4c 	SW         R9,$76(SP)
 200b168:	4b 43 40 7c 	MOV        $124+SP,R9
 200b16c:	78 83 eb f8 	BRA        @0x02009d68    // 2009d68 <_vfiprintf_r+0x108>
 200b170:	0c 87 40 50 	LW         80(SP),R1
 200b174:	0c 00 00 00 	CMP        $0,R1
 200b178:	78 88 00 d0 	BZ         @0x0200b24c    // 200b24c <_vfiprintf_r+0x15ec>
 200b17c:	14 86 80 68 	LW         104(R10),R2
 200b180:	10 40 20 00 	AND        $8192,R2
 200b184:	78 88 00 58 	BZ         @0x0200b1e0    // 200b1e0 <_vfiprintf_r+0x1580>
 200b188:	3c 87 40 48 	LW         72(SP),R7
 200b18c:	2c 85 c0 00 	LW         (R7),R5
 200b190:	5c 85 c0 04 	LW         4(R7),R11
 200b194:	4b 42 c0 00 	MOV        R11,R9
 200b198:	49 40 00 02 	LSR        $2,R9
 200b19c:	78 88 00 2c 	BZ         @0x0200b1cc    // 200b1cc <_vfiprintf_r+0x156c>
 200b1a0:	36 00 00 00 	CLR        R6
 200b1a4:	9f d0 94 a8 	MOV        R10,R3         | LW         (R5),R2
 200b1a8:	0b 42 00 00 	MOV        R8,R1
 200b1ac:	87 fa fc f8 	JSR        0x0200b920     // 200b920 <_fputwc_r>
 200b1b0:	02 00 b9 20 
 200b1b4:	0c 03 ff ff 	CMP        $-1,R1
 200b1b8:	78 88 00 90 	BZ         @0x0200b24c    // 200b24c <_vfiprintf_r+0x15ec>
 200b1bc:	b2 01 aa 04 	ADD        $1,R6          | ADD        $4,R5
 200b1c0:	4c 05 80 00 	CMP        R6,R9
 200b1c4:	78 ab ff dc 	BNZ        @0x0200b1a4    // 200b1a4 <_vfiprintf_r+0x1544>
 200b1c8:	0c 87 40 50 	LW         80(SP),R1
 200b1cc:	d9 7c 88 d8 	AND        $-4,R11        | SUB        R11,R1
 200b1d0:	0c c7 40 50 	SW         R1,$80(SP)
 200b1d4:	ba 08 8b 00 	ADD        $8,R7          | CMP        $0,R1
 200b1d8:	78 ab ff b0 	BNZ        @0x0200b18c    // 200b18c <_vfiprintf_r+0x152c>
 200b1dc:	78 80 00 6c 	BRA        @0x0200b24c    // 200b24c <_vfiprintf_r+0x15ec>
 200b1e0:	1b 43 40 00 	MOV        SP,R3
 200b1e4:	18 80 00 48 	ADD        $72,R3
 200b1e8:	97 d0 8f c0 	MOV        R10,R2         | MOV        R8,R1
 200b1ec:	87 fa fc f8 	JSR        0x02006908     // 2006908 <__sfvwrite_r>
 200b1f0:	02 00 69 08 
 200b1f4:	78 80 00 54 	BRA        @0x0200b24c    // 200b24c <_vfiprintf_r+0x15ec>
 200b1f8:	78 80 00 50 	BRA        @0x0200b24c    // 200b24c <_vfiprintf_r+0x15ec>
 200b1fc:	78 80 00 4c 	BRA        @0x0200b24c    // 200b24c <_vfiprintf_r+0x15ec>
 200b200:	78 80 00 48 	BRA        @0x0200b24c    // 200b24c <_vfiprintf_r+0x15ec>
 200b204:	78 80 00 44 	BRA        @0x0200b24c    // 200b24c <_vfiprintf_r+0x15ec>
 200b208:	78 80 00 40 	BRA        @0x0200b24c    // 200b24c <_vfiprintf_r+0x15ec>
 200b20c:	78 80 00 3c 	BRA        @0x0200b24c    // 200b24c <_vfiprintf_r+0x15ec>
 200b210:	78 80 00 38 	BRA        @0x0200b24c    // 200b24c <_vfiprintf_r+0x15ec>
 200b214:	78 80 00 34 	BRA        @0x0200b24c    // 200b24c <_vfiprintf_r+0x15ec>
 200b218:	78 80 00 30 	BRA        @0x0200b24c    // 200b24c <_vfiprintf_r+0x15ec>
 200b21c:	78 80 00 2c 	BRA        @0x0200b24c    // 200b24c <_vfiprintf_r+0x15ec>
 200b220:	78 80 00 28 	BRA        @0x0200b24c    // 200b24c <_vfiprintf_r+0x15ec>
 200b224:	78 80 00 24 	BRA        @0x0200b24c    // 200b24c <_vfiprintf_r+0x15ec>
 200b228:	78 80 00 20 	BRA        @0x0200b24c    // 200b24c <_vfiprintf_r+0x15ec>
 200b22c:	78 80 00 1c 	BRA        @0x0200b24c    // 200b24c <_vfiprintf_r+0x15ec>
 200b230:	78 80 00 18 	BRA        @0x0200b24c    // 200b24c <_vfiprintf_r+0x15ec>
 200b234:	78 80 00 14 	BRA        @0x0200b24c    // 200b24c <_vfiprintf_r+0x15ec>
 200b238:	78 80 00 10 	BRA        @0x0200b24c    // 200b24c <_vfiprintf_r+0x15ec>
 200b23c:	78 80 00 0c 	BRA        @0x0200b24c    // 200b24c <_vfiprintf_r+0x15ec>
 200b240:	78 80 00 08 	BRA        @0x0200b24c    // 200b24c <_vfiprintf_r+0x15ec>
 200b244:	78 80 00 04 	BRA        @0x0200b24c    // 200b24c <_vfiprintf_r+0x15ec>
 200b248:	78 80 00 00 	BRA        @0x0200b24c    // 200b24c <_vfiprintf_r+0x15ec>
 200b24c:	0d 06 80 0c 	LH         12(R10),R1
 200b250:	08 40 00 40 	AND        $64,R1
 200b254:	78 88 01 e8 	BZ         @0x0200b440    // 200b440 <_vfiprintf_r+0x17e0>
 200b258:	ae ff ad 1c 	LDI        $-1,R5         | SW         R5,$28(SP)
 200b25c:	78 80 01 e0 	BRA        @0x0200b440    // 200b440 <_vfiprintf_r+0x17e0>
 200b260:	14 c7 40 4c 	SW         R2,$76(SP)
 200b264:	4b 43 40 7c 	MOV        $124+SP,R9
 200b268:	78 83 ec 14 	BRA        @0x02009e80    // 2009e80 <_vfiprintf_r+0x220>
 200b26c:	ad 10 e6 00 	SW         R5,$16(SP)     | CLR        R12
 200b270:	78 83 f4 dc 	BRA        @0x0200a750    // 200a750 <_vfiprintf_r+0xaf0>
 200b274:	a7 d8 8e 01 	MOV        R11,R4         | LDI        $1,R1
 200b278:	4b 43 40 7c 	MOV        $124+SP,R9
 200b27c:	78 83 f6 14 	BRA        @0x0200a894    // 200a894 <_vfiprintf_r+0xc34>
 200b280:	96 01 8e 00 	LDI        $1,R2          | CLR        R1
 200b284:	4b 43 40 7c 	MOV        $124+SP,R9
 200b288:	78 83 f8 74 	BRA        @0x0200ab00    // 200ab00 <_vfiprintf_r+0xea0>
 200b28c:	a6 01 8e 00 	LDI        $1,R4          | CLR        R1
 200b290:	4b 43 40 7c 	MOV        $124+SP,R9
 200b294:	78 83 f9 54 	BRA        @0x0200abec    // 200abec <_vfiprintf_r+0xf8c>
 200b298:	96 01 8e 00 	LDI        $1,R2          | CLR        R1
 200b29c:	4b 43 40 7c 	MOV        $124+SP,R9
 200b2a0:	78 83 fa 24 	BRA        @0x0200acc8    // 200acc8 <_vfiprintf_r+0x1068>
 200b2a4:	96 01 8e 00 	LDI        $1,R2          | CLR        R1
 200b2a8:	4b 43 40 7c 	MOV        $124+SP,R9
 200b2ac:	78 83 fa f8 	BRA        @0x0200ada8    // 200ada8 <_vfiprintf_r+0x1148>
 200b2b0:	94 10 91 04 	LW         16(SP),R2      | AND        $4,R2
 200b2b4:	78 a8 01 70 	BNZ        @0x0200b428    // 200b428 <_vfiprintf_r+0x17c8>
 200b2b8:	78 80 00 e8 	BRA        @0x0200b3a4    // 200b3a4 <_vfiprintf_r+0x1744>
 200b2bc:	8c 0c cc 04 	LW         12(SP),R1      | LW         4(SP),R9
 200b2c0:	0c 06 40 00 	CMP        R9,R1
 200b2c4:	0b 52 40 00 	MOV.LT     R9,R1
 200b2c8:	ac 1c aa 88 	LW         28(SP),R5      | ADD        R1,R5
 200b2cc:	2c c7 40 1c 	SW         R5,$28(SP)
 200b2d0:	78 83 fe 8c 	BRA        @0x0200b160    // 200b160 <_vfiprintf_r+0x1500>
 200b2d4:	8c 10 89 04 	LW         16(SP),R1      | AND        $4,R1
 200b2d8:	78 a8 00 f4 	BNZ        @0x0200b3d0    // 200b3d0 <_vfiprintf_r+0x1770>
 200b2dc:	78 83 ff dc 	BRA        @0x0200b2bc    // 200b2bc <_vfiprintf_r+0x165c>
 200b2e0:	a6 01 97 88 	LDI        $1,R4          | MOV        R1,R2
 200b2e4:	4b 43 40 7c 	MOV        $124+SP,R9
 200b2e8:	78 83 fd 24 	BRA        @0x0200b010    // 200b010 <_vfiprintf_r+0x13b0>
 200b2ec:	8c 0c cc 04 	LW         12(SP),R1      | LW         4(SP),R9
 200b2f0:	0c 06 40 00 	CMP        R9,R1
 200b2f4:	0b 52 40 00 	MOV.LT     R9,R1
 200b2f8:	ac 1c aa 88 	LW         28(SP),R5      | ADD        R1,R5
 200b2fc:	2c c7 40 1c 	SW         R5,$28(SP)
 200b300:	78 83 fe 5c 	BRA        @0x0200b160    // 200b160 <_vfiprintf_r+0x1500>
 200b304:	8c 0c cc 04 	LW         12(SP),R1      | LW         4(SP),R9
 200b308:	0c 06 40 00 	CMP        R9,R1
 200b30c:	0b 52 40 00 	MOV.LT     R9,R1
 200b310:	ac 1c aa 88 	LW         28(SP),R5      | ADD        R1,R5
 200b314:	2c c7 40 1c 	SW         R5,$28(SP)
 200b318:	78 83 fe 44 	BRA        @0x0200b160    // 200b160 <_vfiprintf_r+0x1500>
 200b31c:	4b 43 40 45 	MOV        $69+SP,R9
 200b320:	4c c7 40 7c 	SW         R9,$124(SP)
 200b324:	0e 00 00 01 	LDI        $1,R1
 200b328:	0c c7 40 80 	SW         R1,$128(SP)
 200b32c:	96 01 9e 01 	LDI        $1,R2          | LDI        $1,R3
 200b330:	4b 43 40 7c 	MOV        $124+SP,R9
 200b334:	78 83 f6 54 	BRA        @0x0200a98c    // 200a98c <_vfiprintf_r+0xd2c>
 200b338:	0d 87 40 45 	LB         69(SP),R1
 200b33c:	0c 00 00 00 	CMP        $0,R1
 200b340:	78 ab ff d8 	BNZ        @0x0200b31c    // 200b31c <_vfiprintf_r+0x16bc>
 200b344:	78 80 00 b4 	BRA        @0x0200b3fc    // 200b3fc <_vfiprintf_r+0x179c>
 200b348:	13 43 40 46 	MOV        $70+SP,R2
 200b34c:	14 c7 40 7c 	SW         R2,$124(SP)
 200b350:	1e 00 00 02 	LDI        $2,R3
 200b354:	1c c7 40 80 	SW         R3,$128(SP)
 200b358:	0e 00 00 01 	LDI        $1,R1
 200b35c:	4b 43 40 7c 	MOV        $124+SP,R9
 200b360:	78 83 f6 f0 	BRA        @0x0200aa54    // 200aa54 <_vfiprintf_r+0xdf4>
 200b364:	a4 20 a3 00 	LW         32(SP),R4      | CMP        $0,R4
 200b368:	78 ab ff dc 	BNZ        @0x0200b348    // 200b348 <_vfiprintf_r+0x16e8>
 200b36c:	8e 00 96 01 	CLR        R1             | LDI        $1,R2
 200b370:	1b 41 00 00 	MOV        R4,R3
 200b374:	4b 43 40 7c 	MOV        $124+SP,R9
 200b378:	78 83 f7 84 	BRA        @0x0200ab00    // 200ab00 <_vfiprintf_r+0xea0>
 200b37c:	2c 87 40 30 	LW         48(SP),R5
 200b380:	2c c7 40 7c 	SW         R5,$124(SP)
 200b384:	0c 87 40 14 	LW         20(SP),R1
 200b388:	0c c7 40 80 	SW         R1,$128(SP)
 200b38c:	0c c7 40 50 	SW         R1,$80(SP)
 200b390:	4e 00 00 01 	LDI        $1,R9
 200b394:	4c c7 40 4c 	SW         R9,$76(SP)
 200b398:	16 00 00 01 	LDI        $1,R2
 200b39c:	4b 43 40 7c 	MOV        $124+SP,R9
 200b3a0:	78 83 fb 6c 	BRA        @0x0200af10    // 200af10 <_vfiprintf_r+0x12b0>
 200b3a4:	8c 0c a4 04 	LW         12(SP),R1      | LW         4(SP),R4
 200b3a8:	0c 05 00 00 	CMP        R4,R1
 200b3ac:	0b 51 00 00 	MOV.LT     R4,R1
 200b3b0:	ac 1c aa 88 	LW         28(SP),R5      | ADD        R1,R5
 200b3b4:	2c c7 40 1c 	SW         R5,$28(SP)
 200b3b8:	78 83 fd a4 	BRA        @0x0200b160    // 200b160 <_vfiprintf_r+0x1500>
 200b3bc:	8c 0c 8b c8 	LW         12(SP),R1      | CMP        R9,R1
 200b3c0:	0b 52 40 00 	MOV.LT     R9,R1
 200b3c4:	ac 1c aa 88 	LW         28(SP),R5      | ADD        R1,R5
 200b3c8:	2c c7 40 1c 	SW         R5,$28(SP)
 200b3cc:	78 83 fd 90 	BRA        @0x0200b160    // 200b160 <_vfiprintf_r+0x1500>
 200b3d0:	b4 0c cc 04 	LW         12(SP),R6      | LW         4(SP),R9
 200b3d4:	b0 c8 b3 01 	SUB        R9,R6          | CMP        $1,R6
 200b3d8:	78 b3 fb 50 	BGE        @0x0200af2c    // 200af2c <_vfiprintf_r+0x12cc>
 200b3dc:	78 83 ff dc 	BRA        @0x0200b3bc    // 200b3bc <_vfiprintf_r+0x175c>
 200b3e0:	0b 43 40 46 	MOV        $70+SP,R1
 200b3e4:	0c c7 40 7c 	SW         R1,$124(SP)
 200b3e8:	16 00 00 02 	LDI        $2,R2
 200b3ec:	14 c7 40 80 	SW         R2,$128(SP)
 200b3f0:	8e 01 9e 02 	LDI        $1,R1          | LDI        $2,R3
 200b3f4:	4b 43 40 7c 	MOV        $124+SP,R9
 200b3f8:	78 83 f6 58 	BRA        @0x0200aa54    // 200aa54 <_vfiprintf_r+0xdf4>
 200b3fc:	a4 20 a3 00 	LW         32(SP),R4      | CMP        $0,R4
 200b400:	78 ab ff dc 	BNZ        @0x0200b3e0    // 200b3e0 <_vfiprintf_r+0x1780>
 200b404:	8e 00 96 01 	CLR        R1             | LDI        $1,R2
 200b408:	1b 41 00 00 	MOV        R4,R3
 200b40c:	4b 43 40 7c 	MOV        $124+SP,R9
 200b410:	78 83 f8 b4 	BRA        @0x0200acc8    // 200acc8 <_vfiprintf_r+0x1068>
 200b414:	8c 0c 8b a0 	LW         12(SP),R1      | CMP        R4,R1
 200b418:	0b 51 00 00 	MOV.LT     R4,R1
 200b41c:	cc 1c ca 88 	LW         28(SP),R9      | ADD        R1,R9
 200b420:	4c c7 40 1c 	SW         R9,$28(SP)
 200b424:	78 83 fd 38 	BRA        @0x0200b160    // 200b160 <_vfiprintf_r+0x1500>
 200b428:	b4 0c a4 04 	LW         12(SP),R6      | LW         4(SP),R4
 200b42c:	b0 a0 97 88 	SUB        R4,R6          | MOV        R1,R2
 200b430:	4b 43 40 7c 	MOV        $124+SP,R9
 200b434:	34 00 00 01 	CMP        $1,R6
 200b438:	78 b3 fa fc 	BGE        @0x0200af38    // 200af38 <_vfiprintf_r+0x12d8>
 200b43c:	78 83 ff d4 	BRA        @0x0200b414    // 200b414 <_vfiprintf_r+0x17b4>
 200b440:	0c 87 40 1c 	LW         28(SP),R1
 200b444:	04 87 40 bc 	LW         188(SP),R0
 200b448:	2c 87 40 c0 	LW         192(SP),R5
 200b44c:	34 87 40 c4 	LW         196(SP),R6
 200b450:	3c 87 40 c8 	LW         200(SP),R7
 200b454:	44 87 40 cc 	LW         204(SP),R8
 200b458:	4c 87 40 d0 	LW         208(SP),R9
 200b45c:	54 87 40 d4 	LW         212(SP),R10
 200b460:	5c 87 40 d8 	LW         216(SP),R11
 200b464:	64 87 40 dc 	LW         220(SP),R12
 200b468:	68 80 00 e0 	ADD        $224,SP
 200b46c:	7b 40 00 00 	RTN

0200b470 <vfiprintf>:
 200b470:	e8 04 85 00 	SUB        $4,SP          | SW         R0,(SP)
 200b474:	a7 98 9f 90 	MOV        R3,R4          | MOV        R2,R3
 200b478:	13 40 40 00 	MOV        R1,R2
 200b47c:	0a 03 00 40 	LDI        0x0200e78c,R1  // 200e78c <_impure_ptr>
 200b480:	0a 40 e7 8c 
 200b484:	8c 88 84 00 	LW         (R1),R1        | LW         (SP),R0
 200b488:	68 80 00 04 	ADD        $4,SP
 200b48c:	78 83 e7 d0 	BRA        @0x02009c60    // 2009c60 <_vfiprintf_r>

0200b490 <__sbprintf>:
 200b490:	68 00 04 7c 	SUB        $1148,SP
 200b494:	04 c7 44 6c 	SW         R0,$1132(SP)
 200b498:	2c c7 44 70 	SW         R5,$1136(SP)
 200b49c:	34 c7 44 74 	SW         R6,$1140(SP)
 200b4a0:	3c c7 44 78 	SW         R7,$1144(SP)
 200b4a4:	bf 88 af 90 	MOV        R1,R7          | MOV        R2,R5
 200b4a8:	15 04 80 0c 	LH         12(R2),R2
 200b4ac:	10 40 ff fd 	AND        $65533,R2
 200b4b0:	15 47 40 0c 	SH         R2,$12(SP)
 200b4b4:	04 85 40 68 	LW         104(R5),R0
 200b4b8:	04 c7 40 68 	SW         R0,$104(SP)
 200b4bc:	05 05 40 0e 	LH         14(R5),R0
 200b4c0:	05 47 40 0e 	SH         R0,$14(SP)
 200b4c4:	04 85 40 1c 	LW         28(R5),R0
 200b4c8:	04 c7 40 1c 	SW         R0,$28(SP)
 200b4cc:	04 85 40 24 	LW         36(R5),R0
 200b4d0:	85 24 97 e8 	SW         R0,$36(SP)     | MOV        SP,R2
 200b4d4:	10 80 00 6c 	ADD        $108,R2
 200b4d8:	95 00 95 10 	SW         R2,(SP)        | SW         R2,$16(SP)
 200b4dc:	06 00 04 00 	LDI        $1024,R0
 200b4e0:	85 08 85 14 	SW         R0,$8(SP)      | SW         R0,$20(SP)
 200b4e4:	86 00 85 18 	CLR        R0             | SW         R0,$24(SP)
 200b4e8:	13 43 40 00 	MOV        SP,R2
 200b4ec:	87 fa fc f8 	JSR        0x02009c60     // 2009c60 <_vfiprintf_r>
 200b4f0:	02 00 9c 60 
 200b4f4:	b7 88 8b 00 	MOV        R1,R6          | CMP        $0,R1
 200b4f8:	78 90 00 14 	BLT        @0x0200b510    // 200b510 <__sbprintf+0x80>
 200b4fc:	97 e8 8f b8 	MOV        SP,R2          | MOV        R7,R1
 200b500:	87 fa fc f8 	JSR        0x02005660     // 2005660 <_fflush_r>
 200b504:	02 00 56 60 
 200b508:	0c 00 00 00 	CMP        $0,R1
 200b50c:	32 2b ff ff 	BREV.NZ    $-1,R6
 200b510:	0d 07 40 0c 	LH         12(SP),R1
 200b514:	08 40 00 40 	AND        $64,R1
 200b518:	78 88 00 0c 	BZ         @0x0200b528    // 200b528 <__sbprintf+0x98>
 200b51c:	0d 05 40 0c 	LH         12(R5),R1
 200b520:	08 c0 00 40 	OR         $64,R1
 200b524:	0d 45 40 0c 	SH         R1,$12(R5)
 200b528:	0b 41 80 00 	MOV        R6,R1
 200b52c:	04 87 44 6c 	LW         1132(SP),R0
 200b530:	2c 87 44 70 	LW         1136(SP),R5
 200b534:	34 87 44 74 	LW         1140(SP),R6
 200b538:	3c 87 44 78 	LW         1144(SP),R7
 200b53c:	68 80 04 7c 	ADD        $1148,SP
 200b540:	7b 40 00 00 	RTN

0200b544 <_wctomb_r>:
 200b544:	e8 08 85 00 	SUB        $8,SP          | SW         R0,(SP)
 200b548:	ad 04 84 00 	SW         R5,$4(SP)      | LW         (SP),R0
 200b54c:	ac 04 ea 08 	LW         4(SP),R5       | ADD        $8,SP
 200b550:	7c 85 40 e0 	LW         224(R5),PC

0200b554 <__ascii_wctomb>:
 200b554:	14 00 00 00 	CMP        $0,R2
 200b558:	78 88 00 24 	BZ         @0x0200b580    // 200b580 <__ascii_wctomb+0x2c>
 200b55c:	1c 00 01 00 	CMP        $256,R3
 200b560:	12 38 00 00 	LDI.NC     0x0000008a,R2  // 8a <_rom+0x8a>
 200b564:	12 78 00 8a 
 200b568:	14 fc 40 00 	SW.NC      R2,(R1)
 200b56c:	0a 3b ff ff 	BREV.NC    $-1,R1
 200b570:	1d dc 80 00 	SB.C       R3,(R2)
 200b574:	0a 18 00 00 	LDI.C      0x00000001,R1  // 1 <_rom+0x1>
 200b578:	0a 58 00 01 
 200b57c:	7b 40 00 00 	RTN
 200b580:	0b 40 80 00 	MOV        R2,R1
 200b584:	7b 40 00 00 	RTN

0200b588 <_calloc_r>:
 200b588:	e8 08 85 00 	SUB        $8,SP          | SW         R0,(SP)
 200b58c:	2c c7 40 04 	SW         R5,$4(SP)
 200b590:	13 04 c0 00 	MPY        R3,R2
 200b594:	87 fa fc f8 	JSR        0x0200099c     // 200099c <_malloc_r>
 200b598:	02 00 09 9c 
 200b59c:	af 88 8b 00 	MOV        R1,R5          | CMP        $0,R1
 200b5a0:	78 88 00 74 	BZ         @0x0200b618    // 200b618 <_calloc_r+0x90>
 200b5a4:	9c 8c 99 7c 	LW         -4(R1),R3      | AND        $-4,R3
 200b5a8:	9a 7c 9b 25 	ADD        $-4,R3         | CMP        $37,R3
 200b5ac:	78 b8 00 5c 	BNC        @0x0200b60c    // 200b60c <_calloc_r+0x84>
 200b5b0:	1c 00 00 14 	CMP        $20,R3
 200b5b4:	78 98 00 44 	BC         @0x0200b5fc    // 200b5fc <_calloc_r+0x74>
 200b5b8:	8e 00 8d a8 	CLR        R1             | SW         R1,(R5)
 200b5bc:	0c c5 40 04 	SW         R1,$4(R5)
 200b5c0:	8f a8 8a 08 	MOV        R5,R1          | ADD        $8,R1
 200b5c4:	1c 00 00 1c 	CMP        $28,R3
 200b5c8:	78 98 00 30 	BC         @0x0200b5fc    // 200b5fc <_calloc_r+0x74>
 200b5cc:	16 00 00 00 	CLR        R2
 200b5d0:	14 c5 40 08 	SW         R2,$8(R5)
 200b5d4:	14 c5 40 0c 	SW         R2,$12(R5)
 200b5d8:	8f a8 8a 10 	MOV        R5,R1          | ADD        $16,R1
 200b5dc:	1c 00 00 24 	CMP        $36,R3
 200b5e0:	78 a8 00 18 	BNZ        @0x0200b5fc    // 200b5fc <_calloc_r+0x74>
 200b5e4:	0e 00 00 00 	CLR        R1
 200b5e8:	0c c5 40 10 	SW         R1,$16(R5)
 200b5ec:	8f a8 8a 18 	MOV        R5,R1          | ADD        $24,R1
 200b5f0:	16 00 00 00 	CLR        R2
 200b5f4:	14 c5 40 14 	SW         R2,$20(R5)
 200b5f8:	78 80 00 00 	BRA        @0x0200b5fc    // 200b5fc <_calloc_r+0x74>
 200b5fc:	96 00 95 88 	CLR        R2             | SW         R2,(R1)
 200b600:	14 c4 40 04 	SW         R2,$4(R1)
 200b604:	14 c4 40 08 	SW         R2,$8(R1)
 200b608:	78 80 00 0c 	BRA        @0x0200b618    // 200b618 <_calloc_r+0x90>
 200b60c:	16 00 00 00 	CLR        R2
 200b610:	87 fa fc f8 	JSR        0x02001524     // 2001524 <memset>
 200b614:	02 00 15 24 
 200b618:	8f a8 84 00 	MOV        R5,R1          | LW         (SP),R0
 200b61c:	ac 04 ea 08 	LW         4(SP),R5       | ADD        $8,SP
 200b620:	7b 40 00 00 	RTN

0200b624 <_fclose_r>:
 200b624:	e8 10 85 00 	SUB        $16,SP         | SW         R0,(SP)
 200b628:	ad 04 b5 08 	SW         R5,$4(SP)      | SW         R6,$8(SP)
 200b62c:	bd 0c 93 00 	SW         R7,$12(SP)     | CMP        $0,R2
 200b630:	78 a8 00 08 	BNZ        @0x0200b63c    // 200b63c <_fclose_r+0x18>
 200b634:	3e 00 00 00 	CLR        R7
 200b638:	78 80 00 e8 	BRA        @0x0200b724    // 200b724 <_fclose_r+0x100>
 200b63c:	b7 88 af 90 	MOV        R1,R6          | MOV        R2,R5
 200b640:	0c 00 00 00 	CMP        $0,R1
 200b644:	78 88 00 14 	BZ         @0x0200b65c    // 200b65c <_fclose_r+0x38>
 200b648:	14 84 40 38 	LW         56(R1),R2
 200b64c:	14 00 00 00 	CMP        $0,R2
 200b650:	78 a8 00 08 	BNZ        @0x0200b65c    // 200b65c <_fclose_r+0x38>
 200b654:	87 fa fc f8 	JSR        0x0200622c     // 200622c <__sinit>
 200b658:	02 00 62 2c 
 200b65c:	0d 05 40 0c 	LH         12(R5),R1
 200b660:	09 80 00 10 	LSL        $16,R1
 200b664:	09 c0 00 10 	ASR        $16,R1
 200b668:	0c 00 00 00 	CMP        $0,R1
 200b66c:	78 8b ff c4 	BZ         @0x0200b634    // 200b634 <_fclose_r+0x10>
 200b670:	97 a8 8f b0 	MOV        R5,R2          | MOV        R6,R1
 200b674:	87 fa fc f8 	JSR        0x02005934     // 2005934 <__sflush_r>
 200b678:	02 00 59 34 
 200b67c:	3b 40 40 00 	MOV        R1,R7
 200b680:	1c 85 40 2c 	LW         44(R5),R3
 200b684:	1c 00 00 00 	CMP        $0,R3
 200b688:	78 88 00 14 	BZ         @0x0200b6a0    // 200b6a0 <_fclose_r+0x7c>
 200b68c:	14 85 40 1c 	LW         28(R5),R2
 200b690:	0b 41 80 00 	MOV        R6,R1
 200b694:	87 f9 ff 98 	JSR        R3
 200b698:	0c 00 00 00 	CMP        $0,R1
 200b69c:	3a 13 ff ff 	BREV.LT    $-1,R7
 200b6a0:	0d 05 40 0c 	LH         12(R5),R1
 200b6a4:	08 40 00 80 	AND        $128,R1
 200b6a8:	78 88 00 10 	BZ         @0x0200b6bc    // 200b6bc <_fclose_r+0x98>
 200b6ac:	14 85 40 10 	LW         16(R5),R2
 200b6b0:	0b 41 80 00 	MOV        R6,R1
 200b6b4:	87 fa fc f8 	JSR        0x0200658c     // 200658c <_free_r>
 200b6b8:	02 00 65 8c 
 200b6bc:	14 85 40 30 	LW         48(R5),R2
 200b6c0:	14 00 00 00 	CMP        $0,R2
 200b6c4:	78 88 00 24 	BZ         @0x0200b6ec    // 200b6ec <_fclose_r+0xc8>
 200b6c8:	0b 41 40 00 	MOV        R5,R1
 200b6cc:	08 80 00 40 	ADD        $64,R1
 200b6d0:	14 04 40 00 	CMP        R1,R2
 200b6d4:	78 88 00 0c 	BZ         @0x0200b6e4    // 200b6e4 <_fclose_r+0xc0>
 200b6d8:	0b 41 80 00 	MOV        R6,R1
 200b6dc:	87 fa fc f8 	JSR        0x0200658c     // 200658c <_free_r>
 200b6e0:	02 00 65 8c 
 200b6e4:	06 00 00 00 	CLR        R0
 200b6e8:	04 c5 40 30 	SW         R0,$48(R5)
 200b6ec:	14 85 40 44 	LW         68(R5),R2
 200b6f0:	14 00 00 00 	CMP        $0,R2
 200b6f4:	78 88 00 14 	BZ         @0x0200b70c    // 200b70c <_fclose_r+0xe8>
 200b6f8:	0b 41 80 00 	MOV        R6,R1
 200b6fc:	87 fa fc f8 	JSR        0x0200658c     // 200658c <_free_r>
 200b700:	02 00 65 8c 
 200b704:	06 00 00 00 	CLR        R0
 200b708:	04 c5 40 44 	SW         R0,$68(R5)
 200b70c:	87 fa fc f8 	JSR        0x020063c0     // 20063c0 <__sfp_lock_acquire>
 200b710:	02 00 63 c0 
 200b714:	06 00 00 00 	CLR        R0
 200b718:	05 45 40 0c 	SH         R0,$12(R5)
 200b71c:	87 fa fc f8 	JSR        0x020063c4     // 20063c4 <__sfp_lock_release>
 200b720:	02 00 63 c4 
 200b724:	8f b8 84 00 	MOV        R7,R1          | LW         (SP),R0
 200b728:	ac 04 b4 08 	LW         4(SP),R5       | LW         8(SP),R6
 200b72c:	bc 0c ea 10 	LW         12(SP),R7      | ADD        $16,SP
 200b730:	7b 40 00 00 	RTN

0200b734 <fclose>:
 200b734:	e8 10 85 00 	SUB        $16,SP         | SW         R0,(SP)
 200b738:	ad 04 b5 08 	SW         R5,$4(SP)      | SW         R6,$8(SP)
 200b73c:	3c c7 40 0c 	SW         R7,$12(SP)
 200b740:	12 03 00 40 	LDI        0x0200e78c,R2  // 200e78c <_impure_ptr>
 200b744:	12 40 e7 8c 
 200b748:	b4 90 8b 00 	LW         (R2),R6        | CMP        $0,R1
 200b74c:	78 a8 00 08 	BNZ        @0x0200b758    // 200b758 <fclose+0x24>
 200b750:	3e 00 00 00 	CLR        R7
 200b754:	78 80 00 e8 	BRA        @0x0200b840    // 200b840 <fclose+0x10c>
 200b758:	af 88 b3 00 	MOV        R1,R5          | CMP        $0,R6
 200b75c:	78 88 00 18 	BZ         @0x0200b778    // 200b778 <fclose+0x44>
 200b760:	0c 85 80 38 	LW         56(R6),R1
 200b764:	0c 00 00 00 	CMP        $0,R1
 200b768:	78 a8 00 0c 	BNZ        @0x0200b778    // 200b778 <fclose+0x44>
 200b76c:	0b 41 80 00 	MOV        R6,R1
 200b770:	87 fa fc f8 	JSR        0x0200622c     // 200622c <__sinit>
 200b774:	02 00 62 2c 
 200b778:	0d 05 40 0c 	LH         12(R5),R1
 200b77c:	09 80 00 10 	LSL        $16,R1
 200b780:	09 c0 00 10 	ASR        $16,R1
 200b784:	0c 00 00 00 	CMP        $0,R1
 200b788:	78 8b ff c4 	BZ         @0x0200b750    // 200b750 <fclose+0x1c>
 200b78c:	97 a8 8f b0 	MOV        R5,R2          | MOV        R6,R1
 200b790:	87 fa fc f8 	JSR        0x02005934     // 2005934 <__sflush_r>
 200b794:	02 00 59 34 
 200b798:	3b 40 40 00 	MOV        R1,R7
 200b79c:	1c 85 40 2c 	LW         44(R5),R3
 200b7a0:	1c 00 00 00 	CMP        $0,R3
 200b7a4:	78 88 00 14 	BZ         @0x0200b7bc    // 200b7bc <fclose+0x88>
 200b7a8:	14 85 40 1c 	LW         28(R5),R2
 200b7ac:	0b 41 80 00 	MOV        R6,R1
 200b7b0:	87 f9 ff 98 	JSR        R3
 200b7b4:	0c 00 00 00 	CMP        $0,R1
 200b7b8:	3a 13 ff ff 	BREV.LT    $-1,R7
 200b7bc:	0d 05 40 0c 	LH         12(R5),R1
 200b7c0:	08 40 00 80 	AND        $128,R1
 200b7c4:	78 88 00 10 	BZ         @0x0200b7d8    // 200b7d8 <fclose+0xa4>
 200b7c8:	14 85 40 10 	LW         16(R5),R2
 200b7cc:	0b 41 80 00 	MOV        R6,R1
 200b7d0:	87 fa fc f8 	JSR        0x0200658c     // 200658c <_free_r>
 200b7d4:	02 00 65 8c 
 200b7d8:	14 85 40 30 	LW         48(R5),R2
 200b7dc:	14 00 00 00 	CMP        $0,R2
 200b7e0:	78 88 00 24 	BZ         @0x0200b808    // 200b808 <fclose+0xd4>
 200b7e4:	0b 41 40 00 	MOV        R5,R1
 200b7e8:	08 80 00 40 	ADD        $64,R1
 200b7ec:	14 04 40 00 	CMP        R1,R2
 200b7f0:	78 88 00 0c 	BZ         @0x0200b800    // 200b800 <fclose+0xcc>
 200b7f4:	0b 41 80 00 	MOV        R6,R1
 200b7f8:	87 fa fc f8 	JSR        0x0200658c     // 200658c <_free_r>
 200b7fc:	02 00 65 8c 
 200b800:	06 00 00 00 	CLR        R0
 200b804:	04 c5 40 30 	SW         R0,$48(R5)
 200b808:	14 85 40 44 	LW         68(R5),R2
 200b80c:	14 00 00 00 	CMP        $0,R2
 200b810:	78 88 00 14 	BZ         @0x0200b828    // 200b828 <fclose+0xf4>
 200b814:	0b 41 80 00 	MOV        R6,R1
 200b818:	87 fa fc f8 	JSR        0x0200658c     // 200658c <_free_r>
 200b81c:	02 00 65 8c 
 200b820:	06 00 00 00 	CLR        R0
 200b824:	04 c5 40 44 	SW         R0,$68(R5)
 200b828:	87 fa fc f8 	JSR        0x020063c0     // 20063c0 <__sfp_lock_acquire>
 200b82c:	02 00 63 c0 
 200b830:	06 00 00 00 	CLR        R0
 200b834:	05 45 40 0c 	SH         R0,$12(R5)
 200b838:	87 fa fc f8 	JSR        0x020063c4     // 20063c4 <__sfp_lock_release>
 200b83c:	02 00 63 c4 
 200b840:	8f b8 84 00 	MOV        R7,R1          | LW         (SP),R0
 200b844:	ac 04 b4 08 	LW         4(SP),R5       | LW         8(SP),R6
 200b848:	bc 0c ea 10 	LW         12(SP),R7      | ADD        $16,SP
 200b84c:	7b 40 00 00 	RTN

0200b850 <__fputwc>:
 200b850:	e8 14 85 04 	SUB        $20,SP         | SW         R0,$4(SP)
 200b854:	ad 08 b5 0c 	SW         R5,$8(SP)      | SW         R6,$12(SP)
 200b858:	bd 10 bf 88 	SW         R7,$16(SP)     | MOV        R1,R7
 200b85c:	b7 90 af 98 	MOV        R2,R6          | MOV        R3,R5
 200b860:	87 fa fc f8 	JSR        0x02006f8c     // 2006f8c <__locale_mb_cur_max>
 200b864:	02 00 6f 8c 
 200b868:	0c 00 00 01 	CMP        $1,R1
 200b86c:	78 a8 00 14 	BNZ        @0x0200b884    // 200b884 <__fputwc+0x34>
 200b870:	8f b0 8a 7f 	MOV        R6,R1          | ADD        $-1,R1
 200b874:	0c 00 00 ff 	CMP        $255,R1
 200b878:	78 b8 00 08 	BNC        @0x0200b884    // 200b884 <__fputwc+0x34>
 200b87c:	35 c7 40 03 	SB         R6,$3(SP)
 200b880:	78 80 00 3c 	BRA        @0x0200b8c0    // 200b8c0 <__fputwc+0x70>
 200b884:	23 41 40 60 	MOV        $96+R5,R4
 200b888:	9f b0 97 eb 	MOV        R6,R3          | MOV        $3+SP,R2
 200b88c:	0b 41 c0 00 	MOV        R7,R1
 200b890:	87 fa fc f8 	JSR        0x0200bdbc     // 200bdbc <_wcrtomb_r>
 200b894:	02 00 bd bc 
 200b898:	0c 03 ff ff 	CMP        $-1,R1
 200b89c:	78 a8 00 10 	BNZ        @0x0200b8b0    // 200b8b0 <__fputwc+0x60>
 200b8a0:	15 05 40 0c 	LH         12(R5),R2
 200b8a4:	10 c0 00 40 	OR         $64,R2
 200b8a8:	15 45 40 0c 	SH         R2,$12(R5)
 200b8ac:	78 80 00 64 	BRA        @0x0200b914    // 200b914 <__fputwc+0xc4>
 200b8b0:	0c 00 00 00 	CMP        $0,R1
 200b8b4:	78 a8 00 08 	BNZ        @0x0200b8c0    // 200b8c0 <__fputwc+0x70>
 200b8b8:	0b 41 80 00 	MOV        R6,R1
 200b8bc:	78 80 00 54 	BRA        @0x0200b914    // 200b914 <__fputwc+0xc4>
 200b8c0:	15 87 40 03 	LB         3(SP),R2
 200b8c4:	1c 85 40 08 	LW         8(R5),R3
 200b8c8:	18 83 ff ff 	ADD        $-1,R3
 200b8cc:	1c c5 40 08 	SW         R3,$8(R5)
 200b8d0:	78 b0 00 1c 	BGE        @0x0200b8f0    // 200b8f0 <__fputwc+0xa0>
 200b8d4:	0c 85 40 18 	LW         24(R5),R1
 200b8d8:	9b 88 9e 00 	CMP        R1,R3          | CLR        R3
 200b8dc:	1a 70 00 01 	LDILO.GE   $1,R3
 200b8e0:	93 0a 8e 00 	CMP        $10,R2         | CLR        R1
 200b8e4:	0a 68 00 01 	LDILO.NZ   $1,R1
 200b8e8:	18 44 40 00 	AND        R1,R3
 200b8ec:	78 88 00 10 	BZ         @0x0200b900    // 200b900 <__fputwc+0xb0>
 200b8f0:	9c a8 8f 98 	LW         (R5),R3        | MOV        R3,R1
 200b8f4:	8a 01 8d a8 	ADD        $1,R1          | SW         R1,(R5)
 200b8f8:	15 c4 c0 00 	SB         R2,(R3)
 200b8fc:	78 83 ff b8 	BRA        @0x0200b8b8    // 200b8b8 <__fputwc+0x68>
 200b900:	9f a8 8f b8 	MOV        R5,R3          | MOV        R7,R1
 200b904:	87 fa fc f8 	JSR        0x0200bb38     // 200bb38 <__swbuf_r>
 200b908:	02 00 bb 38 
 200b90c:	0c 03 ff ff 	CMP        $-1,R1
 200b910:	78 ab ff a4 	BNZ        @0x0200b8b8    // 200b8b8 <__fputwc+0x68>
 200b914:	84 04 ac 08 	LW         4(SP),R0       | LW         8(SP),R5
 200b918:	b4 0c bc 10 	LW         12(SP),R6      | LW         16(SP),R7
 200b91c:	ea 14 ff 80 	ADD        $20,SP         | RTN

0200b920 <_fputwc_r>:
 200b920:	e8 14 85 04 	SUB        $20,SP         | SW         R0,$4(SP)
 200b924:	ad 08 b5 0c 	SW         R5,$8(SP)      | SW         R6,$12(SP)
 200b928:	bd 10 bf 88 	SW         R7,$16(SP)     | MOV        R1,R7
 200b92c:	b7 90 af 98 	MOV        R2,R6          | MOV        R3,R5
 200b930:	0d 04 c0 0c 	LH         12(R3),R1
 200b934:	13 40 40 00 	MOV        R1,R2
 200b938:	10 40 20 00 	AND        $8192,R2
 200b93c:	78 a8 00 18 	BNZ        @0x0200b958    // 200b958 <_fputwc_r+0x38>
 200b940:	14 84 c0 68 	LW         104(R3),R2
 200b944:	08 c0 20 00 	OR         $8192,R1
 200b948:	0d 44 c0 0c 	SH         R1,$12(R3)
 200b94c:	0b 40 80 00 	MOV        R2,R1
 200b950:	08 c0 20 00 	OR         $8192,R1
 200b954:	0c c4 c0 68 	SW         R1,$104(R3)
 200b958:	87 fa fc f8 	JSR        0x02006f8c     // 2006f8c <__locale_mb_cur_max>
 200b95c:	02 00 6f 8c 
 200b960:	0c 00 00 01 	CMP        $1,R1
 200b964:	78 a8 00 14 	BNZ        @0x0200b97c    // 200b97c <_fputwc_r+0x5c>
 200b968:	8f b0 8a 7f 	MOV        R6,R1          | ADD        $-1,R1
 200b96c:	0c 00 00 ff 	CMP        $255,R1
 200b970:	78 b8 00 08 	BNC        @0x0200b97c    // 200b97c <_fputwc_r+0x5c>
 200b974:	35 c7 40 03 	SB         R6,$3(SP)
 200b978:	78 80 00 3c 	BRA        @0x0200b9b8    // 200b9b8 <_fputwc_r+0x98>
 200b97c:	23 41 40 60 	MOV        $96+R5,R4
 200b980:	9f b0 97 eb 	MOV        R6,R3          | MOV        $3+SP,R2
 200b984:	0b 41 c0 00 	MOV        R7,R1
 200b988:	87 fa fc f8 	JSR        0x0200bdbc     // 200bdbc <_wcrtomb_r>
 200b98c:	02 00 bd bc 
 200b990:	0c 03 ff ff 	CMP        $-1,R1
 200b994:	78 a8 00 10 	BNZ        @0x0200b9a8    // 200b9a8 <_fputwc_r+0x88>
 200b998:	15 05 40 0c 	LH         12(R5),R2
 200b99c:	10 c0 00 40 	OR         $64,R2
 200b9a0:	15 45 40 0c 	SH         R2,$12(R5)
 200b9a4:	78 80 00 64 	BRA        @0x0200ba0c    // 200ba0c <_fputwc_r+0xec>
 200b9a8:	0c 00 00 00 	CMP        $0,R1
 200b9ac:	78 a8 00 08 	BNZ        @0x0200b9b8    // 200b9b8 <_fputwc_r+0x98>
 200b9b0:	0b 41 80 00 	MOV        R6,R1
 200b9b4:	78 80 00 54 	BRA        @0x0200ba0c    // 200ba0c <_fputwc_r+0xec>
 200b9b8:	15 87 40 03 	LB         3(SP),R2
 200b9bc:	1c 85 40 08 	LW         8(R5),R3
 200b9c0:	18 83 ff ff 	ADD        $-1,R3
 200b9c4:	1c c5 40 08 	SW         R3,$8(R5)
 200b9c8:	78 b0 00 1c 	BGE        @0x0200b9e8    // 200b9e8 <_fputwc_r+0xc8>
 200b9cc:	0c 85 40 18 	LW         24(R5),R1
 200b9d0:	9b 88 9e 00 	CMP        R1,R3          | CLR        R3
 200b9d4:	1a 70 00 01 	LDILO.GE   $1,R3
 200b9d8:	93 0a 8e 00 	CMP        $10,R2         | CLR        R1
 200b9dc:	0a 68 00 01 	LDILO.NZ   $1,R1
 200b9e0:	18 44 40 00 	AND        R1,R3
 200b9e4:	78 88 00 10 	BZ         @0x0200b9f8    // 200b9f8 <_fputwc_r+0xd8>
 200b9e8:	9c a8 8f 98 	LW         (R5),R3        | MOV        R3,R1
 200b9ec:	8a 01 8d a8 	ADD        $1,R1          | SW         R1,(R5)
 200b9f0:	15 c4 c0 00 	SB         R2,(R3)
 200b9f4:	78 83 ff b8 	BRA        @0x0200b9b0    // 200b9b0 <_fputwc_r+0x90>
 200b9f8:	9f a8 8f b8 	MOV        R5,R3          | MOV        R7,R1
 200b9fc:	87 fa fc f8 	JSR        0x0200bb38     // 200bb38 <__swbuf_r>
 200ba00:	02 00 bb 38 
 200ba04:	0c 03 ff ff 	CMP        $-1,R1
 200ba08:	78 ab ff a4 	BNZ        @0x0200b9b0    // 200b9b0 <_fputwc_r+0x90>
 200ba0c:	84 04 ac 08 	LW         4(SP),R0       | LW         8(SP),R5
 200ba10:	b4 0c bc 10 	LW         12(SP),R6      | LW         16(SP),R7
 200ba14:	ea 14 ff 80 	ADD        $20,SP         | RTN

0200ba18 <fputwc>:
 200ba18:	e8 14 85 04 	SUB        $20,SP         | SW         R0,$4(SP)
 200ba1c:	ad 08 b5 0c 	SW         R5,$8(SP)      | SW         R6,$12(SP)
 200ba20:	bd 10 b7 88 	SW         R7,$16(SP)     | MOV        R1,R6
 200ba24:	2b 40 80 00 	MOV        R2,R5
 200ba28:	0a 03 00 40 	LDI        0x0200e78c,R1  // 200e78c <_impure_ptr>
 200ba2c:	0a 40 e7 8c 
 200ba30:	bc 88 bb 00 	LW         (R1),R7        | CMP        $0,R7
 200ba34:	78 88 00 18 	BZ         @0x0200ba50    // 200ba50 <fputwc+0x38>
 200ba38:	0c 85 c0 38 	LW         56(R7),R1
 200ba3c:	0c 00 00 00 	CMP        $0,R1
 200ba40:	78 a8 00 0c 	BNZ        @0x0200ba50    // 200ba50 <fputwc+0x38>
 200ba44:	0b 41 c0 00 	MOV        R7,R1
 200ba48:	87 fa fc f8 	JSR        0x0200622c     // 200622c <__sinit>
 200ba4c:	02 00 62 2c 
 200ba50:	0d 05 40 0c 	LH         12(R5),R1
 200ba54:	13 40 40 00 	MOV        R1,R2
 200ba58:	10 40 20 00 	AND        $8192,R2
 200ba5c:	78 a8 00 18 	BNZ        @0x0200ba78    // 200ba78 <fputwc+0x60>
 200ba60:	14 85 40 68 	LW         104(R5),R2
 200ba64:	08 c0 20 00 	OR         $8192,R1
 200ba68:	0d 45 40 0c 	SH         R1,$12(R5)
 200ba6c:	0b 40 80 00 	MOV        R2,R1
 200ba70:	08 c0 20 00 	OR         $8192,R1
 200ba74:	0c c5 40 68 	SW         R1,$104(R5)
 200ba78:	87 fa fc f8 	JSR        0x02006f8c     // 2006f8c <__locale_mb_cur_max>
 200ba7c:	02 00 6f 8c 
 200ba80:	0c 00 00 01 	CMP        $1,R1
 200ba84:	78 a8 00 14 	BNZ        @0x0200ba9c    // 200ba9c <fputwc+0x84>
 200ba88:	8f b0 8a 7f 	MOV        R6,R1          | ADD        $-1,R1
 200ba8c:	0c 00 00 ff 	CMP        $255,R1
 200ba90:	78 b8 00 08 	BNC        @0x0200ba9c    // 200ba9c <fputwc+0x84>
 200ba94:	35 c7 40 03 	SB         R6,$3(SP)
 200ba98:	78 80 00 3c 	BRA        @0x0200bad8    // 200bad8 <fputwc+0xc0>
 200ba9c:	23 41 40 60 	MOV        $96+R5,R4
 200baa0:	9f b0 97 eb 	MOV        R6,R3          | MOV        $3+SP,R2
 200baa4:	0b 41 c0 00 	MOV        R7,R1
 200baa8:	87 fa fc f8 	JSR        0x0200bdbc     // 200bdbc <_wcrtomb_r>
 200baac:	02 00 bd bc 
 200bab0:	0c 03 ff ff 	CMP        $-1,R1
 200bab4:	78 a8 00 10 	BNZ        @0x0200bac8    // 200bac8 <fputwc+0xb0>
 200bab8:	15 05 40 0c 	LH         12(R5),R2
 200babc:	10 c0 00 40 	OR         $64,R2
 200bac0:	15 45 40 0c 	SH         R2,$12(R5)
 200bac4:	78 80 00 64 	BRA        @0x0200bb2c    // 200bb2c <fputwc+0x114>
 200bac8:	0c 00 00 00 	CMP        $0,R1
 200bacc:	78 a8 00 08 	BNZ        @0x0200bad8    // 200bad8 <fputwc+0xc0>
 200bad0:	0b 41 80 00 	MOV        R6,R1
 200bad4:	78 80 00 54 	BRA        @0x0200bb2c    // 200bb2c <fputwc+0x114>
 200bad8:	15 87 40 03 	LB         3(SP),R2
 200badc:	1c 85 40 08 	LW         8(R5),R3
 200bae0:	18 83 ff ff 	ADD        $-1,R3
 200bae4:	1c c5 40 08 	SW         R3,$8(R5)
 200bae8:	78 b0 00 1c 	BGE        @0x0200bb08    // 200bb08 <fputwc+0xf0>
 200baec:	0c 85 40 18 	LW         24(R5),R1
 200baf0:	9b 88 9e 00 	CMP        R1,R3          | CLR        R3
 200baf4:	1a 70 00 01 	LDILO.GE   $1,R3
 200baf8:	93 0a 8e 00 	CMP        $10,R2         | CLR        R1
 200bafc:	0a 68 00 01 	LDILO.NZ   $1,R1
 200bb00:	18 44 40 00 	AND        R1,R3
 200bb04:	78 88 00 10 	BZ         @0x0200bb18    // 200bb18 <fputwc+0x100>
 200bb08:	9c a8 8f 98 	LW         (R5),R3        | MOV        R3,R1
 200bb0c:	8a 01 8d a8 	ADD        $1,R1          | SW         R1,(R5)
 200bb10:	15 c4 c0 00 	SB         R2,(R3)
 200bb14:	78 83 ff b8 	BRA        @0x0200bad0    // 200bad0 <fputwc+0xb8>
 200bb18:	9f a8 8f b8 	MOV        R5,R3          | MOV        R7,R1
 200bb1c:	87 fa fc f8 	JSR        0x0200bb38     // 200bb38 <__swbuf_r>
 200bb20:	02 00 bb 38 
 200bb24:	0c 03 ff ff 	CMP        $-1,R1
 200bb28:	78 ab ff a4 	BNZ        @0x0200bad0    // 200bad0 <fputwc+0xb8>
 200bb2c:	84 04 ac 08 	LW         4(SP),R0       | LW         8(SP),R5
 200bb30:	b4 0c bc 10 	LW         12(SP),R6      | LW         16(SP),R7
 200bb34:	ea 14 ff 80 	ADD        $20,SP         | RTN

0200bb38 <__swbuf_r>:
 200bb38:	e8 14 85 00 	SUB        $20,SP         | SW         R0,(SP)
 200bb3c:	ad 04 b5 08 	SW         R5,$4(SP)      | SW         R6,$8(SP)
 200bb40:	bd 0c c5 10 	SW         R7,$12(SP)     | SW         R8,$16(SP)
 200bb44:	bf 88 b7 90 	MOV        R1,R7          | MOV        R2,R6
 200bb48:	af 98 8b 00 	MOV        R3,R5          | CMP        $0,R1
 200bb4c:	78 88 00 14 	BZ         @0x0200bb64    // 200bb64 <__swbuf_r+0x2c>
 200bb50:	14 84 40 38 	LW         56(R1),R2
 200bb54:	14 00 00 00 	CMP        $0,R2
 200bb58:	78 a8 00 08 	BNZ        @0x0200bb64    // 200bb64 <__swbuf_r+0x2c>
 200bb5c:	87 fa fc f8 	JSR        0x0200622c     // 200622c <__sinit>
 200bb60:	02 00 62 2c 
 200bb64:	0c 85 40 18 	LW         24(R5),R1
 200bb68:	0c c5 40 08 	SW         R1,$8(R5)
 200bb6c:	15 05 40 0c 	LH         12(R5),R2
 200bb70:	0b 40 80 00 	MOV        R2,R1
 200bb74:	08 40 ff ff 	AND        $65535,R1
 200bb78:	9f 88 99 08 	MOV        R1,R3          | AND        $8,R3
 200bb7c:	78 88 00 0c 	BZ         @0x0200bb8c    // 200bb8c <__swbuf_r+0x54>
 200bb80:	1c 85 40 10 	LW         16(R5),R3
 200bb84:	1c 00 00 00 	CMP        $0,R3
 200bb88:	78 a8 00 2c 	BNZ        @0x0200bbb8    // 200bbb8 <__swbuf_r+0x80>
 200bb8c:	97 a8 8f b8 	MOV        R5,R2          | MOV        R7,R1
 200bb90:	87 fa fc f8 	JSR        0x02003b98     // 2003b98 <__swsetup_r>
 200bb94:	02 00 3b 98 
 200bb98:	0c 00 00 00 	CMP        $0,R1
 200bb9c:	78 88 00 08 	BZ         @0x0200bba8    // 200bba8 <__swbuf_r+0x70>
 200bba0:	36 7f ff ff 	LDI        $-1,R6
 200bba4:	78 80 00 bc 	BRA        @0x0200bc64    // 200bc64 <__swbuf_r+0x12c>
 200bba8:	15 05 40 0c 	LH         12(R5),R2
 200bbac:	0b 40 80 00 	MOV        R2,R1
 200bbb0:	08 40 ff ff 	AND        $65535,R1
 200bbb4:	1c 85 40 10 	LW         16(R5),R3
 200bbb8:	43 41 80 00 	MOV        R6,R8
 200bbbc:	40 40 00 ff 	AND        $255,R8
 200bbc0:	30 40 00 ff 	AND        $255,R6
 200bbc4:	08 40 20 00 	AND        $8192,R1
 200bbc8:	78 a8 00 18 	BNZ        @0x0200bbe4    // 200bbe4 <__swbuf_r+0xac>
 200bbcc:	10 c0 20 00 	OR         $8192,R2
 200bbd0:	15 45 40 0c 	SH         R2,$12(R5)
 200bbd4:	7f 40 00 00 	LOCK
 200bbd8:	14 85 40 68 	LW         104(R5),R2
 200bbdc:	10 43 df ff 	AND        $-8193,R2
 200bbe0:	14 c5 40 68 	SW         R2,$104(R5)
 200bbe4:	94 a8 8f 90 	LW         (R5),R2        | MOV        R2,R1
 200bbe8:	08 04 c0 00 	SUB        R3,R1
 200bbec:	1c 85 40 14 	LW         20(R5),R3
 200bbf0:	0c 04 c0 00 	CMP        R3,R1
 200bbf4:	78 b0 00 08 	BGE        @0x0200bc00    // 200bc00 <__swbuf_r+0xc8>
 200bbf8:	08 80 00 01 	ADD        $1,R1
 200bbfc:	78 80 00 18 	BRA        @0x0200bc18    // 200bc18 <__swbuf_r+0xe0>
 200bc00:	97 a8 8f b8 	MOV        R5,R2          | MOV        R7,R1
 200bc04:	87 fa fc f8 	JSR        0x02005660     // 2005660 <_fflush_r>
 200bc08:	02 00 56 60 
 200bc0c:	0c 00 00 00 	CMP        $0,R1
 200bc10:	78 ab ff 8c 	BNZ        @0x0200bba0    // 200bba0 <__swbuf_r+0x68>
 200bc14:	94 a8 8e 01 	LW         (R5),R2        | LDI        $1,R1
 200bc18:	1c 85 40 08 	LW         8(R5),R3
 200bc1c:	18 83 ff ff 	ADD        $-1,R3
 200bc20:	1c c5 40 08 	SW         R3,$8(R5)
 200bc24:	9f 90 9a 01 	MOV        R2,R3          | ADD        $1,R3
 200bc28:	1c c5 40 00 	SW         R3,(R5)
 200bc2c:	45 c4 80 00 	SB         R8,(R2)
 200bc30:	14 85 40 14 	LW         20(R5),R2
 200bc34:	14 04 40 00 	CMP        R1,R2
 200bc38:	78 88 00 14 	BZ         @0x0200bc50    // 200bc50 <__swbuf_r+0x118>
 200bc3c:	b3 0a 8e 00 	CMP        $10,R6         | CLR        R1
 200bc40:	0a 48 00 01 	LDILO.Z    $1,R1
 200bc44:	15 85 40 0d 	LB         13(R5),R2
 200bc48:	08 44 80 00 	AND        R2,R1
 200bc4c:	78 88 00 14 	BZ         @0x0200bc64    // 200bc64 <__swbuf_r+0x12c>
 200bc50:	97 a8 8f b8 	MOV        R5,R2          | MOV        R7,R1
 200bc54:	87 fa fc f8 	JSR        0x02005660     // 2005660 <_fflush_r>
 200bc58:	02 00 56 60 
 200bc5c:	0c 00 00 00 	CMP        $0,R1
 200bc60:	78 ab ff 3c 	BNZ        @0x0200bba0    // 200bba0 <__swbuf_r+0x68>
 200bc64:	8f b0 84 00 	MOV        R6,R1          | LW         (SP),R0
 200bc68:	ac 04 b4 08 	LW         4(SP),R5       | LW         8(SP),R6
 200bc6c:	bc 0c c4 10 	LW         12(SP),R7      | LW         16(SP),R8
 200bc70:	ea 14 ff 80 	ADD        $20,SP         | RTN

0200bc74 <__swbuf>:
 200bc74:	e8 14 85 00 	SUB        $20,SP         | SW         R0,(SP)
 200bc78:	ad 04 b5 08 	SW         R5,$4(SP)      | SW         R6,$8(SP)
 200bc7c:	bd 0c c5 10 	SW         R7,$12(SP)     | SW         R8,$16(SP)
 200bc80:	b7 88 af 90 	MOV        R1,R6          | MOV        R2,R5
 200bc84:	0a 03 00 40 	LDI        0x0200e78c,R1  // 200e78c <_impure_ptr>
 200bc88:	0a 40 e7 8c 
 200bc8c:	bc 88 bb 00 	LW         (R1),R7        | CMP        $0,R7
 200bc90:	78 88 00 18 	BZ         @0x0200bcac    // 200bcac <__swbuf+0x38>
 200bc94:	0c 85 c0 38 	LW         56(R7),R1
 200bc98:	0c 00 00 00 	CMP        $0,R1
 200bc9c:	78 a8 00 0c 	BNZ        @0x0200bcac    // 200bcac <__swbuf+0x38>
 200bca0:	0b 41 c0 00 	MOV        R7,R1
 200bca4:	87 fa fc f8 	JSR        0x0200622c     // 200622c <__sinit>
 200bca8:	02 00 62 2c 
 200bcac:	0c 85 40 18 	LW         24(R5),R1
 200bcb0:	0c c5 40 08 	SW         R1,$8(R5)
 200bcb4:	15 05 40 0c 	LH         12(R5),R2
 200bcb8:	0b 40 80 00 	MOV        R2,R1
 200bcbc:	08 40 ff ff 	AND        $65535,R1
 200bcc0:	9f 88 99 08 	MOV        R1,R3          | AND        $8,R3
 200bcc4:	78 88 00 0c 	BZ         @0x0200bcd4    // 200bcd4 <__swbuf+0x60>
 200bcc8:	1c 85 40 10 	LW         16(R5),R3
 200bccc:	1c 00 00 00 	CMP        $0,R3
 200bcd0:	78 a8 00 2c 	BNZ        @0x0200bd00    // 200bd00 <__swbuf+0x8c>
 200bcd4:	97 a8 8f b8 	MOV        R5,R2          | MOV        R7,R1
 200bcd8:	87 fa fc f8 	JSR        0x02003b98     // 2003b98 <__swsetup_r>
 200bcdc:	02 00 3b 98 
 200bce0:	0c 00 00 00 	CMP        $0,R1
 200bce4:	78 88 00 08 	BZ         @0x0200bcf0    // 200bcf0 <__swbuf+0x7c>
 200bce8:	36 7f ff ff 	LDI        $-1,R6
 200bcec:	78 80 00 bc 	BRA        @0x0200bdac    // 200bdac <__swbuf+0x138>
 200bcf0:	15 05 40 0c 	LH         12(R5),R2
 200bcf4:	0b 40 80 00 	MOV        R2,R1
 200bcf8:	08 40 ff ff 	AND        $65535,R1
 200bcfc:	1c 85 40 10 	LW         16(R5),R3
 200bd00:	43 41 80 00 	MOV        R6,R8
 200bd04:	40 40 00 ff 	AND        $255,R8
 200bd08:	30 40 00 ff 	AND        $255,R6
 200bd0c:	08 40 20 00 	AND        $8192,R1
 200bd10:	78 a8 00 18 	BNZ        @0x0200bd2c    // 200bd2c <__swbuf+0xb8>
 200bd14:	10 c0 20 00 	OR         $8192,R2
 200bd18:	15 45 40 0c 	SH         R2,$12(R5)
 200bd1c:	7f 40 00 00 	LOCK
 200bd20:	14 85 40 68 	LW         104(R5),R2
 200bd24:	10 43 df ff 	AND        $-8193,R2
 200bd28:	14 c5 40 68 	SW         R2,$104(R5)
 200bd2c:	94 a8 8f 90 	LW         (R5),R2        | MOV        R2,R1
 200bd30:	08 04 c0 00 	SUB        R3,R1
 200bd34:	1c 85 40 14 	LW         20(R5),R3
 200bd38:	0c 04 c0 00 	CMP        R3,R1
 200bd3c:	78 b0 00 08 	BGE        @0x0200bd48    // 200bd48 <__swbuf+0xd4>
 200bd40:	08 80 00 01 	ADD        $1,R1
 200bd44:	78 80 00 18 	BRA        @0x0200bd60    // 200bd60 <__swbuf+0xec>
 200bd48:	97 a8 8f b8 	MOV        R5,R2          | MOV        R7,R1
 200bd4c:	87 fa fc f8 	JSR        0x02005660     // 2005660 <_fflush_r>
 200bd50:	02 00 56 60 
 200bd54:	0c 00 00 00 	CMP        $0,R1
 200bd58:	78 ab ff 8c 	BNZ        @0x0200bce8    // 200bce8 <__swbuf+0x74>
 200bd5c:	94 a8 8e 01 	LW         (R5),R2        | LDI        $1,R1
 200bd60:	1c 85 40 08 	LW         8(R5),R3
 200bd64:	18 83 ff ff 	ADD        $-1,R3
 200bd68:	1c c5 40 08 	SW         R3,$8(R5)
 200bd6c:	9f 90 9a 01 	MOV        R2,R3          | ADD        $1,R3
 200bd70:	1c c5 40 00 	SW         R3,(R5)
 200bd74:	45 c4 80 00 	SB         R8,(R2)
 200bd78:	14 85 40 14 	LW         20(R5),R2
 200bd7c:	14 04 40 00 	CMP        R1,R2
 200bd80:	78 88 00 14 	BZ         @0x0200bd98    // 200bd98 <__swbuf+0x124>
 200bd84:	b3 0a 8e 00 	CMP        $10,R6         | CLR        R1
 200bd88:	0a 48 00 01 	LDILO.Z    $1,R1
 200bd8c:	15 85 40 0d 	LB         13(R5),R2
 200bd90:	08 44 80 00 	AND        R2,R1
 200bd94:	78 88 00 14 	BZ         @0x0200bdac    // 200bdac <__swbuf+0x138>
 200bd98:	97 a8 8f b8 	MOV        R5,R2          | MOV        R7,R1
 200bd9c:	87 fa fc f8 	JSR        0x02005660     // 2005660 <_fflush_r>
 200bda0:	02 00 56 60 
 200bda4:	0c 00 00 00 	CMP        $0,R1
 200bda8:	78 ab ff 3c 	BNZ        @0x0200bce8    // 200bce8 <__swbuf+0x74>
 200bdac:	8f b0 84 00 	MOV        R6,R1          | LW         (SP),R0
 200bdb0:	ac 04 b4 08 	LW         4(SP),R5       | LW         8(SP),R6
 200bdb4:	bc 0c c4 10 	LW         12(SP),R7      | LW         16(SP),R8
 200bdb8:	ea 14 ff 80 	ADD        $20,SP         | RTN

0200bdbc <_wcrtomb_r>:
 200bdbc:	e8 1c 85 0c 	SUB        $28,SP         | SW         R0,$12(SP)
 200bdc0:	ad 10 b5 14 	SW         R5,$16(SP)     | SW         R6,$20(SP)
 200bdc4:	bd 18 b7 88 	SW         R7,$24(SP)     | MOV        R1,R6
 200bdc8:	bf a0 93 00 	MOV        R4,R7          | CMP        $0,R2
 200bdcc:	78 a8 00 30 	BNZ        @0x0200be00    // 200be00 <_wcrtomb_r+0x44>
 200bdd0:	0a 03 00 40 	LDI        0x0200e78c,R1  // 200e78c <_impure_ptr>
 200bdd4:	0a 40 e7 8c 
 200bdd8:	0c 84 40 00 	LW         (R1),R1
 200bddc:	2c 84 40 34 	LW         52(R1),R5
 200bde0:	2c 00 00 00 	CMP        $0,R5
 200bde4:	2a 0b 00 40 	LDI.Z      0x0200efd4,R5  // 200efd4 <__global_locale>
 200bde8:	2a 48 ef d4 
 200bdec:	9e 00 97 ea 	CLR        R3             | MOV        $2+SP,R2
 200bdf0:	0b 41 80 00 	MOV        R6,R1
 200bdf4:	03 43 c0 01 	IJSR       #224(R5)
 200bdf8:	7c 85 40 e0 
 200bdfc:	78 80 00 28 	BRA        @0x0200be28    // 200be28 <_wcrtomb_r+0x6c>
 200be00:	0a 03 00 40 	LDI        0x0200e78c,R1  // 200e78c <_impure_ptr>
 200be04:	0a 40 e7 8c 
 200be08:	0c 84 40 00 	LW         (R1),R1
 200be0c:	2c 84 40 34 	LW         52(R1),R5
 200be10:	2c 00 00 00 	CMP        $0,R5
 200be14:	2a 0b 00 40 	LDI.Z      0x0200efd4,R5  // 200efd4 <__global_locale>
 200be18:	2a 48 ef d4 
 200be1c:	0b 41 80 00 	MOV        R6,R1
 200be20:	03 43 c0 01 	IJSR       #224(R5)
 200be24:	7c 85 40 e0 
 200be28:	0c 03 ff ff 	CMP        $-1,R1
 200be2c:	12 08 00 00 	CLR.Z      $0,R2
 200be30:	14 cd c0 00 	SW.Z       R2,(R7)
 200be34:	12 08 00 00 	LDI.Z      0x0000008a,R2  // 8a <_rom+0x8a>
 200be38:	12 48 00 8a 
 200be3c:	14 cd 80 00 	SW.Z       R2,(R6)
 200be40:	84 0c ac 10 	LW         12(SP),R0      | LW         16(SP),R5
 200be44:	b4 14 bc 18 	LW         20(SP),R6      | LW         24(SP),R7
 200be48:	ea 1c ff 80 	ADD        $28,SP         | RTN

0200be4c <wcrtomb>:
 200be4c:	e8 1c 85 0c 	SUB        $28,SP         | SW         R0,$12(SP)
 200be50:	ad 10 b5 14 	SW         R5,$16(SP)     | SW         R6,$20(SP)
 200be54:	bd 18 bf 98 	SW         R7,$24(SP)     | MOV        R3,R7
 200be58:	1a 03 00 40 	LDI        0x0200e78c,R3  // 200e78c <_impure_ptr>
 200be5c:	1a 40 e7 8c 
 200be60:	ac 98 8b 00 	LW         (R3),R5        | CMP        $0,R1
 200be64:	78 a8 00 24 	BNZ        @0x0200be8c    // 200be8c <wcrtomb+0x40>
 200be68:	34 85 40 34 	LW         52(R5),R6
 200be6c:	34 00 00 00 	CMP        $0,R6
 200be70:	32 0b 00 40 	LDI.Z      0x0200efd4,R6  // 200efd4 <__global_locale>
 200be74:	32 48 ef d4 
 200be78:	a7 b8 9e 00 	MOV        R7,R4          | CLR        R3
 200be7c:	97 ea 8f a8 	MOV        $2+SP,R2       | MOV        R5,R1
 200be80:	03 43 c0 01 	IJSR       #224(R6)
 200be84:	7c 85 80 e0 
 200be88:	78 80 00 20 	BRA        @0x0200beac    // 200beac <wcrtomb+0x60>
 200be8c:	34 85 40 34 	LW         52(R5),R6
 200be90:	34 00 00 00 	CMP        $0,R6
 200be94:	32 0b 00 40 	LDI.Z      0x0200efd4,R6  // 200efd4 <__global_locale>
 200be98:	32 48 ef d4 
 200be9c:	a7 b8 9f 90 	MOV        R7,R4          | MOV        R2,R3
 200bea0:	97 88 8f a8 	MOV        R1,R2          | MOV        R5,R1
 200bea4:	03 43 c0 01 	IJSR       #224(R6)
 200bea8:	7c 85 80 e0 
 200beac:	0c 03 ff ff 	CMP        $-1,R1
 200beb0:	12 08 00 00 	CLR.Z      $0,R2
 200beb4:	14 cd c0 00 	SW.Z       R2,(R7)
 200beb8:	12 08 00 00 	LDI.Z      0x0000008a,R2  // 8a <_rom+0x8a>
 200bebc:	12 48 00 8a 
 200bec0:	14 cd 40 00 	SW.Z       R2,(R5)
 200bec4:	84 0c ac 10 	LW         12(SP),R0      | LW         16(SP),R5
 200bec8:	b4 14 bc 18 	LW         20(SP),R6      | LW         24(SP),R7
 200becc:	ea 1c ff 80 	ADD        $28,SP         | RTN

0200bed0 <cltz>:
 200bed0:	9f 88 8e 00 	MOV        R1,R3          | CLR        R1
 200bed4:	1c 00 00 00 	CMP        $0,R3
 200bed8:	1b 48 80 00 	MOV.Z      R2,R3
 200bedc:	08 88 00 20 	ADD.Z      $32,R1
 200bee0:	1a 04 c0 00 	BREV       R3,R3
 200bee4:	1c 40 ff ff 	TST        $65535,R3
 200bee8:	08 88 00 10 	ADD.Z      $16,R1
 200beec:	19 48 00 10 	LSR.Z      $16,R3
 200bef0:	1c 40 00 ff 	TST        $255,R3
 200bef4:	08 88 00 08 	ADD.Z      $8,R1
 200bef8:	19 48 00 08 	LSR.Z      $8,R3
 200befc:	1c 40 00 0f 	TST        $15,R3
 200bf00:	08 88 00 04 	ADD.Z      $4,R1
 200bf04:	19 48 00 04 	LSR.Z      $4,R3
 200bf08:	1c 40 00 03 	TST        $3,R3
 200bf0c:	08 88 00 02 	ADD.Z      $2,R1
 200bf10:	19 48 00 02 	LSR.Z      $2,R3
 200bf14:	1c 40 00 01 	TST        $1,R3
 200bf18:	08 88 00 01 	ADD.Z      $1,R1
 200bf1c:	7b 40 00 00 	RTN

0200bf20 <__udivdi3>:
 200bf20:	68 00 00 40 	SUB        $64,SP
 200bf24:	85 1c ad 20 	SW         R0,$28(SP)     | SW         R5,$32(SP)
 200bf28:	b5 24 bd 28 	SW         R6,$36(SP)     | SW         R7,$40(SP)
 200bf2c:	c5 2c cd 30 	SW         R8,$44(SP)     | SW         R9,$48(SP)
 200bf30:	d5 34 dd 38 	SW         R10,$52(SP)    | SW         R11,$56(SP)
 200bf34:	e5 3c 8b 98 	SW         R12,$60(SP)    | CMP        R3,R1
 200bf38:	78 98 00 08 	BC         @0x0200bf44    // 200bf44 <__udivdi3+0x24>
 200bf3c:	14 0d 00 00 	CMP.Z      R4,R2
 200bf40:	78 b8 00 08 	BNC        @0x0200bf4c    // 200bf4c <__udivdi3+0x2c>
 200bf44:	b6 00 be 00 	CLR        R6             | CLR        R7
 200bf48:	78 80 02 24 	BRA        @0x0200c170    // 200c170 <__udivdi3+0x250>
 200bf4c:	bf 98 b6 00 	MOV        R3,R7          | CLR        R6
 200bf50:	34 00 00 00 	CMP        $0,R6
 200bf54:	3c 08 00 00 	CMP.Z      $0,R7
 200bf58:	78 a8 00 1c 	BNZ        @0x0200bf78    // 200bf78 <__udivdi3+0x58>
 200bf5c:	cf 88 c7 b0 	MOV        R1,R9          | MOV        R6,R8
 200bf60:	44 00 00 00 	CMP        $0,R8
 200bf64:	4c 08 00 00 	CMP.Z      $0,R9
 200bf68:	78 a8 00 0c 	BNZ        @0x0200bf78    // 200bf78 <__udivdi3+0x58>
 200bf6c:	3b 40 80 00 	MOV        R2,R7
 200bf70:	3b 85 00 00 	DIVU       R4,R7
 200bf74:	78 80 01 f8 	BRA        @0x0200c170    // 200c170 <__udivdi3+0x250>
 200bf78:	b7 98 bf a0 	MOV        R3,R6          | MOV        R4,R7
 200bf7c:	c7 88 cf 90 	MOV        R1,R8          | MOV        R2,R9
 200bf80:	87 fa fc f8 	JSR        0x0200bed0     // 200bed0 <cltz>
 200bf84:	02 00 be d0 
 200bf88:	af 88 8f b0 	MOV        R1,R5          | MOV        R6,R1
 200bf8c:	13 41 c0 00 	MOV        R7,R2
 200bf90:	87 fa fc f8 	JSR        0x0200bed0     // 200bed0 <cltz>
 200bf94:	02 00 be d0 
 200bf98:	a7 a8 a2 60 	MOV        R5,R4          | ADD        $-32,R4
 200bf9c:	78 90 00 10 	BLT        @0x0200bfb0    // 200bfb0 <__udivdi3+0x90>
 200bfa0:	53 42 40 00 	MOV        R9,R10
 200bfa4:	51 85 00 00 	LSL        R4,R10
 200bfa8:	5e 00 00 00 	CLR        R11
 200bfac:	78 80 00 24 	BRA        @0x0200bfd4    // 200bfd4 <__udivdi3+0xb4>
 200bfb0:	13 42 40 00 	MOV        R9,R2
 200bfb4:	11 40 00 01 	LSR        $1,R2
 200bfb8:	9e 1f 98 a8 	LDI        $31,R3         | SUB        R5,R3
 200bfbc:	11 44 c0 00 	LSR        R3,R2
 200bfc0:	53 42 00 00 	MOV        R8,R10
 200bfc4:	51 85 40 00 	LSL        R5,R10
 200bfc8:	10 c6 80 00 	OR         R10,R2
 200bfcc:	d7 90 df c8 	MOV        R2,R10         | MOV        R9,R11
 200bfd0:	59 85 40 00 	LSL        R5,R11
 200bfd4:	c7 88 c0 a8 	MOV        R1,R8          | SUB        R5,R8
 200bfd8:	44 00 00 20 	CMP        $32,R8
 200bfdc:	78 b0 00 60 	BGE        @0x0200c040    // 200c040 <__udivdi3+0x120>
 200bfe0:	24 00 00 00 	CMP        $0,R4
 200bfe4:	78 90 00 10 	BLT        @0x0200bff8    // 200bff8 <__udivdi3+0xd8>
 200bfe8:	13 41 c0 00 	MOV        R7,R2
 200bfec:	11 85 00 00 	LSL        R4,R2
 200bff0:	1e 00 00 00 	CLR        R3
 200bff4:	78 80 00 24 	BRA        @0x0200c01c    // 200c01c <__udivdi3+0xfc>
 200bff8:	23 41 c0 00 	MOV        R7,R4
 200bffc:	21 40 00 01 	LSR        $1,R4
 200c000:	96 1f 90 a8 	LDI        $31,R2         | SUB        R5,R2
 200c004:	21 44 80 00 	LSR        R2,R4
 200c008:	13 41 80 00 	MOV        R6,R2
 200c00c:	11 85 40 00 	LSL        R5,R2
 200c010:	20 c4 80 00 	OR         R2,R4
 200c014:	97 a0 9f b8 	MOV        R4,R2          | MOV        R7,R3
 200c018:	19 85 40 00 	LSL        R5,R3
 200c01c:	a6 00 ae ff 	CLR        R4             | LDI        $-1,R5
 200c020:	a9 98 a1 90 	AND        R3,R5          | AND        R2,R4
 200c024:	24 00 00 00 	CMP        $0,R4
 200c028:	2c 08 00 00 	CMP.Z      $0,R5
 200c02c:	78 a8 00 10 	BNZ        @0x0200c040    // 200c040 <__udivdi3+0x120>
 200c030:	3b 42 80 00 	MOV        R10,R7
 200c034:	3b 84 80 00 	DIVU       R2,R7
 200c038:	36 00 00 00 	CLR        R6
 200c03c:	78 80 01 30 	BRA        @0x0200c170    // 200c170 <__udivdi3+0x250>
 200c040:	a7 88 a2 60 	MOV        R1,R4          | ADD        $-32,R4
 200c044:	78 90 00 10 	BLT        @0x0200c058    // 200c058 <__udivdi3+0x138>
 200c048:	13 41 c0 00 	MOV        R7,R2
 200c04c:	11 85 00 00 	LSL        R4,R2
 200c050:	1e 00 00 00 	CLR        R3
 200c054:	78 80 00 24 	BRA        @0x0200c07c    // 200c07c <__udivdi3+0x15c>
 200c058:	23 41 c0 00 	MOV        R7,R4
 200c05c:	21 40 00 01 	LSR        $1,R4
 200c060:	96 1f 90 88 	LDI        $31,R2         | SUB        R1,R2
 200c064:	21 44 80 00 	LSR        R2,R4
 200c068:	13 41 80 00 	MOV        R6,R2
 200c06c:	11 84 40 00 	LSL        R1,R2
 200c070:	20 c4 80 00 	OR         R2,R4
 200c074:	97 a0 9f b8 	MOV        R4,R2          | MOV        R7,R3
 200c078:	19 84 40 00 	LSL        R1,R3
 200c07c:	8f c0 8a 60 	MOV        R8,R1          | ADD        $-32,R1
 200c080:	78 90 00 10 	BLT        @0x0200c094    // 200c094 <__udivdi3+0x174>
 200c084:	b6 01 a6 01 	LDI        $1,R6          | LDI        $1,R4
 200c088:	21 84 40 00 	LSL        R1,R4
 200c08c:	2e 00 00 00 	CLR        R5
 200c090:	78 80 00 0c 	BRA        @0x0200c0a0    // 200c0a0 <__udivdi3+0x180>
 200c094:	a6 00 ae 00 	CLR        R4             | CLR        R5
 200c098:	8e 01 ae 01 	LDI        $1,R1          | LDI        $1,R5
 200c09c:	29 86 00 00 	LSL        R8,R5
 200c0a0:	24 00 00 00 	CMP        $0,R4
 200c0a4:	2c 08 00 00 	CMP.Z      $0,R5
 200c0a8:	78 8b fe 98 	BZ         @0x0200bf44    // 200bf44 <__udivdi3+0x24>
 200c0ac:	b6 00 be 00 	CLR        R6             | CLR        R7
 200c0b0:	8e 00 e6 00 	CLR        R1             | CLR        R12
 200c0b4:	b5 00 bd 04 	SW         R6,(SP)        | SW         R7,$4(SP)
 200c0b8:	0c c7 40 18 	SW         R1,$24(SP)
 200c0bc:	b4 00 bc 04 	LW         (SP),R6        | LW         4(SP),R7
 200c0c0:	38 c5 40 00 	OR         R5,R7
 200c0c4:	30 c5 00 00 	OR         R4,R6
 200c0c8:	b5 10 bd 14 	SW         R6,$16(SP)     | SW         R7,$20(SP)
 200c0cc:	54 04 80 00 	CMP        R2,R10
 200c0d0:	5c 0c c0 00 	CMP.Z      R3,R11
 200c0d4:	78 98 00 0c 	BC         @0x0200c0e4    // 200c0e4 <__udivdi3+0x1c4>
 200c0d8:	95 08 9d 0c 	SW         R2,$8(SP)      | SW         R3,$12(SP)
 200c0dc:	b7 90 bf 98 	MOV        R2,R6          | MOV        R3,R7
 200c0e0:	78 80 00 0c 	BRA        @0x0200c0f0    // 200c0f0 <__udivdi3+0x1d0>
 200c0e4:	bc 18 bd 08 	LW         24(SP),R7      | SW         R7,$8(SP)
 200c0e8:	e5 0c b4 08 	SW         R12,$12(SP)    | LW         8(SP),R6
 200c0ec:	3c 87 40 0c 	LW         12(SP),R7
 200c0f0:	c7 d0 cf d8 	MOV        R10,R8         | MOV        R11,R9
 200c0f4:	48 05 c0 00 	SUB        R7,R9
 200c0f8:	40 18 00 01 	SUB.C      $1,R8
 200c0fc:	c0 b0 c5 08 	SUB        R6,R8          | SW         R8,$8(SP)
 200c100:	cd 0c d3 90 	SW         R9,$12(SP)     | CMP        R2,R10
 200c104:	5c 0c c0 00 	CMP.Z      R3,R11
 200c108:	78 98 00 08 	BC         @0x0200c114    // 200c114 <__udivdi3+0x1f4>
 200c10c:	dc 10 d4 14 	LW         16(SP),R11     | LW         20(SP),R10
 200c110:	78 80 00 04 	BRA        @0x0200c118    // 200c118 <__udivdi3+0x1f8>
 200c114:	dc 00 d4 04 	LW         (SP),R11       | LW         4(SP),R10
 200c118:	dd 00 d5 04 	SW         R11,(SP)       | SW         R10,$4(SP)
 200c11c:	5b 41 00 00 	MOV        R4,R11
 200c120:	59 80 00 1f 	LSL        $31,R11
 200c124:	53 41 40 00 	MOV        R5,R10
 200c128:	51 40 00 01 	LSR        $1,R10
 200c12c:	0b 41 00 00 	MOV        R4,R1
 200c130:	09 40 00 01 	LSR        $1,R1
 200c134:	a7 88 af d8 	MOV        R1,R4          | MOV        R11,R5
 200c138:	28 c6 80 00 	OR         R10,R5
 200c13c:	5b 40 80 00 	MOV        R2,R11
 200c140:	59 80 00 1f 	LSL        $31,R11
 200c144:	53 40 c0 00 	MOV        R3,R10
 200c148:	51 40 00 01 	LSR        $1,R10
 200c14c:	0b 40 80 00 	MOV        R2,R1
 200c150:	09 40 00 01 	LSR        $1,R1
 200c154:	97 88 9f d8 	MOV        R1,R2          | MOV        R11,R3
 200c158:	18 c6 80 00 	OR         R10,R3
 200c15c:	d4 08 dc 0c 	LW         8(SP),R10      | LW         12(SP),R11
 200c160:	24 00 00 00 	CMP        $0,R4
 200c164:	2c 08 00 00 	CMP.Z      $0,R5
 200c168:	78 ab ff 50 	BNZ        @0x0200c0bc    // 200c0bc <__udivdi3+0x19c>
 200c16c:	b4 00 bc 04 	LW         (SP),R6        | LW         4(SP),R7
 200c170:	8f b0 97 b8 	MOV        R6,R1          | MOV        R7,R2
 200c174:	84 1c ac 20 	LW         28(SP),R0      | LW         32(SP),R5
 200c178:	b4 24 bc 28 	LW         36(SP),R6      | LW         40(SP),R7
 200c17c:	c4 2c cc 30 	LW         44(SP),R8      | LW         48(SP),R9
 200c180:	d4 34 dc 38 	LW         52(SP),R10     | LW         56(SP),R11
 200c184:	64 87 40 3c 	LW         60(SP),R12
 200c188:	68 80 00 40 	ADD        $64,SP
 200c18c:	7b 40 00 00 	RTN

0200c190 <__divdi3>:
 200c190:	68 00 00 44 	SUB        $68,SP
 200c194:	85 20 ad 24 	SW         R0,$32(SP)     | SW         R5,$36(SP)
 200c198:	b5 28 bd 2c 	SW         R6,$40(SP)     | SW         R7,$44(SP)
 200c19c:	c5 30 cd 34 	SW         R8,$48(SP)     | SW         R9,$52(SP)
 200c1a0:	d5 38 dd 3c 	SW         R10,$56(SP)    | SW         R11,$60(SP)
 200c1a4:	64 c7 40 40 	SW         R12,$64(SP)
 200c1a8:	c7 88 cf 90 	MOV        R1,R8          | MOV        R2,R9
 200c1ac:	b7 98 bf a0 	MOV        R3,R6          | MOV        R4,R7
 200c1b0:	0c 00 00 00 	CMP        $0,R1
 200c1b4:	78 90 00 0c 	BLT        @0x0200c1c4    // 200c1c4 <__divdi3+0x34>
 200c1b8:	78 a8 00 20 	BNZ        @0x0200c1dc    // 200c1dc <__divdi3+0x4c>
 200c1bc:	14 00 00 00 	CMP        $0,R2
 200c1c0:	78 b8 00 18 	BNC        @0x0200c1dc    // 200c1dc <__divdi3+0x4c>
 200c1c4:	49 03 ff ff 	XOR        $-1,R9
 200c1c8:	41 03 ff ff 	XOR        $-1,R8
 200c1cc:	48 80 00 01 	ADD        $1,R9
 200c1d0:	40 98 00 01 	ADD.C      $1,R8
 200c1d4:	8e 00 e6 01 	CLR        R1             | LDI        $1,R12
 200c1d8:	78 80 00 04 	BRA        @0x0200c1e0    // 200c1e0 <__divdi3+0x50>
 200c1dc:	8e 01 e6 00 	LDI        $1,R1          | CLR        R12
 200c1e0:	34 00 00 00 	CMP        $0,R6
 200c1e4:	78 90 00 0c 	BLT        @0x0200c1f4    // 200c1f4 <__divdi3+0x64>
 200c1e8:	78 a8 00 1c 	BNZ        @0x0200c208    // 200c208 <__divdi3+0x78>
 200c1ec:	3c 00 00 00 	CMP        $0,R7
 200c1f0:	78 b8 00 14 	BNC        @0x0200c208    // 200c208 <__divdi3+0x78>
 200c1f4:	39 03 ff ff 	XOR        $-1,R7
 200c1f8:	31 03 ff ff 	XOR        $-1,R6
 200c1fc:	38 80 00 01 	ADD        $1,R7
 200c200:	30 98 00 01 	ADD.C      $1,R6
 200c204:	63 40 40 00 	MOV        R1,R12
 200c208:	44 05 80 00 	CMP        R6,R8
 200c20c:	78 98 00 08 	BC         @0x0200c218    // 200c218 <__divdi3+0x88>
 200c210:	4c 0d c0 00 	CMP.Z      R7,R9
 200c214:	78 b8 00 08 	BNC        @0x0200c220    // 200c220 <__divdi3+0x90>
 200c218:	96 00 9e 00 	CLR        R2             | CLR        R3
 200c21c:	78 80 02 20 	BRA        @0x0200c440    // 200c440 <__divdi3+0x2b0>
 200c220:	9f b0 96 00 	MOV        R6,R3          | CLR        R2
 200c224:	14 00 00 00 	CMP        $0,R2
 200c228:	1c 08 00 00 	CMP.Z      $0,R3
 200c22c:	78 a8 00 1c 	BNZ        @0x0200c24c    // 200c24c <__divdi3+0xbc>
 200c230:	af c0 a7 90 	MOV        R8,R5          | MOV        R2,R4
 200c234:	24 00 00 00 	CMP        $0,R4
 200c238:	2c 08 00 00 	CMP.Z      $0,R5
 200c23c:	78 a8 00 0c 	BNZ        @0x0200c24c    // 200c24c <__divdi3+0xbc>
 200c240:	1b 42 40 00 	MOV        R9,R3
 200c244:	1b 85 c0 00 	DIVU       R7,R3
 200c248:	78 80 01 f4 	BRA        @0x0200c440    // 200c440 <__divdi3+0x2b0>
 200c24c:	8f c0 97 c8 	MOV        R8,R1          | MOV        R9,R2
 200c250:	87 fa fc f8 	JSR        0x0200bed0     // 200bed0 <cltz>
 200c254:	02 00 be d0 
 200c258:	af 88 8f b0 	MOV        R1,R5          | MOV        R6,R1
 200c25c:	13 41 c0 00 	MOV        R7,R2
 200c260:	87 fa fc f8 	JSR        0x0200bed0     // 200bed0 <cltz>
 200c264:	02 00 be d0 
 200c268:	9f a8 9a 60 	MOV        R5,R3          | ADD        $-32,R3
 200c26c:	78 90 00 10 	BLT        @0x0200c280    // 200c280 <__divdi3+0xf0>
 200c270:	53 42 40 00 	MOV        R9,R10
 200c274:	51 84 c0 00 	LSL        R3,R10
 200c278:	5e 00 00 00 	CLR        R11
 200c27c:	78 80 00 24 	BRA        @0x0200c2a4    // 200c2a4 <__divdi3+0x114>
 200c280:	13 42 40 00 	MOV        R9,R2
 200c284:	11 40 00 01 	LSR        $1,R2
 200c288:	a6 1f a0 a8 	LDI        $31,R4         | SUB        R5,R4
 200c28c:	11 45 00 00 	LSR        R4,R2
 200c290:	53 42 00 00 	MOV        R8,R10
 200c294:	51 85 40 00 	LSL        R5,R10
 200c298:	10 c6 80 00 	OR         R10,R2
 200c29c:	d7 90 df c8 	MOV        R2,R10         | MOV        R9,R11
 200c2a0:	59 85 40 00 	LSL        R5,R11
 200c2a4:	97 88 90 a8 	MOV        R1,R2          | SUB        R5,R2
 200c2a8:	14 00 00 20 	CMP        $32,R2
 200c2ac:	78 b0 00 60 	BGE        @0x0200c310    // 200c310 <__divdi3+0x180>
 200c2b0:	1c 00 00 00 	CMP        $0,R3
 200c2b4:	78 90 00 10 	BLT        @0x0200c2c8    // 200c2c8 <__divdi3+0x138>
 200c2b8:	43 41 c0 00 	MOV        R7,R8
 200c2bc:	41 84 c0 00 	LSL        R3,R8
 200c2c0:	4e 00 00 00 	CLR        R9
 200c2c4:	78 80 00 24 	BRA        @0x0200c2ec    // 200c2ec <__divdi3+0x15c>
 200c2c8:	1b 41 c0 00 	MOV        R7,R3
 200c2cc:	19 40 00 01 	LSR        $1,R3
 200c2d0:	a6 1f a0 a8 	LDI        $31,R4         | SUB        R5,R4
 200c2d4:	19 45 00 00 	LSR        R4,R3
 200c2d8:	43 41 80 00 	MOV        R6,R8
 200c2dc:	41 85 40 00 	LSL        R5,R8
 200c2e0:	18 c6 00 00 	OR         R8,R3
 200c2e4:	c7 98 cf b8 	MOV        R3,R8          | MOV        R7,R9
 200c2e8:	49 85 40 00 	LSL        R5,R9
 200c2ec:	a6 00 ae ff 	CLR        R4             | LDI        $-1,R5
 200c2f0:	a9 c8 a1 c0 	AND        R9,R5          | AND        R8,R4
 200c2f4:	24 00 00 00 	CMP        $0,R4
 200c2f8:	2c 08 00 00 	CMP.Z      $0,R5
 200c2fc:	78 a8 00 10 	BNZ        @0x0200c310    // 200c310 <__divdi3+0x180>
 200c300:	1b 42 80 00 	MOV        R10,R3
 200c304:	1b 86 00 00 	DIVU       R8,R3
 200c308:	16 00 00 00 	CLR        R2
 200c30c:	78 80 01 30 	BRA        @0x0200c440    // 200c440 <__divdi3+0x2b0>
 200c310:	9f 88 9a 60 	MOV        R1,R3          | ADD        $-32,R3
 200c314:	78 90 00 10 	BLT        @0x0200c328    // 200c328 <__divdi3+0x198>
 200c318:	23 41 c0 00 	MOV        R7,R4
 200c31c:	21 84 c0 00 	LSL        R3,R4
 200c320:	2e 00 00 00 	CLR        R5
 200c324:	78 80 00 24 	BRA        @0x0200c34c    // 200c34c <__divdi3+0x1bc>
 200c328:	1b 41 c0 00 	MOV        R7,R3
 200c32c:	19 40 00 01 	LSR        $1,R3
 200c330:	a6 1f a0 88 	LDI        $31,R4         | SUB        R1,R4
 200c334:	19 45 00 00 	LSR        R4,R3
 200c338:	23 41 80 00 	MOV        R6,R4
 200c33c:	21 84 40 00 	LSL        R1,R4
 200c340:	18 c5 00 00 	OR         R4,R3
 200c344:	a7 98 af b8 	MOV        R3,R4          | MOV        R7,R5
 200c348:	29 84 40 00 	LSL        R1,R5
 200c34c:	8f 90 8a 60 	MOV        R2,R1          | ADD        $-32,R1
 200c350:	78 90 00 10 	BLT        @0x0200c364    // 200c364 <__divdi3+0x1d4>
 200c354:	96 01 c6 01 	LDI        $1,R2          | LDI        $1,R8
 200c358:	41 84 40 00 	LSL        R1,R8
 200c35c:	4e 00 00 00 	CLR        R9
 200c360:	78 80 00 0c 	BRA        @0x0200c370    // 200c370 <__divdi3+0x1e0>
 200c364:	c6 00 ce 00 	CLR        R8             | CLR        R9
 200c368:	8e 01 ce 01 	LDI        $1,R1          | LDI        $1,R9
 200c36c:	49 84 80 00 	LSL        R2,R9
 200c370:	44 00 00 00 	CMP        $0,R8
 200c374:	4c 08 00 00 	CMP.Z      $0,R9
 200c378:	78 8b fe 9c 	BZ         @0x0200c218    // 200c218 <__divdi3+0x88>
 200c37c:	8e 00 96 00 	CLR        R1             | CLR        R2
 200c380:	8d 10 95 14 	SW         R1,$16(SP)     | SW         R2,$20(SP)
 200c384:	8c 10 9c 14 	LW         16(SP),R1      | LW         20(SP),R3
 200c388:	e5 1c e7 88 	SW         R12,$28(SP)    | MOV        R1,R12
 200c38c:	b4 10 bc 14 	LW         16(SP),R6      | LW         20(SP),R7
 200c390:	38 c6 40 00 	OR         R9,R7
 200c394:	30 c6 00 00 	OR         R8,R6
 200c398:	b5 00 bd 04 	SW         R6,(SP)        | SW         R7,$4(SP)
 200c39c:	54 05 00 00 	CMP        R4,R10
 200c3a0:	5c 0d 40 00 	CMP.Z      R5,R11
 200c3a4:	78 98 00 0c 	BC         @0x0200c3b4    // 200c3b4 <__divdi3+0x224>
 200c3a8:	a5 08 ad 0c 	SW         R4,$8(SP)      | SW         R5,$12(SP)
 200c3ac:	b7 a0 bf a8 	MOV        R4,R6          | MOV        R5,R7
 200c3b0:	78 80 00 08 	BRA        @0x0200c3bc    // 200c3bc <__divdi3+0x22c>
 200c3b4:	e5 08 9d 0c 	SW         R12,$8(SP)     | SW         R3,$12(SP)
 200c3b8:	b4 08 bc 0c 	LW         8(SP),R6       | LW         12(SP),R7
 200c3bc:	8f d0 97 d8 	MOV        R10,R1         | MOV        R11,R2
 200c3c0:	10 05 c0 00 	SUB        R7,R2
 200c3c4:	08 18 00 01 	SUB.C      $1,R1
 200c3c8:	88 b0 8d 08 	SUB        R6,R1          | SW         R1,$8(SP)
 200c3cc:	95 0c d3 a0 	SW         R2,$12(SP)     | CMP        R4,R10
 200c3d0:	5c 0d 40 00 	CMP.Z      R5,R11
 200c3d4:	78 98 00 08 	BC         @0x0200c3e0    // 200c3e0 <__divdi3+0x250>
 200c3d8:	b4 00 8c 04 	LW         (SP),R6        | LW         4(SP),R1
 200c3dc:	78 80 00 04 	BRA        @0x0200c3e4    // 200c3e4 <__divdi3+0x254>
 200c3e0:	b4 10 8c 14 	LW         16(SP),R6      | LW         20(SP),R1
 200c3e4:	b5 10 8d 14 	SW         R6,$16(SP)     | SW         R1,$20(SP)
 200c3e8:	53 42 00 00 	MOV        R8,R10
 200c3ec:	51 80 00 1f 	LSL        $31,R10
 200c3f0:	3b 42 40 00 	MOV        R9,R7
 200c3f4:	39 40 00 01 	LSR        $1,R7
 200c3f8:	5b 42 00 00 	MOV        R8,R11
 200c3fc:	59 40 00 01 	LSR        $1,R11
 200c400:	c7 d8 cf d0 	MOV        R11,R8         | MOV        R10,R9
 200c404:	48 c5 c0 00 	OR         R7,R9
 200c408:	53 41 00 00 	MOV        R4,R10
 200c40c:	51 80 00 1f 	LSL        $31,R10
 200c410:	3b 41 40 00 	MOV        R5,R7
 200c414:	39 40 00 01 	LSR        $1,R7
 200c418:	5b 41 00 00 	MOV        R4,R11
 200c41c:	59 40 00 01 	LSR        $1,R11
 200c420:	a7 d8 af d0 	MOV        R11,R4         | MOV        R10,R5
 200c424:	28 c5 c0 00 	OR         R7,R5
 200c428:	d4 08 dc 0c 	LW         8(SP),R10      | LW         12(SP),R11
 200c42c:	44 00 00 00 	CMP        $0,R8
 200c430:	4c 08 00 00 	CMP.Z      $0,R9
 200c434:	78 ab ff 54 	BNZ        @0x0200c38c    // 200c38c <__divdi3+0x1fc>
 200c438:	e4 1c 97 b0 	LW         28(SP),R12     | MOV        R6,R2
 200c43c:	1b 40 40 00 	MOV        R1,R3
 200c440:	64 00 00 00 	CMP        $0,R12
 200c444:	78 88 00 10 	BZ         @0x0200c458    // 200c458 <__divdi3+0x2c8>
 200c448:	19 03 ff ff 	XOR        $-1,R3
 200c44c:	11 03 ff ff 	XOR        $-1,R2
 200c450:	18 80 00 01 	ADD        $1,R3
 200c454:	10 98 00 01 	ADD.C      $1,R2
 200c458:	8f 90 97 98 	MOV        R2,R1          | MOV        R3,R2
 200c45c:	84 20 ac 24 	LW         32(SP),R0      | LW         36(SP),R5
 200c460:	b4 28 bc 2c 	LW         40(SP),R6      | LW         44(SP),R7
 200c464:	c4 30 cc 34 	LW         48(SP),R8      | LW         52(SP),R9
 200c468:	d4 38 dc 3c 	LW         56(SP),R10     | LW         60(SP),R11
 200c46c:	64 87 40 40 	LW         64(SP),R12
 200c470:	68 80 00 44 	ADD        $68,SP
 200c474:	7b 40 00 00 	RTN

0200c478 <__umoddi3>:
 200c478:	e8 18 85 00 	SUB        $24,SP         | SW         R0,(SP)
 200c47c:	ad 04 b5 08 	SW         R5,$4(SP)      | SW         R6,$8(SP)
 200c480:	bd 0c c5 10 	SW         R7,$12(SP)     | SW         R8,$16(SP)
 200c484:	cd 14 c7 88 	SW         R9,$20(SP)     | MOV        R1,R8
 200c488:	cf 90 b7 98 	MOV        R2,R9          | MOV        R3,R6
 200c48c:	3b 41 00 00 	MOV        R4,R7
 200c490:	87 fa fc f8 	JSR        0x0200bf20     // 200bf20 <__udivdi3>
 200c494:	02 00 bf 20 
 200c498:	33 04 80 00 	MPY        R2,R6
 200c49c:	0b 05 c0 00 	MPY        R7,R1
 200c4a0:	af 90 a7 90 	MOV        R2,R5          | MOV        R2,R4
 200c4a4:	2b 05 c0 00 	MPY        R7,R5
 200c4a8:	22 85 c0 00 	MPYUHI     R7,R4
 200c4ac:	a2 88 a2 b0 	ADD        R1,R4          | ADD        R6,R4
 200c4b0:	8f c0 97 c8 	MOV        R8,R1          | MOV        R9,R2
 200c4b4:	10 05 40 00 	SUB        R5,R2
 200c4b8:	08 18 00 01 	SUB.C      $1,R1
 200c4bc:	88 a0 84 00 	SUB        R4,R1          | LW         (SP),R0
 200c4c0:	ac 04 b4 08 	LW         4(SP),R5       | LW         8(SP),R6
 200c4c4:	bc 0c c4 10 	LW         12(SP),R7      | LW         16(SP),R8
 200c4c8:	cc 14 ea 18 	LW         20(SP),R9      | ADD        $24,SP
 200c4cc:	7b 40 00 00 	RTN

0200c4d0 <_outbyte>:
 200c4d0:	08 40 00 ff 	AND        $255,R1
 200c4d4:	0c 00 00 0a 	CMP        $10,R1
 200c4d8:	78 a8 00 18 	BNZ        @0x0200c4f4    // 200c4f4 <_outbyte+0x24>
 200c4dc:	1a 00 03 00 	BREV       $768,R3
 200c4e0:	14 84 c0 04 	LW         4(R3),R2
 200c4e4:	10 41 00 00 	AND        $65536,R2
 200c4e8:	78 ab ff f4 	BNZ        @0x0200c4e0    // 200c4e0 <_outbyte+0x10>
 200c4ec:	16 00 00 0d 	LDI        $13,R2
 200c4f0:	14 c4 c0 0c 	SW         R2,$12(R3)
 200c4f4:	1a 00 03 00 	BREV       $768,R3
 200c4f8:	14 84 c0 04 	LW         4(R3),R2
 200c4fc:	10 41 00 00 	AND        $65536,R2
 200c500:	78 ab ff f4 	BNZ        @0x0200c4f8    // 200c4f8 <_outbyte+0x28>
 200c504:	0c c4 c0 0c 	SW         R1,$12(R3)
 200c508:	7b 40 00 00 	RTN

0200c50c <_inbyte>:
 200c50c:	0a 00 03 00 	BREV       $768,R1
 200c510:	0c 84 40 08 	LW         8(R1),R1
 200c514:	13 40 40 00 	MOV        R1,R2
 200c518:	10 40 01 00 	AND        $256,R2
 200c51c:	78 a8 00 8c 	BNZ        @0x0200c5ac    // 200c5ac <_inbyte+0xa0>
 200c520:	0c 00 00 0d 	CMP        $13,R1
 200c524:	78 a8 00 14 	BNZ        @0x0200c53c    // 200c53c <_inbyte+0x30>
 200c528:	0a 03 20 40 	LDI        0x0204f1b4,R1  // 204f1b4 <last_was_cr.2996>
 200c52c:	0a 40 f1 b4 
 200c530:	96 01 95 88 	LDI        $1,R2          | SW         R2,(R1)
 200c534:	a6 0a 8f a0 	LDI        $10,R4         | MOV        R4,R1
 200c538:	78 80 00 78 	BRA        @0x0200c5b4    // 200c5b4 <_inbyte+0xa8>
 200c53c:	0c 00 00 0a 	CMP        $10,R1
 200c540:	78 a8 00 18 	BNZ        @0x0200c55c    // 200c55c <_inbyte+0x50>
 200c544:	1a 03 20 40 	LDI        0x0204f1b4,R3  // 204f1b4 <last_was_cr.2996>
 200c548:	1a 40 f1 b4 
 200c54c:	a4 98 a3 00 	LW         (R3),R4        | CMP        $0,R4
 200c550:	78 88 00 5c 	BZ         @0x0200c5b0    // 200c5b0 <_inbyte+0xa4>
 200c554:	95 98 8e ff 	SW         R2,(R3)        | LDI        $-1,R1
 200c558:	7b 40 00 00 	RTN
 200c55c:	1a 03 20 40 	LDI        0x0204f1b4,R3  // 204f1b4 <last_was_cr.2996>
 200c560:	1a 40 f1 b4 
 200c564:	95 98 97 88 	SW         R2,(R3)        | MOV        R1,R2
 200c568:	10 40 00 ff 	AND        $255,R2
 200c56c:	23 40 40 00 	MOV        R1,R4
 200c570:	20 40 00 ff 	AND        $255,R4
 200c574:	14 00 00 0a 	CMP        $10,R2
 200c578:	78 a8 00 18 	BNZ        @0x0200c594    // 200c594 <_inbyte+0x88>
 200c57c:	78 80 00 34 	BRA        @0x0200c5b4    // 200c5b4 <_inbyte+0xa8>
 200c580:	14 84 c0 04 	LW         4(R3),R2
 200c584:	10 41 00 00 	AND        $65536,R2
 200c588:	78 ab ff f4 	BNZ        @0x0200c580    // 200c580 <_inbyte+0x74>
 200c58c:	16 00 00 0d 	LDI        $13,R2
 200c590:	14 c4 c0 0c 	SW         R2,$12(R3)
 200c594:	1a 00 03 00 	BREV       $768,R3
 200c598:	14 84 c0 04 	LW         4(R3),R2
 200c59c:	10 41 00 00 	AND        $65536,R2
 200c5a0:	78 ab ff f4 	BNZ        @0x0200c598    // 200c598 <_inbyte+0x8c>
 200c5a4:	24 c4 c0 0c 	SW         R4,$12(R3)
 200c5a8:	7b 40 00 00 	RTN
 200c5ac:	8e ff ff 80 	LDI        $-1,R1         | RTN
 200c5b0:	23 40 40 00 	MOV        R1,R4
 200c5b4:	1a 00 03 00 	BREV       $768,R3
 200c5b8:	78 83 ff c4 	BRA        @0x0200c580    // 200c580 <_inbyte+0x74>

0200c5bc <_close_r>:
 200c5bc:	96 09 95 88 	LDI        $9,R2          | SW         R2,(R1)
 200c5c0:	8e ff ff 80 	LDI        $-1,R1         | RTN

0200c5c4 <_execve_r>:
 200c5c4:	96 58 95 88 	LDI        $88,R2         | SW         R2,(R1)
 200c5c8:	8e ff ff 80 	LDI        $-1,R1         | RTN

0200c5cc <_fork_r>:
 200c5cc:	96 58 95 88 	LDI        $88,R2         | SW         R2,(R1)
 200c5d0:	8e ff ff 80 	LDI        $-1,R1         | RTN

0200c5d4 <_fstat_r>:
 200c5d4:	14 00 00 03 	CMP        $3,R2
 200c5d8:	78 b8 00 0c 	BNC        @0x0200c5e8    // 200c5e8 <_fstat_r+0x14>
 200c5dc:	0e 00 20 00 	LDI        $8192,R1
 200c5e0:	0c c4 c0 04 	SW         R1,$4(R3)
 200c5e4:	8e 00 ff 80 	CLR        R1             | RTN
 200c5e8:	96 09 95 88 	LDI        $9,R2          | SW         R2,(R1)
 200c5ec:	0e 7f ff ff 	LDI        $-1,R1
 200c5f0:	7b 40 00 00 	RTN

0200c5f4 <_getpid_r>:
 200c5f4:	8e 01 ff 80 	LDI        $1,R1          | RTN

0200c5f8 <_gettimeofday_r>:
 200c5f8:	96 58 95 88 	LDI        $88,R2         | SW         R2,(R1)
 200c5fc:	8e ff ff 80 	LDI        $-1,R1         | RTN

0200c600 <_isatty_r>:
 200c600:	93 03 8e 00 	CMP        $3,R2          | CLR        R1
 200c604:	0a 58 00 01 	LDILO.C    $1,R1
 200c608:	7b 40 00 00 	RTN

0200c60c <_kill_r>:
 200c60c:	96 58 95 88 	LDI        $88,R2         | SW         R2,(R1)
 200c610:	8e ff ff 80 	LDI        $-1,R1         | RTN

0200c614 <_link_r>:
 200c614:	96 58 95 88 	LDI        $88,R2         | SW         R2,(R1)
 200c618:	8e ff ff 80 	LDI        $-1,R1         | RTN

0200c61c <_lseek_r>:
 200c61c:	96 58 95 88 	LDI        $88,R2         | SW         R2,(R1)
 200c620:	8e ff 96 ff 	LDI        $-1,R1         | LDI        $-1,R2
 200c624:	7b 40 00 00 	RTN

0200c628 <_open_r>:
 200c628:	96 58 95 88 	LDI        $88,R2         | SW         R2,(R1)
 200c62c:	8e ff ff 80 	LDI        $-1,R1         | RTN

0200c630 <_read_r>:
 200c630:	e8 24 85 00 	SUB        $36,SP         | SW         R0,(SP)
 200c634:	ad 04 b5 08 	SW         R5,$4(SP)      | SW         R6,$8(SP)
 200c638:	bd 0c c5 10 	SW         R7,$12(SP)     | SW         R8,$16(SP)
 200c63c:	cd 14 d5 18 	SW         R9,$20(SP)     | SW         R10,$24(SP)
 200c640:	dd 1c e5 20 	SW         R11,$28(SP)    | SW         R12,$32(SP)
 200c644:	14 00 00 00 	CMP        $0,R2
 200c648:	78 a8 01 a0 	BNZ        @0x0200c7ec    // 200c7ec <_read_r+0x1bc>
 200c64c:	0a 03 20 40 	LDI        0x0204f1b4,R1  // 204f1b4 <last_was_cr.2996>
 200c650:	0a 40 f1 b4 
 200c654:	44 84 40 00 	LW         (R1),R8
 200c658:	2a 00 03 00 	BREV       $768,R5
 200c65c:	cf 90 b6 01 	MOV        R2,R9          | LDI        $1,R6
 200c660:	0c 85 40 08 	LW         8(R5),R1
 200c664:	3b 40 40 00 	MOV        R1,R7
 200c668:	38 40 01 00 	AND        $256,R7
 200c66c:	78 ab ff f0 	BNZ        @0x0200c660    // 200c660 <_read_r+0x30>
 200c670:	0c 00 00 0d 	CMP        $13,R1
 200c674:	78 88 00 38 	BZ         @0x0200c6b0    // 200c6b0 <_read_r+0x80>
 200c678:	0c 00 00 0a 	CMP        $10,R1
 200c67c:	78 a8 00 10 	BNZ        @0x0200c690    // 200c690 <_read_r+0x60>
 200c680:	44 00 00 00 	CMP        $0,R8
 200c684:	78 a8 01 78 	BNZ        @0x0200c800    // 200c800 <_read_r+0x1d0>
 200c688:	33 40 40 00 	MOV        R1,R6
 200c68c:	78 80 00 28 	BRA        @0x0200c6b8    // 200c6b8 <_read_r+0x88>
 200c690:	43 40 40 00 	MOV        R1,R8
 200c694:	40 40 00 ff 	AND        $255,R8
 200c698:	33 40 40 00 	MOV        R1,R6
 200c69c:	30 40 00 ff 	AND        $255,R6
 200c6a0:	96 01 c3 0a 	LDI        $1,R2          | CMP        $10,R8
 200c6a4:	78 a8 00 30 	BNZ        @0x0200c6d8    // 200c6d8 <_read_r+0xa8>
 200c6a8:	c7 b8 96 01 	MOV        R7,R8          | LDI        $1,R2
 200c6ac:	78 80 00 08 	BRA        @0x0200c6b8    // 200c6b8 <_read_r+0x88>
 200c6b0:	96 01 c6 01 	LDI        $1,R2          | LDI        $1,R8
 200c6b4:	36 00 00 0a 	LDI        $10,R6
 200c6b8:	2a 00 03 00 	BREV       $768,R5
 200c6bc:	0c 85 40 04 	LW         4(R5),R1
 200c6c0:	08 41 00 00 	AND        $65536,R1
 200c6c4:	78 ab ff f4 	BNZ        @0x0200c6bc    // 200c6bc <_read_r+0x8c>
 200c6c8:	0e 00 00 0d 	LDI        $13,R1
 200c6cc:	0c c5 40 0c 	SW         R1,$12(R5)
 200c6d0:	bf c0 c6 0a 	MOV        R8,R7          | LDI        $10,R8
 200c6d4:	78 80 00 00 	BRA        @0x0200c6d8    // 200c6d8 <_read_r+0xa8>
 200c6d8:	2a 00 03 00 	BREV       $768,R5
 200c6dc:	0c 85 40 04 	LW         4(R5),R1
 200c6e0:	08 41 00 00 	AND        $65536,R1
 200c6e4:	78 ab ff f4 	BNZ        @0x0200c6dc    // 200c6dc <_read_r+0xac>
 200c6e8:	34 c5 40 0c 	SW         R6,$12(R5)
 200c6ec:	14 00 00 00 	CMP        $0,R2
 200c6f0:	12 2b 20 40 	LDI.NZ     0x0204f1b4,R2  // 204f1b4 <last_was_cr.2996>
 200c6f4:	12 68 f1 b4 
 200c6f8:	3c ec 80 00 	SW.NZ      R7,(R2)
 200c6fc:	b7 98 b2 01 	MOV        R3,R6          | ADD        $1,R6
 200c700:	45 c4 c0 00 	SB         R8,(R3)
 200c704:	8e 01 a3 02 	LDI        $1,R1          | CMP        $2,R4
 200c708:	78 98 01 0c 	BC         @0x0200c818    // 200c818 <_read_r+0x1e8>
 200c70c:	78 80 00 18 	BRA        @0x0200c728    // 200c728 <_read_r+0xf8>
 200c710:	4c 00 00 00 	CMP        $0,R9
 200c714:	78 88 01 00 	BZ         @0x0200c818    // 200c818 <_read_r+0x1e8>
 200c718:	1a 03 20 40 	LDI        0x0204f1b4,R3  // 204f1b4 <last_was_cr.2996>
 200c71c:	1a 40 f1 b4 
 200c720:	44 c4 c0 00 	SW         R8,(R3)
 200c724:	78 80 00 f0 	BRA        @0x0200c818    // 200c818 <_read_r+0x1e8>
 200c728:	0a 03 20 40 	LDI        0x0204f1b4,R1  // 204f1b4 <last_was_cr.2996>
 200c72c:	0a 40 f1 b4 
 200c730:	c4 88 ce 00 	LW         (R1),R8        | CLR        R9
 200c734:	0e 00 00 01 	LDI        $1,R1
 200c738:	1a 00 03 00 	BREV       $768,R3
 200c73c:	de 0a d6 01 	LDI        $10,R11        | LDI        $1,R10
 200c740:	66 00 00 01 	LDI        $1,R12
 200c744:	2c 84 c0 08 	LW         8(R3),R5
 200c748:	13 41 40 00 	MOV        R5,R2
 200c74c:	10 40 01 00 	AND        $256,R2
 200c750:	78 a8 00 b4 	BNZ        @0x0200c808    // 200c808 <_read_r+0x1d8>
 200c754:	2c 00 00 0d 	CMP        $13,R5
 200c758:	78 88 00 3c 	BZ         @0x0200c798    // 200c798 <_read_r+0x168>
 200c75c:	2c 00 00 0a 	CMP        $10,R5
 200c760:	78 a8 00 18 	BNZ        @0x0200c77c    // 200c77c <_read_r+0x14c>
 200c764:	44 00 00 00 	CMP        $0,R8
 200c768:	78 88 00 38 	BZ         @0x0200c7a4    // 200c7a4 <_read_r+0x174>
 200c76c:	1a 03 20 40 	LDI        0x0204f1b4,R3  // 204f1b4 <last_was_cr.2996>
 200c770:	1a 40 f1 b4 
 200c774:	14 c4 c0 00 	SW         R2,(R3)
 200c778:	78 80 00 9c 	BRA        @0x0200c818    // 200c818 <_read_r+0x1e8>
 200c77c:	3b 41 40 00 	MOV        R5,R7
 200c780:	38 40 00 ff 	AND        $255,R7
 200c784:	28 40 00 ff 	AND        $255,R5
 200c788:	c6 00 cf d0 	CLR        R8             | MOV        R10,R9
 200c78c:	3c 00 00 0a 	CMP        $10,R7
 200c790:	78 88 00 14 	BZ         @0x0200c7a8    // 200c7a8 <_read_r+0x178>
 200c794:	78 80 00 2c 	BRA        @0x0200c7c4    // 200c7c4 <_read_r+0x194>
 200c798:	af d8 cf d0 	MOV        R11,R5         | MOV        R10,R9
 200c79c:	43 43 00 00 	MOV        R12,R8
 200c7a0:	78 80 00 04 	BRA        @0x0200c7a8    // 200c7a8 <_read_r+0x178>
 200c7a4:	2b 42 c0 00 	MOV        R11,R5
 200c7a8:	14 84 c0 04 	LW         4(R3),R2
 200c7ac:	10 41 00 00 	AND        $65536,R2
 200c7b0:	78 ab ff f4 	BNZ        @0x0200c7a8    // 200c7a8 <_read_r+0x178>
 200c7b4:	16 00 00 0d 	LDI        $13,R2
 200c7b8:	14 c4 c0 0c 	SW         R2,$12(R3)
 200c7bc:	3b 42 c0 00 	MOV        R11,R7
 200c7c0:	78 80 00 04 	BRA        @0x0200c7c8    // 200c7c8 <_read_r+0x198>
 200c7c4:	c6 00 cf d0 	CLR        R8             | MOV        R10,R9
 200c7c8:	14 84 c0 04 	LW         4(R3),R2
 200c7cc:	10 41 00 00 	AND        $65536,R2
 200c7d0:	78 ab ff f4 	BNZ        @0x0200c7c8    // 200c7c8 <_read_r+0x198>
 200c7d4:	2c c4 c0 0c 	SW         R5,$12(R3)
 200c7d8:	30 80 00 01 	ADD        $1,R6
 200c7dc:	3d c5 bf ff 	SB         R7,$-1(R6)
 200c7e0:	8a 01 8b a0 	ADD        $1,R1          | CMP        R4,R1
 200c7e4:	78 ab ff 5c 	BNZ        @0x0200c744    // 200c744 <_read_r+0x114>
 200c7e8:	78 83 ff 24 	BRA        @0x0200c710    // 200c710 <_read_r+0xe0>
 200c7ec:	87 fa fc f8 	JSR        0x0200e1d8     // 200e1d8 <__errno>
 200c7f0:	02 00 e1 d8 
 200c7f4:	9e 58 9d 88 	LDI        $88,R3         | SW         R3,(R1)
 200c7f8:	0e 7f ff ff 	LDI        $-1,R1
 200c7fc:	78 80 00 18 	BRA        @0x0200c818    // 200c818 <_read_r+0x1e8>
 200c800:	c7 c8 97 b0 	MOV        R9,R8          | MOV        R6,R2
 200c804:	78 83 fe 58 	BRA        @0x0200c660    // 200c660 <_read_r+0x30>
 200c808:	4c 00 00 00 	CMP        $0,R9
 200c80c:	12 2b 20 40 	LDI.NZ     0x0204f1b4,R2  // 204f1b4 <last_was_cr.2996>
 200c810:	12 68 f1 b4 
 200c814:	44 ec 80 00 	SW.NZ      R8,(R2)
 200c818:	84 00 ac 04 	LW         (SP),R0        | LW         4(SP),R5
 200c81c:	b4 08 bc 0c 	LW         8(SP),R6       | LW         12(SP),R7
 200c820:	c4 10 cc 14 	LW         16(SP),R8      | LW         20(SP),R9
 200c824:	d4 18 dc 1c 	LW         24(SP),R10     | LW         28(SP),R11
 200c828:	e4 20 ea 24 	LW         32(SP),R12     | ADD        $36,SP
 200c82c:	7b 40 00 00 	RTN

0200c830 <_readlink_r>:
 200c830:	96 58 95 88 	LDI        $88,R2         | SW         R2,(R1)
 200c834:	8e ff ff 80 	LDI        $-1,R1         | RTN

0200c838 <_stat_r>:
 200c838:	96 05 95 88 	LDI        $5,R2          | SW         R2,(R1)
 200c83c:	8e ff ff 80 	LDI        $-1,R1         | RTN

0200c840 <_unlink_r>:
 200c840:	96 05 95 88 	LDI        $5,R2          | SW         R2,(R1)
 200c844:	8e ff ff 80 	LDI        $-1,R1         | RTN

0200c848 <_times>:
 200c848:	e8 04 85 00 	SUB        $4,SP          | SW         R0,(SP)
 200c84c:	87 fa fc f8 	JSR        0x0200e1d8     // 200e1d8 <__errno>
 200c850:	02 00 e1 d8 
 200c854:	96 0d 95 88 	LDI        $13,R2         | SW         R2,(R1)
 200c858:	8e ff 84 00 	LDI        $-1,R1         | LW         (SP),R0
 200c85c:	ea 04 ff 80 	ADD        $4,SP          | RTN

0200c860 <_write_r>:
 200c860:	92 7f 93 02 	ADD        $-1,R2         | CMP        $2,R2
 200c864:	78 b8 00 60 	BNC        @0x0200c8c8    // 200c8c8 <_write_r+0x68>
 200c868:	24 00 00 00 	CMP        $0,R4
 200c86c:	78 a8 00 0c 	BNZ        @0x0200c87c    // 200c87c <_write_r+0x1c>
 200c870:	78 80 00 64 	BRA        @0x0200c8d8    // 200c8d8 <_write_r+0x78>
 200c874:	0b 41 00 00 	MOV        R4,R1
 200c878:	78 80 00 54 	BRA        @0x0200c8d0    // 200c8d0 <_write_r+0x70>
 200c87c:	e8 08 ad 00 	SUB        $8,SP          | SW         R5,(SP)
 200c880:	b5 04 b7 98 	SW         R6,$4(SP)      | MOV        R3,R6
 200c884:	30 85 00 00 	ADD        R4,R6
 200c888:	0a 00 03 00 	BREV       $768,R1
 200c88c:	2d 84 c0 00 	LB         (R3),R5
 200c890:	2c 00 00 0a 	CMP        $10,R5
 200c894:	78 a8 00 14 	BNZ        @0x0200c8ac    // 200c8ac <_write_r+0x4c>
 200c898:	14 84 40 04 	LW         4(R1),R2
 200c89c:	10 41 00 00 	AND        $65536,R2
 200c8a0:	78 ab ff f4 	BNZ        @0x0200c898    // 200c898 <_write_r+0x38>
 200c8a4:	16 00 00 0d 	LDI        $13,R2
 200c8a8:	14 c4 40 0c 	SW         R2,$12(R1)
 200c8ac:	14 84 40 04 	LW         4(R1),R2
 200c8b0:	10 41 00 00 	AND        $65536,R2
 200c8b4:	78 ab ff f4 	BNZ        @0x0200c8ac    // 200c8ac <_write_r+0x4c>
 200c8b8:	2c c4 40 0c 	SW         R5,$12(R1)
 200c8bc:	9a 01 b3 98 	ADD        $1,R3          | CMP        R3,R6
 200c8c0:	78 ab ff c8 	BNZ        @0x0200c88c    // 200c88c <_write_r+0x2c>
 200c8c4:	78 83 ff ac 	BRA        @0x0200c874    // 200c874 <_write_r+0x14>
 200c8c8:	96 09 95 88 	LDI        $9,R2          | SW         R2,(R1)
 200c8cc:	8e ff ff 80 	LDI        $-1,R1         | RTN
 200c8d0:	ac 00 b4 04 	LW         (SP),R5        | LW         4(SP),R6
 200c8d4:	ea 08 ff 80 	ADD        $8,SP          | RTN
 200c8d8:	0b 41 00 00 	MOV        R4,R1
 200c8dc:	7b 40 00 00 	RTN

0200c8e0 <_wait>:
 200c8e0:	e8 04 85 00 	SUB        $4,SP          | SW         R0,(SP)
 200c8e4:	87 fa fc f8 	JSR        0x0200e1d8     // 200e1d8 <__errno>
 200c8e8:	02 00 e1 d8 
 200c8ec:	96 0a 95 88 	LDI        $10,R2         | SW         R2,(R1)
 200c8f0:	8e ff 84 00 	LDI        $-1,R1         | LW         (SP),R0
 200c8f4:	ea 04 ff 80 	ADD        $4,SP          | RTN

0200c8f8 <_sbrk_r>:
 200c8f8:	1a 03 00 40 	LDI        0x0200f140,R3  // 200f140 <heap>
 200c8fc:	1a 40 f1 40 
 200c900:	0c 84 c0 00 	LW         (R3),R1
 200c904:	11 80 00 02 	LSL        $2,R2
 200c908:	a7 88 a2 90 	MOV        R1,R4          | ADD        R2,R4
 200c90c:	a5 98 ff 80 	SW         R4,(R3)        | RTN

0200c910 <_exit>:
 200c910:	e8 04 85 00 	SUB        $4,SP          | SW         R0,(SP)
 200c914:	1a 00 03 00 	BREV       $768,R3
 200c918:	14 84 c0 0c 	LW         12(R3),R2
 200c91c:	10 40 01 00 	AND        $256,R2
 200c920:	78 ab ff f4 	BNZ        @0x0200c918    // 200c918 <_exit+0x8>
 200c924:	87 fa fc f8 	JSR        0x0200002c     // 200002c <_hw_shutdown>
 200c928:	02 00 00 2c 

0200c92c <__adddf3>:
 200c92c:	68 00 00 68 	SUB        $104,SP
 200c930:	04 c7 40 4c 	SW         R0,$76(SP)
 200c934:	2c c7 40 50 	SW         R5,$80(SP)
 200c938:	34 c7 40 54 	SW         R6,$84(SP)
 200c93c:	3c c7 40 58 	SW         R7,$88(SP)
 200c940:	44 c7 40 5c 	SW         R8,$92(SP)
 200c944:	4c c7 40 60 	SW         R9,$96(SP)
 200c948:	54 c7 40 64 	SW         R10,$100(SP)
 200c94c:	8d 00 95 04 	SW         R1,(SP)        | SW         R2,$4(SP)
 200c950:	9d 08 a5 0c 	SW         R3,$8(SP)      | SW         R4,$12(SP)
 200c954:	13 43 40 10 	MOV        $16+SP,R2
 200c958:	0b 43 40 00 	MOV        SP,R1
 200c95c:	87 fa fc f8 	JSR        0x0200df28     // 200df28 <__unpack_d>
 200c960:	02 00 df 28 
 200c964:	13 43 40 24 	MOV        $36+SP,R2
 200c968:	0b 43 40 08 	MOV        $8+SP,R1
 200c96c:	87 fa fc f8 	JSR        0x0200df28     // 200df28 <__unpack_d>
 200c970:	02 00 df 28 
 200c974:	84 10 83 02 	LW         16(SP),R0      | CMP        $2,R0
 200c978:	78 98 03 4c 	BC         @0x0200ccc8    // 200ccc8 <__adddf3+0x39c>
 200c97c:	8c 24 8b 02 	LW         36(SP),R1      | CMP        $2,R1
 200c980:	78 98 03 4c 	BC         @0x0200ccd0    // 200ccd0 <__adddf3+0x3a4>
 200c984:	04 00 00 04 	CMP        $4,R0
 200c988:	78 a8 00 20 	BNZ        @0x0200c9ac    // 200c9ac <__adddf3+0x80>
 200c98c:	0c 00 00 04 	CMP        $4,R1
 200c990:	78 a8 03 44 	BNZ        @0x0200ccd8    // 200ccd8 <__adddf3+0x3ac>
 200c994:	84 28 8c 14 	LW         40(SP),R0      | LW         20(SP),R1
 200c998:	0c 04 00 00 	CMP        R0,R1
 200c99c:	78 88 03 40 	BZ         @0x0200cce0    // 200cce0 <__adddf3+0x3b4>
 200c9a0:	0a 03 00 40 	LDI        0x0200e678,R1  // 200e678 <__thenan_df>
 200c9a4:	0a 40 e6 78 
 200c9a8:	78 80 03 50 	BRA        @0x0200ccfc    // 200ccfc <__adddf3+0x3d0>
 200c9ac:	0c 00 00 04 	CMP        $4,R1
 200c9b0:	78 88 03 34 	BZ         @0x0200cce8    // 200cce8 <__adddf3+0x3bc>
 200c9b4:	0c 00 00 02 	CMP        $2,R1
 200c9b8:	78 a8 00 30 	BNZ        @0x0200c9ec    // 200c9ec <__adddf3+0xc0>
 200c9bc:	0b 43 40 10 	MOV        $16+SP,R1
 200c9c0:	04 00 00 02 	CMP        $2,R0
 200c9c4:	78 a8 03 34 	BNZ        @0x0200ccfc    // 200ccfc <__adddf3+0x3d0>
 200c9c8:	1e 00 00 14 	LDI        $20,R3
 200c9cc:	13 43 40 10 	MOV        $16+SP,R2
 200c9d0:	0b 43 40 38 	MOV        $56+SP,R1
 200c9d4:	87 fa fc f8 	JSR        0x02001354     // 2001354 <memcpy>
 200c9d8:	02 00 13 54 
 200c9dc:	8c 28 84 14 	LW         40(SP),R1      | LW         20(SP),R0
 200c9e0:	81 88 85 3c 	AND        R1,R0          | SW         R0,$60(SP)
 200c9e4:	0b 43 40 38 	MOV        $56+SP,R1
 200c9e8:	78 80 03 10 	BRA        @0x0200ccfc    // 200ccfc <__adddf3+0x3d0>
 200c9ec:	04 00 00 02 	CMP        $2,R0
 200c9f0:	78 88 02 fc 	BZ         @0x0200ccf0    // 200ccf0 <__adddf3+0x3c4>
 200c9f4:	d4 18 a4 2c 	LW         24(SP),R10     | LW         44(SP),R4
 200c9f8:	94 1c 9c 20 	LW         28(SP),R2      | LW         32(SP),R3
 200c9fc:	84 30 8c 34 	LW         48(SP),R0      | LW         52(SP),R1
 200ca00:	af d0 a8 a0 	MOV        R10,R5         | SUB        R4,R5
 200ca04:	33 41 40 00 	MOV        R5,R6
 200ca08:	34 43 ff ff 	TST        $-1,R6
 200ca0c:	33 51 9f ff 	MOV.LT     $-1+R6,R6
 200ca10:	31 13 ff ff 	XOR.LT     $-1,R6
 200ca14:	34 00 00 40 	CMP        $64,R6
 200ca18:	78 b0 01 34 	BGE        @0x0200cb50    // 200cb50 <__adddf3+0x224>
 200ca1c:	2c 00 00 01 	CMP        $1,R5
 200ca20:	78 90 00 90 	BLT        @0x0200cab4    // 200cab4 <__adddf3+0x188>
 200ca24:	bf b0 ba 60 	MOV        R6,R7          | ADD        $-32,R7
 200ca28:	78 90 00 10 	BLT        @0x0200ca3c    // 200ca3c <__adddf3+0x110>
 200ca2c:	2b 40 00 00 	MOV        R0,R5
 200ca30:	29 45 c0 00 	LSR        R7,R5
 200ca34:	26 00 00 00 	CLR        R4
 200ca38:	78 80 00 24 	BRA        @0x0200ca60    // 200ca60 <__adddf3+0x134>
 200ca3c:	43 40 00 00 	MOV        R0,R8
 200ca40:	41 80 00 01 	LSL        $1,R8
 200ca44:	a6 1f a0 b0 	LDI        $31,R4         | SUB        R6,R4
 200ca48:	41 85 00 00 	LSL        R4,R8
 200ca4c:	2b 40 40 00 	MOV        R1,R5
 200ca50:	29 45 80 00 	LSR        R6,R5
 200ca54:	40 c5 40 00 	OR         R5,R8
 200ca58:	af c0 a7 80 	MOV        R8,R5          | MOV        R0,R4
 200ca5c:	21 45 80 00 	LSR        R6,R4
 200ca60:	3c 00 00 00 	CMP        $0,R7
 200ca64:	78 90 00 10 	BLT        @0x0200ca78    // 200ca78 <__adddf3+0x14c>
 200ca68:	b6 01 c6 01 	LDI        $1,R6          | LDI        $1,R8
 200ca6c:	41 85 c0 00 	LSL        R7,R8
 200ca70:	4e 00 00 00 	CLR        R9
 200ca74:	78 80 00 0c 	BRA        @0x0200ca84    // 200ca84 <__adddf3+0x158>
 200ca78:	c6 00 ce 00 	CLR        R8             | CLR        R9
 200ca7c:	be 01 ce 01 	LDI        $1,R7          | LDI        $1,R9
 200ca80:	49 85 80 00 	LSL        R6,R9
 200ca84:	b6 ff be ff 	LDI        $-1,R6         | LDI        $-1,R7
 200ca88:	48 85 c0 00 	ADD        R7,R9
 200ca8c:	40 98 00 01 	ADD.C      $1,R8
 200ca90:	c2 b0 89 c8 	ADD        R6,R8          | AND        R9,R1
 200ca94:	00 46 00 00 	AND        R8,R0
 200ca98:	00 c4 40 00 	OR         R1,R0
 200ca9c:	36 00 00 00 	CLR        R6
 200caa0:	32 68 00 01 	LDILO.NZ   $1,R6
 200caa4:	86 00 8f b0 	CLR        R0             | MOV        R6,R1
 200caa8:	08 c5 40 00 	OR         R5,R1
 200caac:	00 c5 00 00 	OR         R4,R0
 200cab0:	78 80 00 b4 	BRA        @0x0200cb68    // 200cb68 <__adddf3+0x23c>
 200cab4:	2c 00 00 00 	CMP        $0,R5
 200cab8:	78 88 00 ac 	BZ         @0x0200cb68    // 200cb68 <__adddf3+0x23c>
 200cabc:	d2 b0 bf b0 	ADD        R6,R10         | MOV        R6,R7
 200cac0:	38 83 ff e0 	ADD        $-32,R7
 200cac4:	78 90 00 10 	BLT        @0x0200cad8    // 200cad8 <__adddf3+0x1ac>
 200cac8:	2b 40 80 00 	MOV        R2,R5
 200cacc:	29 45 c0 00 	LSR        R7,R5
 200cad0:	26 00 00 00 	CLR        R4
 200cad4:	78 80 00 24 	BRA        @0x0200cafc    // 200cafc <__adddf3+0x1d0>
 200cad8:	43 40 80 00 	MOV        R2,R8
 200cadc:	41 80 00 01 	LSL        $1,R8
 200cae0:	a6 1f a0 b0 	LDI        $31,R4         | SUB        R6,R4
 200cae4:	41 85 00 00 	LSL        R4,R8
 200cae8:	2b 40 c0 00 	MOV        R3,R5
 200caec:	29 45 80 00 	LSR        R6,R5
 200caf0:	40 c5 40 00 	OR         R5,R8
 200caf4:	af c0 a7 90 	MOV        R8,R5          | MOV        R2,R4
 200caf8:	21 45 80 00 	LSR        R6,R4
 200cafc:	3c 00 00 00 	CMP        $0,R7
 200cb00:	78 90 00 10 	BLT        @0x0200cb14    // 200cb14 <__adddf3+0x1e8>
 200cb04:	b6 01 c6 01 	LDI        $1,R6          | LDI        $1,R8
 200cb08:	41 85 c0 00 	LSL        R7,R8
 200cb0c:	4e 00 00 00 	CLR        R9
 200cb10:	78 80 00 0c 	BRA        @0x0200cb20    // 200cb20 <__adddf3+0x1f4>
 200cb14:	c6 00 ce 00 	CLR        R8             | CLR        R9
 200cb18:	be 01 ce 01 	LDI        $1,R7          | LDI        $1,R9
 200cb1c:	49 85 80 00 	LSL        R6,R9
 200cb20:	b6 ff be ff 	LDI        $-1,R6         | LDI        $-1,R7
 200cb24:	48 85 c0 00 	ADD        R7,R9
 200cb28:	40 98 00 01 	ADD.C      $1,R8
 200cb2c:	c2 b0 99 c8 	ADD        R6,R8          | AND        R9,R3
 200cb30:	10 46 00 00 	AND        R8,R2
 200cb34:	10 c4 c0 00 	OR         R3,R2
 200cb38:	36 00 00 00 	CLR        R6
 200cb3c:	32 68 00 01 	LDILO.NZ   $1,R6
 200cb40:	96 00 9f b0 	CLR        R2             | MOV        R6,R3
 200cb44:	18 c5 40 00 	OR         R5,R3
 200cb48:	10 c5 00 00 	OR         R4,R2
 200cb4c:	78 80 00 18 	BRA        @0x0200cb68    // 200cb68 <__adddf3+0x23c>
 200cb50:	24 06 80 00 	CMP        R10,R4
 200cb54:	78 b0 00 08 	BGE        @0x0200cb60    // 200cb60 <__adddf3+0x234>
 200cb58:	86 00 8e 00 	CLR        R0             | CLR        R1
 200cb5c:	78 80 00 08 	BRA        @0x0200cb68    // 200cb68 <__adddf3+0x23c>
 200cb60:	d7 a0 96 00 	MOV        R4,R10         | CLR        R2
 200cb64:	1e 00 00 00 	CLR        R3
 200cb68:	a4 14 ac 28 	LW         20(SP),R4      | LW         40(SP),R5
 200cb6c:	24 05 40 00 	CMP        R5,R4
 200cb70:	78 88 00 dc 	BZ         @0x0200cc50    // 200cc50 <__adddf3+0x324>
 200cb74:	24 00 00 00 	CMP        $0,R4
 200cb78:	78 88 00 10 	BZ         @0x0200cb8c    // 200cb8c <__adddf3+0x260>
 200cb7c:	08 04 c0 00 	SUB        R3,R1
 200cb80:	00 18 00 01 	SUB.C      $1,R0
 200cb84:	00 04 80 00 	SUB        R2,R0
 200cb88:	78 80 00 14 	BRA        @0x0200cba0    // 200cba0 <__adddf3+0x274>
 200cb8c:	a7 90 af 98 	MOV        R2,R4          | MOV        R3,R5
 200cb90:	28 04 40 00 	SUB        R1,R5
 200cb94:	20 18 00 01 	SUB.C      $1,R4
 200cb98:	a0 80 87 a0 	SUB        R0,R4          | MOV        R4,R0
 200cb9c:	0b 41 40 00 	MOV        R5,R1
 200cba0:	04 00 00 00 	CMP        $0,R0
 200cba4:	78 90 00 3c 	BLT        @0x0200cbe4    // 200cbe4 <__adddf3+0x2b8>
 200cba8:	ae 00 ad 3c 	CLR        R5             | SW         R5,$60(SP)
 200cbac:	54 c7 40 40 	SW         R10,$64(SP)
 200cbb0:	04 c7 40 44 	SW         R0,$68(SP)
 200cbb4:	0c c7 40 48 	SW         R1,$72(SP)
 200cbb8:	a6 ff ae ff 	LDI        $-1,R4         | LDI        $-1,R5
 200cbbc:	97 80 9f 88 	MOV        R0,R2          | MOV        R1,R3
 200cbc0:	18 85 40 00 	ADD        R5,R3
 200cbc4:	10 98 00 01 	ADD.C      $1,R2
 200cbc8:	10 85 00 00 	ADD        R4,R2
 200cbcc:	32 03 ff f0 	BREV       $-16,R6
 200cbd0:	be fe b3 90 	LDI        $-2,R7         | CMP        R2,R6
 200cbd4:	78 98 00 08 	BC         @0x0200cbe0    // 200cbe0 <__adddf3+0x2b4>
 200cbd8:	3c 0c c0 00 	CMP.Z      R3,R7
 200cbdc:	78 b8 00 28 	BNC        @0x0200cc08    // 200cc08 <__adddf3+0x2dc>
 200cbe0:	78 80 00 88 	BRA        @0x0200cc6c    // 200cc6c <__adddf3+0x340>
 200cbe4:	be 01 bd 3c 	LDI        $1,R7          | SW         R7,$60(SP)
 200cbe8:	54 c7 40 40 	SW         R10,$64(SP)
 200cbec:	09 03 ff ff 	XOR        $-1,R1
 200cbf0:	01 03 ff ff 	XOR        $-1,R0
 200cbf4:	08 80 00 01 	ADD        $1,R1
 200cbf8:	00 98 00 01 	ADD.C      $1,R0
 200cbfc:	04 c7 40 44 	SW         R0,$68(SP)
 200cc00:	0c c7 40 48 	SW         R1,$72(SP)
 200cc04:	78 83 ff b0 	BRA        @0x0200cbb8    // 200cbb8 <__adddf3+0x28c>
 200cc08:	08 84 40 00 	ADD        R1,R1
 200cc0c:	00 98 00 01 	ADD.C      $1,R0
 200cc10:	82 80 d2 7f 	ADD        R0,R0          | ADD        $-1,R10
 200cc14:	97 80 9f 88 	MOV        R0,R2          | MOV        R1,R3
 200cc18:	18 85 40 00 	ADD        R5,R3
 200cc1c:	10 98 00 01 	ADD.C      $1,R2
 200cc20:	10 85 00 00 	ADD        R4,R2
 200cc24:	32 03 ff f0 	BREV       $-16,R6
 200cc28:	be fe b3 90 	LDI        $-2,R7         | CMP        R2,R6
 200cc2c:	78 98 00 08 	BC         @0x0200cc38    // 200cc38 <__adddf3+0x30c>
 200cc30:	3c 0c c0 00 	CMP.Z      R3,R7
 200cc34:	78 bb ff d0 	BNC        @0x0200cc08    // 200cc08 <__adddf3+0x2dc>
 200cc38:	04 c7 40 44 	SW         R0,$68(SP)
 200cc3c:	0c c7 40 48 	SW         R1,$72(SP)
 200cc40:	54 c7 40 40 	SW         R10,$64(SP)
 200cc44:	be 03 bd 38 	LDI        $3,R7          | SW         R7,$56(SP)
 200cc48:	8f e8 8a 38 	MOV        SP,R1          | ADD        $56,R1
 200cc4c:	78 80 00 ac 	BRA        @0x0200ccfc    // 200ccfc <__adddf3+0x3d0>
 200cc50:	24 c7 40 3c 	SW         R4,$60(SP)
 200cc54:	54 c7 40 40 	SW         R10,$64(SP)
 200cc58:	08 84 c0 00 	ADD        R3,R1
 200cc5c:	00 98 00 01 	ADD.C      $1,R0
 200cc60:	00 84 80 00 	ADD        R2,R0
 200cc64:	04 c7 40 44 	SW         R0,$68(SP)
 200cc68:	0c c7 40 48 	SW         R1,$72(SP)
 200cc6c:	96 03 95 38 	LDI        $3,R2          | SW         R2,$56(SP)
 200cc70:	1a 03 ff f8 	BREV       $-8,R3
 200cc74:	a6 ff 9b 80 	LDI        $-1,R4         | CMP        R0,R3
 200cc78:	78 98 00 08 	BC         @0x0200cc84    // 200cc84 <__adddf3+0x358>
 200cc7c:	24 0c 40 00 	CMP.Z      R1,R4
 200cc80:	78 b8 00 74 	BNC        @0x0200ccf8    // 200ccf8 <__adddf3+0x3cc>
 200cc84:	13 40 00 00 	MOV        R0,R2
 200cc88:	11 80 00 1f 	LSL        $31,R2
 200cc8c:	2b 40 40 00 	MOV        R1,R5
 200cc90:	29 40 00 01 	LSR        $1,R5
 200cc94:	10 c5 40 00 	OR         R5,R2
 200cc98:	af 90 a7 80 	MOV        R2,R5          | MOV        R0,R4
 200cc9c:	21 40 00 01 	LSR        $1,R4
 200cca0:	96 00 9e 01 	CLR        R2             | LDI        $1,R3
 200cca4:	89 98 81 90 	AND        R3,R1          | AND        R2,R0
 200cca8:	08 c5 40 00 	OR         R5,R1
 200ccac:	00 c5 00 00 	OR         R4,R0
 200ccb0:	04 c7 40 44 	SW         R0,$68(SP)
 200ccb4:	0c c7 40 48 	SW         R1,$72(SP)
 200ccb8:	50 80 00 01 	ADD        $1,R10
 200ccbc:	54 c7 40 40 	SW         R10,$64(SP)
 200ccc0:	8f e8 8a 38 	MOV        SP,R1          | ADD        $56,R1
 200ccc4:	78 80 00 34 	BRA        @0x0200ccfc    // 200ccfc <__adddf3+0x3d0>
 200ccc8:	0b 43 40 10 	MOV        $16+SP,R1
 200cccc:	78 80 00 2c 	BRA        @0x0200ccfc    // 200ccfc <__adddf3+0x3d0>
 200ccd0:	0b 43 40 24 	MOV        $36+SP,R1
 200ccd4:	78 80 00 24 	BRA        @0x0200ccfc    // 200ccfc <__adddf3+0x3d0>
 200ccd8:	0b 43 40 10 	MOV        $16+SP,R1
 200ccdc:	78 80 00 1c 	BRA        @0x0200ccfc    // 200ccfc <__adddf3+0x3d0>
 200cce0:	0b 43 40 10 	MOV        $16+SP,R1
 200cce4:	78 80 00 14 	BRA        @0x0200ccfc    // 200ccfc <__adddf3+0x3d0>
 200cce8:	0b 43 40 24 	MOV        $36+SP,R1
 200ccec:	78 80 00 0c 	BRA        @0x0200ccfc    // 200ccfc <__adddf3+0x3d0>
 200ccf0:	0b 43 40 24 	MOV        $36+SP,R1
 200ccf4:	78 80 00 04 	BRA        @0x0200ccfc    // 200ccfc <__adddf3+0x3d0>
 200ccf8:	8f e8 8a 38 	MOV        SP,R1          | ADD        $56,R1
 200ccfc:	87 fa fc f8 	JSR        0x0200db6c     // 200db6c <__pack_d>
 200cd00:	02 00 db 6c 
 200cd04:	04 87 40 4c 	LW         76(SP),R0
 200cd08:	2c 87 40 50 	LW         80(SP),R5
 200cd0c:	34 87 40 54 	LW         84(SP),R6
 200cd10:	3c 87 40 58 	LW         88(SP),R7
 200cd14:	44 87 40 5c 	LW         92(SP),R8
 200cd18:	4c 87 40 60 	LW         96(SP),R9
 200cd1c:	54 87 40 64 	LW         100(SP),R10
 200cd20:	68 80 00 68 	ADD        $104,SP
 200cd24:	7b 40 00 00 	RTN

0200cd28 <__subdf3>:
 200cd28:	68 00 00 6c 	SUB        $108,SP
 200cd2c:	04 c7 40 4c 	SW         R0,$76(SP)
 200cd30:	2c c7 40 50 	SW         R5,$80(SP)
 200cd34:	34 c7 40 54 	SW         R6,$84(SP)
 200cd38:	3c c7 40 58 	SW         R7,$88(SP)
 200cd3c:	44 c7 40 5c 	SW         R8,$92(SP)
 200cd40:	4c c7 40 60 	SW         R9,$96(SP)
 200cd44:	54 c7 40 64 	SW         R10,$100(SP)
 200cd48:	5c c7 40 68 	SW         R11,$104(SP)
 200cd4c:	8d 00 95 04 	SW         R1,(SP)        | SW         R2,$4(SP)
 200cd50:	9d 08 a5 0c 	SW         R3,$8(SP)      | SW         R4,$12(SP)
 200cd54:	13 43 40 10 	MOV        $16+SP,R2
 200cd58:	0b 43 40 00 	MOV        SP,R1
 200cd5c:	87 fa fc f8 	JSR        0x0200df28     // 200df28 <__unpack_d>
 200cd60:	02 00 df 28 
 200cd64:	13 43 40 24 	MOV        $36+SP,R2
 200cd68:	0b 43 40 08 	MOV        $8+SP,R1
 200cd6c:	87 fa fc f8 	JSR        0x0200df28     // 200df28 <__unpack_d>
 200cd70:	02 00 df 28 
 200cd74:	2c 87 40 28 	LW         40(SP),R5
 200cd78:	29 00 00 01 	XOR        $1,R5
 200cd7c:	ad 28 84 10 	SW         R5,$40(SP)     | LW         16(SP),R0
 200cd80:	04 00 00 02 	CMP        $2,R0
 200cd84:	78 98 03 48 	BC         @0x0200d0d0    // 200d0d0 <__subdf3+0x3a8>
 200cd88:	8c 24 8b 02 	LW         36(SP),R1      | CMP        $2,R1
 200cd8c:	78 98 03 48 	BC         @0x0200d0d8    // 200d0d8 <__subdf3+0x3b0>
 200cd90:	04 00 00 04 	CMP        $4,R0
 200cd94:	78 a8 00 20 	BNZ        @0x0200cdb8    // 200cdb8 <__subdf3+0x90>
 200cd98:	0c 00 00 04 	CMP        $4,R1
 200cd9c:	78 a8 03 40 	BNZ        @0x0200d0e0    // 200d0e0 <__subdf3+0x3b8>
 200cda0:	04 87 40 14 	LW         20(SP),R0
 200cda4:	0a 03 00 40 	LDI        0x0200e678,R1  // 200e678 <__thenan_df>
 200cda8:	0a 40 e6 78 
 200cdac:	2c 04 00 00 	CMP        R0,R5
 200cdb0:	78 a8 03 50 	BNZ        @0x0200d104    // 200d104 <__subdf3+0x3dc>
 200cdb4:	78 80 03 30 	BRA        @0x0200d0e8    // 200d0e8 <__subdf3+0x3c0>
 200cdb8:	0c 00 00 04 	CMP        $4,R1
 200cdbc:	78 88 03 30 	BZ         @0x0200d0f0    // 200d0f0 <__subdf3+0x3c8>
 200cdc0:	0c 00 00 02 	CMP        $2,R1
 200cdc4:	78 a8 00 30 	BNZ        @0x0200cdf8    // 200cdf8 <__subdf3+0xd0>
 200cdc8:	0b 43 40 10 	MOV        $16+SP,R1
 200cdcc:	04 00 00 02 	CMP        $2,R0
 200cdd0:	78 a8 03 30 	BNZ        @0x0200d104    // 200d104 <__subdf3+0x3dc>
 200cdd4:	1e 00 00 14 	LDI        $20,R3
 200cdd8:	13 43 40 10 	MOV        $16+SP,R2
 200cddc:	0b 43 40 38 	MOV        $56+SP,R1
 200cde0:	87 fa fc f8 	JSR        0x02001354     // 2001354 <memcpy>
 200cde4:	02 00 13 54 
 200cde8:	84 14 81 a8 	LW         20(SP),R0      | AND        R5,R0
 200cdec:	04 c7 40 3c 	SW         R0,$60(SP)
 200cdf0:	0b 43 40 38 	MOV        $56+SP,R1
 200cdf4:	78 80 03 0c 	BRA        @0x0200d104    // 200d104 <__subdf3+0x3dc>
 200cdf8:	04 00 00 02 	CMP        $2,R0
 200cdfc:	78 88 02 f8 	BZ         @0x0200d0f8    // 200d0f8 <__subdf3+0x3d0>
 200ce00:	a4 18 bc 2c 	LW         24(SP),R4      | LW         44(SP),R7
 200ce04:	94 1c 9c 20 	LW         28(SP),R2      | LW         32(SP),R3
 200ce08:	84 30 8c 34 	LW         48(SP),R0      | LW         52(SP),R1
 200ce0c:	c7 a0 c0 b8 	MOV        R4,R8          | SUB        R7,R8
 200ce10:	33 42 00 00 	MOV        R8,R6
 200ce14:	34 43 ff ff 	TST        $-1,R6
 200ce18:	33 51 9f ff 	MOV.LT     $-1+R6,R6
 200ce1c:	31 13 ff ff 	XOR.LT     $-1,R6
 200ce20:	34 00 00 40 	CMP        $64,R6
 200ce24:	78 b0 01 34 	BGE        @0x0200cf5c    // 200cf5c <__subdf3+0x234>
 200ce28:	44 00 00 01 	CMP        $1,R8
 200ce2c:	78 90 00 90 	BLT        @0x0200cec0    // 200cec0 <__subdf3+0x198>
 200ce30:	bf b0 ba 60 	MOV        R6,R7          | ADD        $-32,R7
 200ce34:	78 90 00 10 	BLT        @0x0200ce48    // 200ce48 <__subdf3+0x120>
 200ce38:	4b 40 00 00 	MOV        R0,R9
 200ce3c:	49 45 c0 00 	LSR        R7,R9
 200ce40:	46 00 00 00 	CLR        R8
 200ce44:	78 80 00 24 	BRA        @0x0200ce6c    // 200ce6c <__subdf3+0x144>
 200ce48:	53 40 00 00 	MOV        R0,R10
 200ce4c:	51 80 00 01 	LSL        $1,R10
 200ce50:	c6 1f c0 b0 	LDI        $31,R8         | SUB        R6,R8
 200ce54:	51 86 00 00 	LSL        R8,R10
 200ce58:	4b 40 40 00 	MOV        R1,R9
 200ce5c:	49 45 80 00 	LSR        R6,R9
 200ce60:	50 c6 40 00 	OR         R9,R10
 200ce64:	cf d0 c7 80 	MOV        R10,R9         | MOV        R0,R8
 200ce68:	41 45 80 00 	LSR        R6,R8
 200ce6c:	3c 00 00 00 	CMP        $0,R7
 200ce70:	78 90 00 10 	BLT        @0x0200ce84    // 200ce84 <__subdf3+0x15c>
 200ce74:	b6 01 d6 01 	LDI        $1,R6          | LDI        $1,R10
 200ce78:	51 85 c0 00 	LSL        R7,R10
 200ce7c:	5e 00 00 00 	CLR        R11
 200ce80:	78 80 00 0c 	BRA        @0x0200ce90    // 200ce90 <__subdf3+0x168>
 200ce84:	d6 00 de 00 	CLR        R10            | CLR        R11
 200ce88:	be 01 de 01 	LDI        $1,R7          | LDI        $1,R11
 200ce8c:	59 85 80 00 	LSL        R6,R11
 200ce90:	b6 ff be ff 	LDI        $-1,R6         | LDI        $-1,R7
 200ce94:	58 85 c0 00 	ADD        R7,R11
 200ce98:	50 98 00 01 	ADD.C      $1,R10
 200ce9c:	d2 b0 89 d8 	ADD        R6,R10         | AND        R11,R1
 200cea0:	00 46 80 00 	AND        R10,R0
 200cea4:	00 c4 40 00 	OR         R1,R0
 200cea8:	36 00 00 00 	CLR        R6
 200ceac:	32 68 00 01 	LDILO.NZ   $1,R6
 200ceb0:	86 00 8f b0 	CLR        R0             | MOV        R6,R1
 200ceb4:	08 c6 40 00 	OR         R9,R1
 200ceb8:	00 c6 00 00 	OR         R8,R0
 200cebc:	78 80 00 b4 	BRA        @0x0200cf74    // 200cf74 <__subdf3+0x24c>
 200cec0:	44 00 00 00 	CMP        $0,R8
 200cec4:	78 88 00 ac 	BZ         @0x0200cf74    // 200cf74 <__subdf3+0x24c>
 200cec8:	a2 b0 bf b0 	ADD        R6,R4          | MOV        R6,R7
 200cecc:	38 83 ff e0 	ADD        $-32,R7
 200ced0:	78 90 00 10 	BLT        @0x0200cee4    // 200cee4 <__subdf3+0x1bc>
 200ced4:	4b 40 80 00 	MOV        R2,R9
 200ced8:	49 45 c0 00 	LSR        R7,R9
 200cedc:	46 00 00 00 	CLR        R8
 200cee0:	78 80 00 24 	BRA        @0x0200cf08    // 200cf08 <__subdf3+0x1e0>
 200cee4:	53 40 80 00 	MOV        R2,R10
 200cee8:	51 80 00 01 	LSL        $1,R10
 200ceec:	c6 1f c0 b0 	LDI        $31,R8         | SUB        R6,R8
 200cef0:	51 86 00 00 	LSL        R8,R10
 200cef4:	4b 40 c0 00 	MOV        R3,R9
 200cef8:	49 45 80 00 	LSR        R6,R9
 200cefc:	50 c6 40 00 	OR         R9,R10
 200cf00:	cf d0 c7 90 	MOV        R10,R9         | MOV        R2,R8
 200cf04:	41 45 80 00 	LSR        R6,R8
 200cf08:	3c 00 00 00 	CMP        $0,R7
 200cf0c:	78 90 00 10 	BLT        @0x0200cf20    // 200cf20 <__subdf3+0x1f8>
 200cf10:	b6 01 d6 01 	LDI        $1,R6          | LDI        $1,R10
 200cf14:	51 85 c0 00 	LSL        R7,R10
 200cf18:	5e 00 00 00 	CLR        R11
 200cf1c:	78 80 00 0c 	BRA        @0x0200cf2c    // 200cf2c <__subdf3+0x204>
 200cf20:	d6 00 de 00 	CLR        R10            | CLR        R11
 200cf24:	be 01 de 01 	LDI        $1,R7          | LDI        $1,R11
 200cf28:	59 85 80 00 	LSL        R6,R11
 200cf2c:	b6 ff be ff 	LDI        $-1,R6         | LDI        $-1,R7
 200cf30:	58 85 c0 00 	ADD        R7,R11
 200cf34:	50 98 00 01 	ADD.C      $1,R10
 200cf38:	d2 b0 99 d8 	ADD        R6,R10         | AND        R11,R3
 200cf3c:	10 46 80 00 	AND        R10,R2
 200cf40:	10 c4 c0 00 	OR         R3,R2
 200cf44:	36 00 00 00 	CLR        R6
 200cf48:	32 68 00 01 	LDILO.NZ   $1,R6
 200cf4c:	96 00 9f b0 	CLR        R2             | MOV        R6,R3
 200cf50:	18 c6 40 00 	OR         R9,R3
 200cf54:	10 c6 00 00 	OR         R8,R2
 200cf58:	78 80 00 18 	BRA        @0x0200cf74    // 200cf74 <__subdf3+0x24c>
 200cf5c:	3c 05 00 00 	CMP        R4,R7
 200cf60:	78 b0 00 08 	BGE        @0x0200cf6c    // 200cf6c <__subdf3+0x244>
 200cf64:	86 00 8e 00 	CLR        R0             | CLR        R1
 200cf68:	78 80 00 08 	BRA        @0x0200cf74    // 200cf74 <__subdf3+0x24c>
 200cf6c:	a7 b8 96 00 	MOV        R7,R4          | CLR        R2
 200cf70:	1e 00 00 00 	CLR        R3
 200cf74:	b4 14 ab b0 	LW         20(SP),R6      | CMP        R6,R5
 200cf78:	78 88 00 dc 	BZ         @0x0200d058    // 200d058 <__subdf3+0x330>
 200cf7c:	34 00 00 00 	CMP        $0,R6
 200cf80:	78 88 00 10 	BZ         @0x0200cf94    // 200cf94 <__subdf3+0x26c>
 200cf84:	08 04 c0 00 	SUB        R3,R1
 200cf88:	00 18 00 01 	SUB.C      $1,R0
 200cf8c:	00 04 80 00 	SUB        R2,R0
 200cf90:	78 80 00 14 	BRA        @0x0200cfa8    // 200cfa8 <__subdf3+0x280>
 200cf94:	af 90 b7 98 	MOV        R2,R5          | MOV        R3,R6
 200cf98:	30 04 40 00 	SUB        R1,R6
 200cf9c:	28 18 00 01 	SUB.C      $1,R5
 200cfa0:	a8 80 87 a8 	SUB        R0,R5          | MOV        R5,R0
 200cfa4:	0b 41 80 00 	MOV        R6,R1
 200cfa8:	04 00 00 00 	CMP        $0,R0
 200cfac:	78 90 00 3c 	BLT        @0x0200cfec    // 200cfec <__subdf3+0x2c4>
 200cfb0:	b6 00 b5 3c 	CLR        R6             | SW         R6,$60(SP)
 200cfb4:	24 c7 40 40 	SW         R4,$64(SP)
 200cfb8:	04 c7 40 44 	SW         R0,$68(SP)
 200cfbc:	0c c7 40 48 	SW         R1,$72(SP)
 200cfc0:	b6 ff be ff 	LDI        $-1,R6         | LDI        $-1,R7
 200cfc4:	97 80 9f 88 	MOV        R0,R2          | MOV        R1,R3
 200cfc8:	18 85 c0 00 	ADD        R7,R3
 200cfcc:	10 98 00 01 	ADD.C      $1,R2
 200cfd0:	10 85 80 00 	ADD        R6,R2
 200cfd4:	42 03 ff f0 	BREV       $-16,R8
 200cfd8:	ce fe c3 90 	LDI        $-2,R9         | CMP        R2,R8
 200cfdc:	78 98 00 08 	BC         @0x0200cfe8    // 200cfe8 <__subdf3+0x2c0>
 200cfe0:	4c 0c c0 00 	CMP.Z      R3,R9
 200cfe4:	78 b8 00 28 	BNC        @0x0200d010    // 200d010 <__subdf3+0x2e8>
 200cfe8:	78 80 00 88 	BRA        @0x0200d074    // 200d074 <__subdf3+0x34c>
 200cfec:	ce 01 cd 3c 	LDI        $1,R9          | SW         R9,$60(SP)
 200cff0:	24 c7 40 40 	SW         R4,$64(SP)
 200cff4:	09 03 ff ff 	XOR        $-1,R1
 200cff8:	01 03 ff ff 	XOR        $-1,R0
 200cffc:	08 80 00 01 	ADD        $1,R1
 200d000:	00 98 00 01 	ADD.C      $1,R0
 200d004:	04 c7 40 44 	SW         R0,$68(SP)
 200d008:	0c c7 40 48 	SW         R1,$72(SP)
 200d00c:	78 83 ff b0 	BRA        @0x0200cfc0    // 200cfc0 <__subdf3+0x298>
 200d010:	08 84 40 00 	ADD        R1,R1
 200d014:	00 98 00 01 	ADD.C      $1,R0
 200d018:	82 80 a2 7f 	ADD        R0,R0          | ADD        $-1,R4
 200d01c:	97 80 9f 88 	MOV        R0,R2          | MOV        R1,R3
 200d020:	18 85 c0 00 	ADD        R7,R3
 200d024:	10 98 00 01 	ADD.C      $1,R2
 200d028:	10 85 80 00 	ADD        R6,R2
 200d02c:	42 03 ff f0 	BREV       $-16,R8
 200d030:	ce fe c3 90 	LDI        $-2,R9         | CMP        R2,R8
 200d034:	78 98 00 08 	BC         @0x0200d040    // 200d040 <__subdf3+0x318>
 200d038:	4c 0c c0 00 	CMP.Z      R3,R9
 200d03c:	78 bb ff d0 	BNC        @0x0200d010    // 200d010 <__subdf3+0x2e8>
 200d040:	04 c7 40 44 	SW         R0,$68(SP)
 200d044:	0c c7 40 48 	SW         R1,$72(SP)
 200d048:	24 c7 40 40 	SW         R4,$64(SP)
 200d04c:	ce 03 cd 38 	LDI        $3,R9          | SW         R9,$56(SP)
 200d050:	8f e8 8a 38 	MOV        SP,R1          | ADD        $56,R1
 200d054:	78 80 00 ac 	BRA        @0x0200d104    // 200d104 <__subdf3+0x3dc>
 200d058:	2c c7 40 3c 	SW         R5,$60(SP)
 200d05c:	24 c7 40 40 	SW         R4,$64(SP)
 200d060:	08 84 c0 00 	ADD        R3,R1
 200d064:	00 98 00 01 	ADD.C      $1,R0
 200d068:	00 84 80 00 	ADD        R2,R0
 200d06c:	04 c7 40 44 	SW         R0,$68(SP)
 200d070:	0c c7 40 48 	SW         R1,$72(SP)
 200d074:	96 03 95 38 	LDI        $3,R2          | SW         R2,$56(SP)
 200d078:	2a 03 ff f8 	BREV       $-8,R5
 200d07c:	b6 ff ab 80 	LDI        $-1,R6         | CMP        R0,R5
 200d080:	78 98 00 08 	BC         @0x0200d08c    // 200d08c <__subdf3+0x364>
 200d084:	34 0c 40 00 	CMP.Z      R1,R6
 200d088:	78 b8 00 74 	BNC        @0x0200d100    // 200d100 <__subdf3+0x3d8>
 200d08c:	13 40 00 00 	MOV        R0,R2
 200d090:	11 80 00 1f 	LSL        $31,R2
 200d094:	3b 40 40 00 	MOV        R1,R7
 200d098:	39 40 00 01 	LSR        $1,R7
 200d09c:	10 c5 c0 00 	OR         R7,R2
 200d0a0:	bf 90 b7 80 	MOV        R2,R7          | MOV        R0,R6
 200d0a4:	31 40 00 01 	LSR        $1,R6
 200d0a8:	96 00 9e 01 	CLR        R2             | LDI        $1,R3
 200d0ac:	89 98 81 90 	AND        R3,R1          | AND        R2,R0
 200d0b0:	08 c5 c0 00 	OR         R7,R1
 200d0b4:	00 c5 80 00 	OR         R6,R0
 200d0b8:	04 c7 40 44 	SW         R0,$68(SP)
 200d0bc:	0c c7 40 48 	SW         R1,$72(SP)
 200d0c0:	20 80 00 01 	ADD        $1,R4
 200d0c4:	24 c7 40 40 	SW         R4,$64(SP)
 200d0c8:	8f e8 8a 38 	MOV        SP,R1          | ADD        $56,R1
 200d0cc:	78 80 00 34 	BRA        @0x0200d104    // 200d104 <__subdf3+0x3dc>
 200d0d0:	0b 43 40 10 	MOV        $16+SP,R1
 200d0d4:	78 80 00 2c 	BRA        @0x0200d104    // 200d104 <__subdf3+0x3dc>
 200d0d8:	0b 43 40 24 	MOV        $36+SP,R1
 200d0dc:	78 80 00 24 	BRA        @0x0200d104    // 200d104 <__subdf3+0x3dc>
 200d0e0:	0b 43 40 10 	MOV        $16+SP,R1
 200d0e4:	78 80 00 1c 	BRA        @0x0200d104    // 200d104 <__subdf3+0x3dc>
 200d0e8:	0b 43 40 10 	MOV        $16+SP,R1
 200d0ec:	78 80 00 14 	BRA        @0x0200d104    // 200d104 <__subdf3+0x3dc>
 200d0f0:	0b 43 40 24 	MOV        $36+SP,R1
 200d0f4:	78 80 00 0c 	BRA        @0x0200d104    // 200d104 <__subdf3+0x3dc>
 200d0f8:	0b 43 40 24 	MOV        $36+SP,R1
 200d0fc:	78 80 00 04 	BRA        @0x0200d104    // 200d104 <__subdf3+0x3dc>
 200d100:	8f e8 8a 38 	MOV        SP,R1          | ADD        $56,R1
 200d104:	87 fa fc f8 	JSR        0x0200db6c     // 200db6c <__pack_d>
 200d108:	02 00 db 6c 
 200d10c:	04 87 40 4c 	LW         76(SP),R0
 200d110:	2c 87 40 50 	LW         80(SP),R5
 200d114:	34 87 40 54 	LW         84(SP),R6
 200d118:	3c 87 40 58 	LW         88(SP),R7
 200d11c:	44 87 40 5c 	LW         92(SP),R8
 200d120:	4c 87 40 60 	LW         96(SP),R9
 200d124:	54 87 40 64 	LW         100(SP),R10
 200d128:	5c 87 40 68 	LW         104(SP),R11
 200d12c:	68 80 00 6c 	ADD        $108,SP
 200d130:	7b 40 00 00 	RTN

0200d134 <__muldf3>:
 200d134:	68 00 00 80 	SUB        $128,SP
 200d138:	04 c7 40 5c 	SW         R0,$92(SP)
 200d13c:	2c c7 40 60 	SW         R5,$96(SP)
 200d140:	34 c7 40 64 	SW         R6,$100(SP)
 200d144:	3c c7 40 68 	SW         R7,$104(SP)
 200d148:	44 c7 40 6c 	SW         R8,$108(SP)
 200d14c:	4c c7 40 70 	SW         R9,$112(SP)
 200d150:	54 c7 40 74 	SW         R10,$116(SP)
 200d154:	5c c7 40 78 	SW         R11,$120(SP)
 200d158:	64 c7 40 7c 	SW         R12,$124(SP)
 200d15c:	8d 10 95 14 	SW         R1,$16(SP)     | SW         R2,$20(SP)
 200d160:	9d 18 a5 1c 	SW         R3,$24(SP)     | SW         R4,$28(SP)
 200d164:	13 43 40 20 	MOV        $32+SP,R2
 200d168:	0b 43 40 10 	MOV        $16+SP,R1
 200d16c:	87 fa fc f8 	JSR        0x0200df28     // 200df28 <__unpack_d>
 200d170:	02 00 df 28 
 200d174:	13 43 40 34 	MOV        $52+SP,R2
 200d178:	0b 43 40 18 	MOV        $24+SP,R1
 200d17c:	87 fa fc f8 	JSR        0x0200df28     // 200df28 <__unpack_d>
 200d180:	02 00 df 28 
 200d184:	84 20 83 02 	LW         32(SP),R0      | CMP        $2,R0
 200d188:	78 b8 00 18 	BNC        @0x0200d1a4    // 200d1a4 <__muldf3+0x70>
 200d18c:	84 38 8c 24 	LW         56(SP),R0      | LW         36(SP),R1
 200d190:	8b 80 86 00 	CMP        R0,R1          | CLR        R0
 200d194:	02 68 00 01 	LDILO.NZ   $1,R0
 200d198:	04 c7 40 24 	SW         R0,$36(SP)
 200d19c:	0b 43 40 20 	MOV        $32+SP,R1
 200d1a0:	78 80 03 04 	BRA        @0x0200d4a8    // 200d4a8 <__muldf3+0x374>
 200d1a4:	8c 34 8b 02 	LW         52(SP),R1      | CMP        $2,R1
 200d1a8:	78 b8 00 18 	BNC        @0x0200d1c4    // 200d1c4 <__muldf3+0x90>
 200d1ac:	84 38 8c 24 	LW         56(SP),R0      | LW         36(SP),R1
 200d1b0:	8b 80 86 00 	CMP        R0,R1          | CLR        R0
 200d1b4:	02 68 00 01 	LDILO.NZ   $1,R0
 200d1b8:	04 c7 40 38 	SW         R0,$56(SP)
 200d1bc:	0b 43 40 34 	MOV        $52+SP,R1
 200d1c0:	78 80 02 e4 	BRA        @0x0200d4a8    // 200d4a8 <__muldf3+0x374>
 200d1c4:	04 00 00 04 	CMP        $4,R0
 200d1c8:	78 a8 00 0c 	BNZ        @0x0200d1d8    // 200d1d8 <__muldf3+0xa4>
 200d1cc:	0c 00 00 02 	CMP        $2,R1
 200d1d0:	78 ab ff b8 	BNZ        @0x0200d18c    // 200d18c <__muldf3+0x58>
 200d1d4:	78 80 02 bc 	BRA        @0x0200d494    // 200d494 <__muldf3+0x360>
 200d1d8:	0c 00 00 04 	CMP        $4,R1
 200d1dc:	78 a8 00 0c 	BNZ        @0x0200d1ec    // 200d1ec <__muldf3+0xb8>
 200d1e0:	04 00 00 02 	CMP        $2,R0
 200d1e4:	78 ab ff c4 	BNZ        @0x0200d1ac    // 200d1ac <__muldf3+0x78>
 200d1e8:	78 80 02 b4 	BRA        @0x0200d4a0    // 200d4a0 <__muldf3+0x36c>
 200d1ec:	04 00 00 02 	CMP        $2,R0
 200d1f0:	78 8b ff 98 	BZ         @0x0200d18c    // 200d18c <__muldf3+0x58>
 200d1f4:	0c 00 00 02 	CMP        $2,R1
 200d1f8:	78 8b ff b0 	BZ         @0x0200d1ac    // 200d1ac <__muldf3+0x78>
 200d1fc:	84 2c 8c 30 	LW         44(SP),R0      | LW         48(SP),R1
 200d200:	df 80 d6 00 	MOV        R0,R11         | CLR        R10
 200d204:	34 87 40 40 	LW         64(SP),R6
 200d208:	3c 87 40 44 	LW         68(SP),R7
 200d20c:	9f b0 96 00 	MOV        R6,R3          | CLR        R2
 200d210:	a6 00 ae ff 	CLR        R4             | LDI        $-1,R5
 200d214:	b9 a8 b1 a0 	AND        R5,R7          | AND        R4,R6
 200d218:	89 a8 81 a0 	AND        R5,R1          | AND        R4,R0
 200d21c:	33 04 40 00 	MPY        R1,R6
 200d220:	03 05 c0 00 	MPY        R7,R0
 200d224:	af 88 a7 88 	MOV        R1,R5          | MOV        R1,R4
 200d228:	2b 05 c0 00 	MPY        R7,R5
 200d22c:	22 85 c0 00 	MPYUHI     R7,R4
 200d230:	a2 80 a2 b0 	ADD        R0,R4          | ADD        R6,R4
 200d234:	a5 00 ad 04 	SW         R4,(SP)        | SW         R5,$4(SP)
 200d238:	13 04 40 00 	MPY        R1,R2
 200d23c:	03 04 c0 00 	MPY        R3,R0
 200d240:	af 88 a7 88 	MOV        R1,R5          | MOV        R1,R4
 200d244:	2b 04 c0 00 	MPY        R3,R5
 200d248:	22 84 c0 00 	MPYUHI     R3,R4
 200d24c:	a2 80 a2 90 	ADD        R0,R4          | ADD        R2,R4
 200d250:	53 04 c0 00 	MPY        R3,R10
 200d254:	13 06 c0 00 	MPY        R11,R2
 200d258:	8f 98 87 98 	MOV        R3,R1          | MOV        R3,R0
 200d25c:	0b 06 c0 00 	MPY        R11,R1
 200d260:	02 86 c0 00 	MPYUHI     R11,R0
 200d264:	82 90 82 d0 	ADD        R2,R0          | ADD        R10,R0
 200d268:	85 08 8d 0c 	SW         R0,$8(SP)      | SW         R1,$12(SP)
 200d26c:	53 05 c0 00 	MPY        R7,R10
 200d270:	33 06 c0 00 	MPY        R11,R6
 200d274:	9f b8 97 b8 	MOV        R7,R3          | MOV        R7,R2
 200d278:	1b 06 c0 00 	MPY        R11,R3
 200d27c:	12 86 c0 00 	MPYUHI     R11,R2
 200d280:	92 b0 92 d0 	ADD        R6,R2          | ADD        R10,R2
 200d284:	18 85 40 00 	ADD        R5,R3
 200d288:	10 98 00 01 	ADD.C      $1,R2
 200d28c:	92 a0 93 a0 	ADD        R4,R2          | CMP        R4,R2
 200d290:	1c 0d 40 00 	CMP.Z      R5,R3
 200d294:	78 98 00 0c 	BC         @0x0200d2a4    // 200d2a4 <__muldf3+0x170>
 200d298:	ae 00 a6 01 	CLR        R5             | LDI        $1,R4
 200d29c:	b6 00 be 00 	CLR        R6             | CLR        R7
 200d2a0:	78 80 00 08 	BRA        @0x0200d2ac    // 200d2ac <__muldf3+0x178>
 200d2a4:	ae 01 a6 01 	LDI        $1,R5          | LDI        $1,R4
 200d2a8:	b6 01 be 00 	LDI        $1,R6          | CLR        R7
 200d2ac:	87 98 8e 00 	MOV        R3,R0          | CLR        R1
 200d2b0:	d4 00 dc 04 	LW         (SP),R10       | LW         4(SP),R11
 200d2b4:	08 86 c0 00 	ADD        R11,R1
 200d2b8:	00 98 00 01 	ADD.C      $1,R0
 200d2bc:	82 d0 83 d0 	ADD        R10,R0         | CMP        R10,R0
 200d2c0:	78 98 00 08 	BC         @0x0200d2cc    // 200d2cc <__muldf3+0x198>
 200d2c4:	0c 0e c0 00 	CMP.Z      R11,R1
 200d2c8:	78 b8 00 04 	BNC        @0x0200d2d0    // 200d2d0 <__muldf3+0x19c>
 200d2cc:	b7 a8 bf a0 	MOV        R5,R6          | MOV        R4,R7
 200d2d0:	af 90 a6 00 	MOV        R2,R5          | CLR        R4
 200d2d4:	96 00 9f a8 	CLR        R2             | MOV        R5,R3
 200d2d8:	dc 08 e4 0c 	LW         8(SP),R11      | LW         12(SP),R12
 200d2dc:	18 87 00 00 	ADD        R12,R3
 200d2e0:	10 98 00 01 	ADD.C      $1,R2
 200d2e4:	92 d8 9a b8 	ADD        R11,R2         | ADD        R7,R3
 200d2e8:	10 98 00 01 	ADD.C      $1,R2
 200d2ec:	92 b0 ac 3c 	ADD        R6,R2          | LW         60(SP),R5
 200d2f0:	d4 28 d2 a8 	LW         40(SP),R10     | ADD        R5,R10
 200d2f4:	af d0 aa 04 	MOV        R10,R5         | ADD        $4,R5
 200d2f8:	2c c7 40 50 	SW         R5,$80(SP)
 200d2fc:	b4 38 bc 24 	LW         56(SP),R6      | LW         36(SP),R7
 200d300:	3c 05 80 00 	CMP        R6,R7
 200d304:	22 68 00 01 	LDILO.NZ   $1,R4
 200d308:	24 c7 40 4c 	SW         R4,$76(SP)
 200d30c:	32 03 ff f8 	BREV       $-8,R6
 200d310:	be ff b3 90 	LDI        $-1,R7         | CMP        R2,R6
 200d314:	78 98 00 08 	BC         @0x0200d320    // 200d320 <__muldf3+0x1ec>
 200d318:	3c 0c c0 00 	CMP.Z      R3,R7
 200d31c:	78 b8 00 98 	BNC        @0x0200d3b8    // 200d3b8 <__muldf3+0x284>
 200d320:	d2 05 de 00 	ADD        $5,R10         | CLR        R11
 200d324:	66 00 00 01 	LDI        $1,R12
 200d328:	d5 00 a7 80 	SW         R10,(SP)       | MOV        R0,R4
 200d32c:	21 80 00 1f 	LSL        $31,R4
 200d330:	4b 40 40 00 	MOV        R1,R9
 200d334:	49 40 00 01 	LSR        $1,R9
 200d338:	20 c6 40 00 	OR         R9,R4
 200d33c:	cf a0 c7 80 	MOV        R4,R9          | MOV        R0,R8
 200d340:	41 40 00 01 	LSR        $1,R8
 200d344:	22 00 00 01 	BREV       $1,R4
 200d348:	2e 00 00 00 	CLR        R5
 200d34c:	28 c6 40 00 	OR         R9,R5
 200d350:	20 c6 00 00 	OR         R8,R4
 200d354:	b7 90 bf 98 	MOV        R2,R6          | MOV        R3,R7
 200d358:	b9 e0 b1 d8 	AND        R12,R7         | AND        R11,R6
 200d35c:	34 00 00 00 	CMP        $0,R6
 200d360:	3c 08 00 00 	CMP.Z      $0,R7
 200d364:	78 88 00 08 	BZ         @0x0200d370    // 200d370 <__muldf3+0x23c>
 200d368:	b7 a0 a7 a8 	MOV        R4,R6          | MOV        R5,R4
 200d36c:	78 80 00 04 	BRA        @0x0200d374    // 200d374 <__muldf3+0x240>
 200d370:	b7 80 a7 88 	MOV        R0,R6          | MOV        R1,R4
 200d374:	87 b0 8f a0 	MOV        R6,R0          | MOV        R4,R1
 200d378:	2b 40 80 00 	MOV        R2,R5
 200d37c:	29 80 00 1f 	LSL        $31,R5
 200d380:	23 40 c0 00 	MOV        R3,R4
 200d384:	21 40 00 01 	LSR        $1,R4
 200d388:	33 40 80 00 	MOV        R2,R6
 200d38c:	31 40 00 01 	LSR        $1,R6
 200d390:	97 b0 9f a8 	MOV        R6,R2          | MOV        R5,R3
 200d394:	18 c5 00 00 	OR         R4,R3
 200d398:	50 80 00 01 	ADD        $1,R10
 200d39c:	22 03 ff f8 	BREV       $-8,R4
 200d3a0:	ae ff a3 90 	LDI        $-1,R5         | CMP        R2,R4
 200d3a4:	2c 0c c0 00 	CMP.Z      R3,R5
 200d3a8:	78 9b ff 7c 	BC         @0x0200d328    // 200d328 <__muldf3+0x1f4>
 200d3ac:	2c 87 40 00 	LW         (SP),R5
 200d3b0:	2c c7 40 50 	SW         R5,$80(SP)
 200d3b4:	78 80 00 64 	BRA        @0x0200d41c    // 200d41c <__muldf3+0x2e8>
 200d3b8:	32 03 ff f0 	BREV       $-16,R6
 200d3bc:	be ff b3 90 	LDI        $-1,R7         | CMP        R2,R6
 200d3c0:	3c 0c c0 00 	CMP.Z      R3,R7
 200d3c4:	78 98 00 54 	BC         @0x0200d41c    // 200d41c <__muldf3+0x2e8>
 200d3c8:	b6 00 be 01 	CLR        R6             | LDI        $1,R7
 200d3cc:	aa 7f 9a 98 	ADD        $-1,R5         | ADD        R3,R3
 200d3d0:	10 98 00 01 	ADD.C      $1,R2
 200d3d4:	92 90 c7 90 	ADD        R2,R2          | MOV        R2,R8
 200d3d8:	4b 40 c0 00 	MOV        R3,R9
 200d3dc:	48 c5 c0 00 	OR         R7,R9
 200d3e0:	40 c5 80 00 	OR         R6,R8
 200d3e4:	a7 c8 83 00 	MOV        R9,R4          | CMP        $0,R0
 200d3e8:	78 90 00 08 	BLT        @0x0200d3f4    // 200d3f4 <__muldf3+0x2c0>
 200d3ec:	c7 90 a7 98 	MOV        R2,R8          | MOV        R3,R4
 200d3f0:	78 80 00 00 	BRA        @0x0200d3f4    // 200d3f4 <__muldf3+0x2c0>
 200d3f4:	97 c0 9f a0 	MOV        R8,R2          | MOV        R4,R3
 200d3f8:	08 84 40 00 	ADD        R1,R1
 200d3fc:	00 98 00 01 	ADD.C      $1,R0
 200d400:	00 84 00 00 	ADD        R0,R0
 200d404:	42 03 ff f0 	BREV       $-16,R8
 200d408:	ce ff c3 90 	LDI        $-1,R9         | CMP        R2,R8
 200d40c:	78 98 00 08 	BC         @0x0200d418    // 200d418 <__muldf3+0x2e4>
 200d410:	4c 0c c0 00 	CMP.Z      R3,R9
 200d414:	78 bb ff b4 	BNC        @0x0200d3cc    // 200d3cc <__muldf3+0x298>
 200d418:	2c c7 40 50 	SW         R5,$80(SP)
 200d41c:	26 00 00 00 	CLR        R4
 200d420:	2e 00 00 ff 	LDI        $255,R5
 200d424:	a9 98 a1 90 	AND        R3,R5          | AND        R2,R4
 200d428:	24 00 00 00 	CMP        $0,R4
 200d42c:	2c 08 00 80 	CMP.Z      $128,R5
 200d430:	78 a8 00 44 	BNZ        @0x0200d478    // 200d478 <__muldf3+0x344>
 200d434:	3b 40 80 00 	MOV        R2,R7
 200d438:	39 80 00 18 	LSL        $24,R7
 200d43c:	33 40 c0 00 	MOV        R3,R6
 200d440:	31 40 00 08 	LSR        $8,R6
 200d444:	38 c5 80 00 	OR         R6,R7
 200d448:	33 41 c0 00 	MOV        R7,R6
 200d44c:	31 03 ff ff 	XOR        $-1,R6
 200d450:	00 c4 40 00 	OR         R1,R0
 200d454:	06 00 00 00 	CLR        R0
 200d458:	02 68 00 01 	LDILO.NZ   $1,R0
 200d45c:	30 44 00 00 	AND        R0,R6
 200d460:	78 88 00 14 	BZ         @0x0200d478    // 200d478 <__muldf3+0x344>
 200d464:	18 85 40 00 	ADD        R5,R3
 200d468:	10 98 00 01 	ADD.C      $1,R2
 200d46c:	92 a0 86 ff 	ADD        R4,R2          | LDI        $-1,R0
 200d470:	0e 7f ff 00 	LDI        $-256,R1
 200d474:	99 88 91 80 	AND        R1,R3          | AND        R0,R2
 200d478:	14 c7 40 54 	SW         R2,$84(SP)
 200d47c:	1c c7 40 58 	SW         R3,$88(SP)
 200d480:	4e 00 00 03 	LDI        $3,R9
 200d484:	4c c7 40 48 	SW         R9,$72(SP)
 200d488:	0b 43 40 00 	MOV        SP,R1
 200d48c:	08 80 00 48 	ADD        $72,R1
 200d490:	78 80 00 14 	BRA        @0x0200d4a8    // 200d4a8 <__muldf3+0x374>
 200d494:	0a 03 00 40 	LDI        0x0200e678,R1  // 200e678 <__thenan_df>
 200d498:	0a 40 e6 78 
 200d49c:	78 80 00 08 	BRA        @0x0200d4a8    // 200d4a8 <__muldf3+0x374>
 200d4a0:	0a 03 00 40 	LDI        0x0200e678,R1  // 200e678 <__thenan_df>
 200d4a4:	0a 40 e6 78 
 200d4a8:	87 fa fc f8 	JSR        0x0200db6c     // 200db6c <__pack_d>
 200d4ac:	02 00 db 6c 
 200d4b0:	04 87 40 5c 	LW         92(SP),R0
 200d4b4:	2c 87 40 60 	LW         96(SP),R5
 200d4b8:	34 87 40 64 	LW         100(SP),R6
 200d4bc:	3c 87 40 68 	LW         104(SP),R7
 200d4c0:	44 87 40 6c 	LW         108(SP),R8
 200d4c4:	4c 87 40 70 	LW         112(SP),R9
 200d4c8:	54 87 40 74 	LW         116(SP),R10
 200d4cc:	5c 87 40 78 	LW         120(SP),R11
 200d4d0:	64 87 40 7c 	LW         124(SP),R12
 200d4d4:	68 80 00 80 	ADD        $128,SP
 200d4d8:	7b 40 00 00 	RTN

0200d4dc <__divdf3>:
 200d4dc:	68 00 00 5c 	SUB        $92,SP
 200d4e0:	85 38 ad 3c 	SW         R0,$56(SP)     | SW         R5,$60(SP)
 200d4e4:	34 c7 40 40 	SW         R6,$64(SP)
 200d4e8:	3c c7 40 44 	SW         R7,$68(SP)
 200d4ec:	44 c7 40 48 	SW         R8,$72(SP)
 200d4f0:	4c c7 40 4c 	SW         R9,$76(SP)
 200d4f4:	54 c7 40 50 	SW         R10,$80(SP)
 200d4f8:	5c c7 40 54 	SW         R11,$84(SP)
 200d4fc:	64 c7 40 58 	SW         R12,$88(SP)
 200d500:	8d 00 95 04 	SW         R1,(SP)        | SW         R2,$4(SP)
 200d504:	9d 08 a5 0c 	SW         R3,$8(SP)      | SW         R4,$12(SP)
 200d508:	13 43 40 10 	MOV        $16+SP,R2
 200d50c:	0b 43 40 00 	MOV        SP,R1
 200d510:	87 fa fc f8 	JSR        0x0200df28     // 200df28 <__unpack_d>
 200d514:	02 00 df 28 
 200d518:	13 43 40 24 	MOV        $36+SP,R2
 200d51c:	0b 43 40 08 	MOV        $8+SP,R1
 200d520:	87 fa fc f8 	JSR        0x0200df28     // 200df28 <__unpack_d>
 200d524:	02 00 df 28 
 200d528:	94 10 93 02 	LW         16(SP),R2      | CMP        $2,R2
 200d52c:	78 b8 00 08 	BNC        @0x0200d538    // 200d538 <__divdf3+0x5c>
 200d530:	0b 43 40 10 	MOV        $16+SP,R1
 200d534:	78 80 01 94 	BRA        @0x0200d6cc    // 200d6cc <__divdf3+0x1f0>
 200d538:	8c 24 8b 02 	LW         36(SP),R1      | CMP        $2,R1
 200d53c:	78 98 01 7c 	BC         @0x0200d6bc    // 200d6bc <__divdf3+0x1e0>
 200d540:	04 87 40 28 	LW         40(SP),R0
 200d544:	7f 40 00 00 	LOCK
 200d548:	1c 87 40 14 	LW         20(SP),R3
 200d54c:	19 04 00 00 	XOR        R0,R3
 200d550:	9d 14 87 90 	SW         R3,$20(SP)     | MOV        R2,R0
 200d554:	82 7e 81 7d 	ADD        $-2,R0         | AND        $-3,R0
 200d558:	78 a8 00 0c 	BNZ        @0x0200d568    // 200d568 <__divdf3+0x8c>
 200d55c:	14 04 40 00 	CMP        R1,R2
 200d560:	78 ab ff cc 	BNZ        @0x0200d530    // 200d530 <__divdf3+0x54>
 200d564:	78 80 01 5c 	BRA        @0x0200d6c4    // 200d6c4 <__divdf3+0x1e8>
 200d568:	0c 00 00 04 	CMP        $4,R1
 200d56c:	78 a8 00 14 	BNZ        @0x0200d584    // 200d584 <__divdf3+0xa8>
 200d570:	86 00 8e 00 	CLR        R0             | CLR        R1
 200d574:	85 1c 8d 20 	SW         R0,$28(SP)     | SW         R1,$32(SP)
 200d578:	8e 00 8d 18 	CLR        R1             | SW         R1,$24(SP)
 200d57c:	0b 43 40 10 	MOV        $16+SP,R1
 200d580:	78 80 01 48 	BRA        @0x0200d6cc    // 200d6cc <__divdf3+0x1f0>
 200d584:	0c 00 00 02 	CMP        $2,R1
 200d588:	78 a8 00 0c 	BNZ        @0x0200d598    // 200d598 <__divdf3+0xbc>
 200d58c:	9e 04 9d 10 	LDI        $4,R3          | SW         R3,$16(SP)
 200d590:	0b 43 40 10 	MOV        $16+SP,R1
 200d594:	78 80 01 34 	BRA        @0x0200d6cc    // 200d6cc <__divdf3+0x1f0>
 200d598:	8c 2c 84 18 	LW         44(SP),R1      | LW         24(SP),R0
 200d59c:	80 88 85 18 	SUB        R1,R0          | SW         R0,$24(SP)
 200d5a0:	a4 1c ac 20 	LW         28(SP),R4      | LW         32(SP),R5
 200d5a4:	c4 30 cc 34 	LW         48(SP),R8      | LW         52(SP),R9
 200d5a8:	24 06 00 00 	CMP        R8,R4
 200d5ac:	78 98 00 08 	BC         @0x0200d5b8    // 200d5b8 <__divdf3+0xdc>
 200d5b0:	2c 0e 40 00 	CMP.Z      R9,R5
 200d5b4:	78 b8 00 10 	BNC        @0x0200d5c8    // 200d5c8 <__divdf3+0xec>
 200d5b8:	28 85 40 00 	ADD        R5,R5
 200d5bc:	20 98 00 01 	ADD.C      $1,R4
 200d5c0:	a2 a0 82 7f 	ADD        R4,R4          | ADD        $-1,R0
 200d5c4:	04 c7 40 18 	SW         R0,$24(SP)
 200d5c8:	d6 3d 86 00 	LDI        $61,R10        | CLR        R0
 200d5cc:	0e 00 00 00 	CLR        R1
 200d5d0:	12 00 00 08 	BREV       $8,R2
 200d5d4:	1e 00 00 00 	CLR        R3
 200d5d8:	df 90 e7 98 	MOV        R2,R11         | MOV        R3,R12
 200d5dc:	60 c4 40 00 	OR         R1,R12
 200d5e0:	58 c4 00 00 	OR         R0,R11
 200d5e4:	b7 a0 bf a8 	MOV        R4,R6          | MOV        R5,R7
 200d5e8:	38 06 40 00 	SUB        R9,R7
 200d5ec:	30 18 00 01 	SUB.C      $1,R6
 200d5f0:	b0 c0 a3 c0 	SUB        R8,R6          | CMP        R8,R4
 200d5f4:	2c 0e 40 00 	CMP.Z      R9,R5
 200d5f8:	78 98 00 04 	BC         @0x0200d600    // 200d600 <__divdf3+0x124>
 200d5fc:	78 80 00 04 	BRA        @0x0200d604    // 200d604 <__divdf3+0x128>
 200d600:	b7 a0 bf a8 	MOV        R4,R6          | MOV        R5,R7
 200d604:	24 06 00 00 	CMP        R8,R4
 200d608:	2c 0e 40 00 	CMP.Z      R9,R5
 200d60c:	78 98 00 08 	BC         @0x0200d618    // 200d618 <__divdf3+0x13c>
 200d610:	af d8 a7 e0 	MOV        R11,R5         | MOV        R12,R4
 200d614:	78 80 00 04 	BRA        @0x0200d61c    // 200d61c <__divdf3+0x140>
 200d618:	af 80 a7 88 	MOV        R0,R5          | MOV        R1,R4
 200d61c:	87 a8 8f a0 	MOV        R5,R0          | MOV        R4,R1
 200d620:	2b 40 80 00 	MOV        R2,R5
 200d624:	29 80 00 1f 	LSL        $31,R5
 200d628:	23 40 c0 00 	MOV        R3,R4
 200d62c:	21 40 00 01 	LSR        $1,R4
 200d630:	5b 40 80 00 	MOV        R2,R11
 200d634:	59 40 00 01 	LSR        $1,R11
 200d638:	97 d8 9f a8 	MOV        R11,R2         | MOV        R5,R3
 200d63c:	18 c5 00 00 	OR         R4,R3
 200d640:	38 85 c0 00 	ADD        R7,R7
 200d644:	30 98 00 01 	ADD.C      $1,R6
 200d648:	b2 b0 a7 b0 	ADD        R6,R6          | MOV        R6,R4
 200d64c:	af b8 d2 7f 	MOV        R7,R5          | ADD        $-1,R10
 200d650:	78 ab ff 84 	BNZ        @0x0200d5d8    // 200d5d8 <__divdf3+0xfc>
 200d654:	16 00 00 00 	CLR        R2
 200d658:	1e 00 00 ff 	LDI        $255,R3
 200d65c:	99 88 91 80 	AND        R1,R3          | AND        R0,R2
 200d660:	14 00 00 00 	CMP        $0,R2
 200d664:	1c 08 00 80 	CMP.Z      $128,R3
 200d668:	78 a8 00 44 	BNZ        @0x0200d6b0    // 200d6b0 <__divdf3+0x1d4>
 200d66c:	2b 40 00 00 	MOV        R0,R5
 200d670:	29 80 00 18 	LSL        $24,R5
 200d674:	23 40 40 00 	MOV        R1,R4
 200d678:	21 40 00 08 	LSR        $8,R4
 200d67c:	28 c5 00 00 	OR         R4,R5
 200d680:	23 41 40 00 	MOV        R5,R4
 200d684:	30 c5 c0 00 	OR         R7,R6
 200d688:	52 28 00 00 	LDI.NZ     0x00000001,R10 // 1 <_rom+0x1>
 200d68c:	52 68 00 01 
 200d690:	21 03 ff ff 	XOR        $-1,R4
 200d694:	20 46 80 00 	AND        R10,R4
 200d698:	78 88 00 14 	BZ         @0x0200d6b0    // 200d6b0 <__divdf3+0x1d4>
 200d69c:	08 84 c0 00 	ADD        R3,R1
 200d6a0:	00 98 00 01 	ADD.C      $1,R0
 200d6a4:	82 90 96 ff 	ADD        R2,R0          | LDI        $-1,R2
 200d6a8:	1e 7f ff 00 	LDI        $-256,R3
 200d6ac:	89 98 81 90 	AND        R3,R1          | AND        R2,R0
 200d6b0:	85 1c 8d 20 	SW         R0,$28(SP)     | SW         R1,$32(SP)
 200d6b4:	0b 43 40 10 	MOV        $16+SP,R1
 200d6b8:	78 80 00 10 	BRA        @0x0200d6cc    // 200d6cc <__divdf3+0x1f0>
 200d6bc:	0b 43 40 24 	MOV        $36+SP,R1
 200d6c0:	78 80 00 08 	BRA        @0x0200d6cc    // 200d6cc <__divdf3+0x1f0>
 200d6c4:	0a 03 00 40 	LDI        0x0200e678,R1  // 200e678 <__thenan_df>
 200d6c8:	0a 40 e6 78 
 200d6cc:	87 fa fc f8 	JSR        0x0200db6c     // 200db6c <__pack_d>
 200d6d0:	02 00 db 6c 
 200d6d4:	84 38 ac 3c 	LW         56(SP),R0      | LW         60(SP),R5
 200d6d8:	34 87 40 40 	LW         64(SP),R6
 200d6dc:	3c 87 40 44 	LW         68(SP),R7
 200d6e0:	44 87 40 48 	LW         72(SP),R8
 200d6e4:	4c 87 40 4c 	LW         76(SP),R9
 200d6e8:	54 87 40 50 	LW         80(SP),R10
 200d6ec:	5c 87 40 54 	LW         84(SP),R11
 200d6f0:	64 87 40 58 	LW         88(SP),R12
 200d6f4:	68 80 00 5c 	ADD        $92,SP
 200d6f8:	7b 40 00 00 	RTN

0200d6fc <__eqdf2>:
 200d6fc:	e8 3c 85 38 	SUB        $60,SP         | SW         R0,$56(SP)
 200d700:	8d 00 95 04 	SW         R1,(SP)        | SW         R2,$4(SP)
 200d704:	9d 08 a5 0c 	SW         R3,$8(SP)      | SW         R4,$12(SP)
 200d708:	13 43 40 10 	MOV        $16+SP,R2
 200d70c:	0b 43 40 00 	MOV        SP,R1
 200d710:	87 fa fc f8 	JSR        0x0200df28     // 200df28 <__unpack_d>
 200d714:	02 00 df 28 
 200d718:	13 43 40 24 	MOV        $36+SP,R2
 200d71c:	0b 43 40 08 	MOV        $8+SP,R1
 200d720:	87 fa fc f8 	JSR        0x0200df28     // 200df28 <__unpack_d>
 200d724:	02 00 df 28 
 200d728:	8c 10 8b 02 	LW         16(SP),R1      | CMP        $2,R1
 200d72c:	78 98 00 1c 	BC         @0x0200d74c    // 200d74c <__eqdf2+0x50>
 200d730:	8c 24 8b 02 	LW         36(SP),R1      | CMP        $2,R1
 200d734:	78 98 00 1c 	BC         @0x0200d754    // 200d754 <__eqdf2+0x58>
 200d738:	13 43 40 24 	MOV        $36+SP,R2
 200d73c:	0b 43 40 10 	MOV        $16+SP,R1
 200d740:	87 fa fc f8 	JSR        0x0200e07c     // 200e07c <__fpcmp_parts_d>
 200d744:	02 00 e0 7c 
 200d748:	78 80 00 0c 	BRA        @0x0200d758    // 200d758 <__eqdf2+0x5c>
 200d74c:	0e 00 00 01 	LDI        $1,R1
 200d750:	78 80 00 04 	BRA        @0x0200d758    // 200d758 <__eqdf2+0x5c>
 200d754:	0e 00 00 01 	LDI        $1,R1
 200d758:	84 38 ea 3c 	LW         56(SP),R0      | ADD        $60,SP
 200d75c:	7b 40 00 00 	RTN

0200d760 <__nedf2>:
 200d760:	e8 3c 85 38 	SUB        $60,SP         | SW         R0,$56(SP)
 200d764:	8d 00 95 04 	SW         R1,(SP)        | SW         R2,$4(SP)
 200d768:	9d 08 a5 0c 	SW         R3,$8(SP)      | SW         R4,$12(SP)
 200d76c:	13 43 40 10 	MOV        $16+SP,R2
 200d770:	0b 43 40 00 	MOV        SP,R1
 200d774:	87 fa fc f8 	JSR        0x0200df28     // 200df28 <__unpack_d>
 200d778:	02 00 df 28 
 200d77c:	13 43 40 24 	MOV        $36+SP,R2
 200d780:	0b 43 40 08 	MOV        $8+SP,R1
 200d784:	87 fa fc f8 	JSR        0x0200df28     // 200df28 <__unpack_d>
 200d788:	02 00 df 28 
 200d78c:	8c 10 8b 02 	LW         16(SP),R1      | CMP        $2,R1
 200d790:	78 98 00 1c 	BC         @0x0200d7b0    // 200d7b0 <__nedf2+0x50>
 200d794:	8c 24 8b 02 	LW         36(SP),R1      | CMP        $2,R1
 200d798:	78 98 00 1c 	BC         @0x0200d7b8    // 200d7b8 <__nedf2+0x58>
 200d79c:	13 43 40 24 	MOV        $36+SP,R2
 200d7a0:	0b 43 40 10 	MOV        $16+SP,R1
 200d7a4:	87 fa fc f8 	JSR        0x0200e07c     // 200e07c <__fpcmp_parts_d>
 200d7a8:	02 00 e0 7c 
 200d7ac:	78 80 00 0c 	BRA        @0x0200d7bc    // 200d7bc <__nedf2+0x5c>
 200d7b0:	0e 00 00 01 	LDI        $1,R1
 200d7b4:	78 80 00 04 	BRA        @0x0200d7bc    // 200d7bc <__nedf2+0x5c>
 200d7b8:	0e 00 00 01 	LDI        $1,R1
 200d7bc:	84 38 ea 3c 	LW         56(SP),R0      | ADD        $60,SP
 200d7c0:	7b 40 00 00 	RTN

0200d7c4 <__gtdf2>:
 200d7c4:	e8 3c 85 38 	SUB        $60,SP         | SW         R0,$56(SP)
 200d7c8:	8d 00 95 04 	SW         R1,(SP)        | SW         R2,$4(SP)
 200d7cc:	9d 08 a5 0c 	SW         R3,$8(SP)      | SW         R4,$12(SP)
 200d7d0:	13 43 40 10 	MOV        $16+SP,R2
 200d7d4:	0b 43 40 00 	MOV        SP,R1
 200d7d8:	87 fa fc f8 	JSR        0x0200df28     // 200df28 <__unpack_d>
 200d7dc:	02 00 df 28 
 200d7e0:	13 43 40 24 	MOV        $36+SP,R2
 200d7e4:	0b 43 40 08 	MOV        $8+SP,R1
 200d7e8:	87 fa fc f8 	JSR        0x0200df28     // 200df28 <__unpack_d>
 200d7ec:	02 00 df 28 
 200d7f0:	8c 10 8b 02 	LW         16(SP),R1      | CMP        $2,R1
 200d7f4:	78 98 00 1c 	BC         @0x0200d814    // 200d814 <__gtdf2+0x50>
 200d7f8:	8c 24 8b 02 	LW         36(SP),R1      | CMP        $2,R1
 200d7fc:	78 98 00 1c 	BC         @0x0200d81c    // 200d81c <__gtdf2+0x58>
 200d800:	13 43 40 24 	MOV        $36+SP,R2
 200d804:	0b 43 40 10 	MOV        $16+SP,R1
 200d808:	87 fa fc f8 	JSR        0x0200e07c     // 200e07c <__fpcmp_parts_d>
 200d80c:	02 00 e0 7c 
 200d810:	78 80 00 0c 	BRA        @0x0200d820    // 200d820 <__gtdf2+0x5c>
 200d814:	0e 7f ff ff 	LDI        $-1,R1
 200d818:	78 80 00 04 	BRA        @0x0200d820    // 200d820 <__gtdf2+0x5c>
 200d81c:	0e 7f ff ff 	LDI        $-1,R1
 200d820:	84 38 ea 3c 	LW         56(SP),R0      | ADD        $60,SP
 200d824:	7b 40 00 00 	RTN

0200d828 <__ltdf2>:
 200d828:	e8 3c 85 38 	SUB        $60,SP         | SW         R0,$56(SP)
 200d82c:	8d 00 95 04 	SW         R1,(SP)        | SW         R2,$4(SP)
 200d830:	9d 08 a5 0c 	SW         R3,$8(SP)      | SW         R4,$12(SP)
 200d834:	13 43 40 10 	MOV        $16+SP,R2
 200d838:	0b 43 40 00 	MOV        SP,R1
 200d83c:	87 fa fc f8 	JSR        0x0200df28     // 200df28 <__unpack_d>
 200d840:	02 00 df 28 
 200d844:	13 43 40 24 	MOV        $36+SP,R2
 200d848:	0b 43 40 08 	MOV        $8+SP,R1
 200d84c:	87 fa fc f8 	JSR        0x0200df28     // 200df28 <__unpack_d>
 200d850:	02 00 df 28 
 200d854:	8c 10 8b 02 	LW         16(SP),R1      | CMP        $2,R1
 200d858:	78 98 00 1c 	BC         @0x0200d878    // 200d878 <__ltdf2+0x50>
 200d85c:	8c 24 8b 02 	LW         36(SP),R1      | CMP        $2,R1
 200d860:	78 98 00 1c 	BC         @0x0200d880    // 200d880 <__ltdf2+0x58>
 200d864:	13 43 40 24 	MOV        $36+SP,R2
 200d868:	0b 43 40 10 	MOV        $16+SP,R1
 200d86c:	87 fa fc f8 	JSR        0x0200e07c     // 200e07c <__fpcmp_parts_d>
 200d870:	02 00 e0 7c 
 200d874:	78 80 00 0c 	BRA        @0x0200d884    // 200d884 <__ltdf2+0x5c>
 200d878:	0e 00 00 01 	LDI        $1,R1
 200d87c:	78 80 00 04 	BRA        @0x0200d884    // 200d884 <__ltdf2+0x5c>
 200d880:	0e 00 00 01 	LDI        $1,R1
 200d884:	84 38 ea 3c 	LW         56(SP),R0      | ADD        $60,SP
 200d888:	7b 40 00 00 	RTN

0200d88c <__ledf2>:
 200d88c:	e8 3c 85 38 	SUB        $60,SP         | SW         R0,$56(SP)
 200d890:	8d 00 95 04 	SW         R1,(SP)        | SW         R2,$4(SP)
 200d894:	9d 08 a5 0c 	SW         R3,$8(SP)      | SW         R4,$12(SP)
 200d898:	13 43 40 10 	MOV        $16+SP,R2
 200d89c:	0b 43 40 00 	MOV        SP,R1
 200d8a0:	87 fa fc f8 	JSR        0x0200df28     // 200df28 <__unpack_d>
 200d8a4:	02 00 df 28 
 200d8a8:	13 43 40 24 	MOV        $36+SP,R2
 200d8ac:	0b 43 40 08 	MOV        $8+SP,R1
 200d8b0:	87 fa fc f8 	JSR        0x0200df28     // 200df28 <__unpack_d>
 200d8b4:	02 00 df 28 
 200d8b8:	8c 10 8b 02 	LW         16(SP),R1      | CMP        $2,R1
 200d8bc:	78 98 00 1c 	BC         @0x0200d8dc    // 200d8dc <__ledf2+0x50>
 200d8c0:	8c 24 8b 02 	LW         36(SP),R1      | CMP        $2,R1
 200d8c4:	78 98 00 1c 	BC         @0x0200d8e4    // 200d8e4 <__ledf2+0x58>
 200d8c8:	13 43 40 24 	MOV        $36+SP,R2
 200d8cc:	0b 43 40 10 	MOV        $16+SP,R1
 200d8d0:	87 fa fc f8 	JSR        0x0200e07c     // 200e07c <__fpcmp_parts_d>
 200d8d4:	02 00 e0 7c 
 200d8d8:	78 80 00 0c 	BRA        @0x0200d8e8    // 200d8e8 <__ledf2+0x5c>
 200d8dc:	0e 00 00 01 	LDI        $1,R1
 200d8e0:	78 80 00 04 	BRA        @0x0200d8e8    // 200d8e8 <__ledf2+0x5c>
 200d8e4:	0e 00 00 01 	LDI        $1,R1
 200d8e8:	84 38 ea 3c 	LW         56(SP),R0      | ADD        $60,SP
 200d8ec:	7b 40 00 00 	RTN

0200d8f0 <__unorddf2>:
 200d8f0:	e8 3c 85 38 	SUB        $60,SP         | SW         R0,$56(SP)
 200d8f4:	8d 00 95 04 	SW         R1,(SP)        | SW         R2,$4(SP)
 200d8f8:	9d 08 a5 0c 	SW         R3,$8(SP)      | SW         R4,$12(SP)
 200d8fc:	13 43 40 10 	MOV        $16+SP,R2
 200d900:	0b 43 40 00 	MOV        SP,R1
 200d904:	87 fa fc f8 	JSR        0x0200df28     // 200df28 <__unpack_d>
 200d908:	02 00 df 28 
 200d90c:	13 43 40 24 	MOV        $36+SP,R2
 200d910:	0b 43 40 08 	MOV        $8+SP,R1
 200d914:	87 fa fc f8 	JSR        0x0200df28     // 200df28 <__unpack_d>
 200d918:	02 00 df 28 
 200d91c:	8c 10 8b 02 	LW         16(SP),R1      | CMP        $2,R1
 200d920:	78 98 00 14 	BC         @0x0200d938    // 200d938 <__unorddf2+0x48>
 200d924:	8c 24 8b 02 	LW         36(SP),R1      | CMP        $2,R1
 200d928:	0e 00 00 00 	CLR        R1
 200d92c:	0a 58 00 01 	LDILO.C    $1,R1
 200d930:	08 40 00 ff 	AND        $255,R1
 200d934:	78 80 00 04 	BRA        @0x0200d93c    // 200d93c <__unorddf2+0x4c>
 200d938:	0e 00 00 01 	LDI        $1,R1
 200d93c:	84 38 ea 3c 	LW         56(SP),R0      | ADD        $60,SP
 200d940:	7b 40 00 00 	RTN

0200d944 <__floatsidf>:
 200d944:	e8 1c 85 14 	SUB        $28,SP         | SW         R0,$20(SP)
 200d948:	ad 18 96 03 	SW         R5,$24(SP)     | LDI        $3,R2
 200d94c:	95 00 97 88 	SW         R2,(SP)        | MOV        R1,R2
 200d950:	11 40 00 1f 	LSR        $31,R2
 200d954:	95 04 8b 00 	SW         R2,$4(SP)      | CMP        $0,R1
 200d958:	78 a8 00 08 	BNZ        @0x0200d964    // 200d964 <__floatsidf+0x20>
 200d95c:	86 02 85 00 	LDI        $2,R0          | SW         R0,(SP)
 200d960:	78 80 00 6c 	BRA        @0x0200d9d0    // 200d9d0 <__floatsidf+0x8c>
 200d964:	78 b0 00 18 	BGE        @0x0200d980    // 200d980 <__floatsidf+0x3c>
 200d968:	12 00 00 01 	BREV       $1,R2
 200d96c:	2b 40 5f ff 	MOV        $-1+R1,R5
 200d970:	29 03 ff ff 	XOR        $-1,R5
 200d974:	0c 04 80 00 	CMP        R2,R1
 200d978:	78 a8 00 08 	BNZ        @0x0200d984    // 200d984 <__floatsidf+0x40>
 200d97c:	78 80 00 60 	BRA        @0x0200d9e0    // 200d9e0 <__floatsidf+0x9c>
 200d980:	2b 40 40 00 	MOV        R1,R5
 200d984:	0b 41 40 00 	MOV        R5,R1
 200d988:	87 fa fc f8 	JSR        0x0200db1c     // 200db1c <__clzsi2>
 200d98c:	02 00 db 1c 
 200d990:	97 88 92 1d 	MOV        R1,R2          | ADD        $29,R2
 200d994:	08 83 ff fd 	ADD        $-3,R1
 200d998:	78 90 00 10 	BLT        @0x0200d9ac    // 200d9ac <__floatsidf+0x68>
 200d99c:	29 84 40 00 	LSL        R1,R5
 200d9a0:	ad 0c 86 00 	SW         R5,$12(SP)     | CLR        R0
 200d9a4:	04 c7 40 10 	SW         R0,$16(SP)
 200d9a8:	78 80 00 1c 	BRA        @0x0200d9c8    // 200d9c8 <__floatsidf+0x84>
 200d9ac:	0b 41 40 00 	MOV        R5,R1
 200d9b0:	09 40 00 01 	LSR        $1,R1
 200d9b4:	9e 1f 98 90 	LDI        $31,R3         | SUB        R2,R3
 200d9b8:	09 44 c0 00 	LSR        R3,R1
 200d9bc:	8d 0c 8f a8 	SW         R1,$12(SP)     | MOV        R5,R1
 200d9c0:	09 84 80 00 	LSL        R2,R1
 200d9c4:	0c c7 40 10 	SW         R1,$16(SP)
 200d9c8:	8e 3c 88 90 	LDI        $60,R1         | SUB        R2,R1
 200d9cc:	0c c7 40 08 	SW         R1,$8(SP)
 200d9d0:	0b 43 40 00 	MOV        SP,R1
 200d9d4:	87 fa fc f8 	JSR        0x0200db6c     // 200db6c <__pack_d>
 200d9d8:	02 00 db 6c 
 200d9dc:	78 80 00 08 	BRA        @0x0200d9e8    // 200d9e8 <__floatsidf+0xa4>
 200d9e0:	0a 00 07 83 	BREV       $1923,R1
 200d9e4:	16 00 00 00 	CLR        R2
 200d9e8:	84 14 ac 18 	LW         20(SP),R0      | LW         24(SP),R5
 200d9ec:	ea 1c ff 80 	ADD        $28,SP         | RTN

0200d9f0 <__fixdfsi>:
 200d9f0:	e8 20 85 1c 	SUB        $32,SP         | SW         R0,$28(SP)
 200d9f4:	8d 00 95 04 	SW         R1,(SP)        | SW         R2,$4(SP)
 200d9f8:	13 43 40 08 	MOV        $8+SP,R2
 200d9fc:	0b 43 40 00 	MOV        SP,R1
 200da00:	87 fa fc f8 	JSR        0x0200df28     // 200df28 <__unpack_d>
 200da04:	02 00 df 28 
 200da08:	8c 08 8b 03 	LW         8(SP),R1       | CMP        $3,R1
 200da0c:	78 98 00 74 	BC         @0x0200da84    // 200da84 <__fixdfsi+0x94>
 200da10:	0c 00 00 04 	CMP        $4,R1
 200da14:	78 a8 00 10 	BNZ        @0x0200da28    // 200da28 <__fixdfsi+0x38>
 200da18:	8c 0c 8b 00 	LW         12(SP),R1      | CMP        $0,R1
 200da1c:	78 a8 00 6c 	BNZ        @0x0200da8c    // 200da8c <__fixdfsi+0x9c>
 200da20:	0a 03 ff fe 	BREV       $-2,R1
 200da24:	78 80 00 70 	BRA        @0x0200da98    // 200da98 <__fixdfsi+0xa8>
 200da28:	8c 10 8b 00 	LW         16(SP),R1      | CMP        $0,R1
 200da2c:	78 90 00 64 	BLT        @0x0200da94    // 200da94 <__fixdfsi+0xa4>
 200da30:	0c 00 00 1f 	CMP        $31,R1
 200da34:	78 b3 ff e0 	BGE        @0x0200da18    // 200da18 <__fixdfsi+0x28>
 200da38:	96 3c 90 88 	LDI        $60,R2         | SUB        R1,R2
 200da3c:	9f 90 9a 60 	MOV        R2,R3          | ADD        $-32,R3
 200da40:	78 90 00 0c 	BLT        @0x0200da50    // 200da50 <__fixdfsi+0x60>
 200da44:	0c 87 40 14 	LW         20(SP),R1
 200da48:	09 44 c0 00 	LSR        R3,R1
 200da4c:	78 80 00 20 	BRA        @0x0200da70    // 200da70 <__fixdfsi+0x80>
 200da50:	1c 87 40 14 	LW         20(SP),R3
 200da54:	19 80 00 01 	LSL        $1,R3
 200da58:	8e 1f 88 90 	LDI        $31,R1         | SUB        R2,R1
 200da5c:	19 84 40 00 	LSL        R1,R3
 200da60:	0c 87 40 18 	LW         24(SP),R1
 200da64:	09 44 80 00 	LSR        R2,R1
 200da68:	18 c4 40 00 	OR         R1,R3
 200da6c:	0b 40 c0 00 	MOV        R3,R1
 200da70:	94 0c 93 00 	LW         12(SP),R2      | CMP        $0,R2
 200da74:	78 88 00 20 	BZ         @0x0200da98    // 200da98 <__fixdfsi+0xa8>
 200da78:	0b 40 5f ff 	MOV        $-1+R1,R1
 200da7c:	09 03 ff ff 	XOR        $-1,R1
 200da80:	78 80 00 14 	BRA        @0x0200da98    // 200da98 <__fixdfsi+0xa8>
 200da84:	0e 00 00 00 	CLR        R1
 200da88:	78 80 00 0c 	BRA        @0x0200da98    // 200da98 <__fixdfsi+0xa8>
 200da8c:	0a 00 00 01 	BREV       $1,R1
 200da90:	78 80 00 04 	BRA        @0x0200da98    // 200da98 <__fixdfsi+0xa8>
 200da94:	0e 00 00 00 	CLR        R1
 200da98:	84 1c ea 20 	LW         28(SP),R0      | ADD        $32,SP
 200da9c:	7b 40 00 00 	RTN

0200daa0 <__floatunsidf>:
 200daa0:	e8 1c 85 14 	SUB        $28,SP         | SW         R0,$20(SP)
 200daa4:	ad 18 86 00 	SW         R5,$24(SP)     | CLR        R0
 200daa8:	85 04 8b 80 	SW         R0,$4(SP)      | CMP        R0,R1
 200daac:	78 a8 00 08 	BNZ        @0x0200dab8    // 200dab8 <__floatunsidf+0x18>
 200dab0:	86 02 85 00 	LDI        $2,R0          | SW         R0,(SP)
 200dab4:	78 80 00 50 	BRA        @0x0200db08    // 200db08 <__floatunsidf+0x68>
 200dab8:	af 88 86 03 	MOV        R1,R5          | LDI        $3,R0
 200dabc:	04 c7 40 00 	SW         R0,(SP)
 200dac0:	87 fa fc f8 	JSR        0x0200db1c     // 200db1c <__clzsi2>
 200dac4:	02 00 db 1c 
 200dac8:	97 88 92 1d 	MOV        R1,R2          | ADD        $29,R2
 200dacc:	08 83 ff fd 	ADD        $-3,R1
 200dad0:	78 90 00 10 	BLT        @0x0200dae4    // 200dae4 <__floatunsidf+0x44>
 200dad4:	29 84 40 00 	LSL        R1,R5
 200dad8:	ad 0c 86 00 	SW         R5,$12(SP)     | CLR        R0
 200dadc:	04 c7 40 10 	SW         R0,$16(SP)
 200dae0:	78 80 00 1c 	BRA        @0x0200db00    // 200db00 <__floatunsidf+0x60>
 200dae4:	0b 41 40 00 	MOV        R5,R1
 200dae8:	09 40 00 01 	LSR        $1,R1
 200daec:	9e 1f 98 90 	LDI        $31,R3         | SUB        R2,R3
 200daf0:	09 44 c0 00 	LSR        R3,R1
 200daf4:	0c c7 40 0c 	SW         R1,$12(SP)
 200daf8:	29 84 80 00 	LSL        R2,R5
 200dafc:	2c c7 40 10 	SW         R5,$16(SP)
 200db00:	8e 3c 88 90 	LDI        $60,R1         | SUB        R2,R1
 200db04:	0c c7 40 08 	SW         R1,$8(SP)
 200db08:	0b 43 40 00 	MOV        SP,R1
 200db0c:	87 fa fc f8 	JSR        0x0200db6c     // 200db6c <__pack_d>
 200db10:	02 00 db 6c 
 200db14:	84 14 ac 18 	LW         20(SP),R0      | LW         24(SP),R5
 200db18:	ea 1c ff 80 	ADD        $28,SP         | RTN

0200db1c <__clzsi2>:
 200db1c:	0c 01 00 00 	CMP        $65536,R1
 200db20:	78 b8 00 10 	BNC        @0x0200db34    // 200db34 <__clzsi2+0x18>
 200db24:	9e 20 96 00 	LDI        $32,R3         | CLR        R2
 200db28:	0c 00 01 00 	CMP        $256,R1
 200db2c:	78 98 00 24 	BC         @0x0200db54    // 200db54 <__clzsi2+0x38>
 200db30:	78 80 00 14 	BRA        @0x0200db48    // 200db48 <__clzsi2+0x2c>
 200db34:	12 03 ff 00 	BREV       $-256,R2
 200db38:	14 04 40 00 	CMP        R1,R2
 200db3c:	78 98 00 10 	BC         @0x0200db50    // 200db50 <__clzsi2+0x34>
 200db40:	9e 10 97 98 	LDI        $16,R3         | MOV        R3,R2
 200db44:	78 80 00 0c 	BRA        @0x0200db54    // 200db54 <__clzsi2+0x38>
 200db48:	9e 18 96 08 	LDI        $24,R3         | LDI        $8,R2
 200db4c:	78 80 00 04 	BRA        @0x0200db54    // 200db54 <__clzsi2+0x38>
 200db50:	9e 08 96 18 	LDI        $8,R3          | LDI        $24,R2
 200db54:	09 44 80 00 	LSR        R2,R1
 200db58:	12 03 00 40 	LDI        0x0200e68c,R2  // 200e68c <__clz_tab>
 200db5c:	12 40 e6 8c 
 200db60:	92 88 8f 98 	ADD        R1,R2          | MOV        R3,R1
 200db64:	15 84 80 00 	LB         (R2),R2
 200db68:	88 90 ff 80 	SUB        R2,R1          | RTN

0200db6c <__pack_d>:
 200db6c:	e8 18 ad 00 	SUB        $24,SP         | SW         R5,(SP)
 200db70:	b5 04 bd 08 	SW         R6,$4(SP)      | SW         R7,$8(SP)
 200db74:	c5 0c cd 10 	SW         R8,$12(SP)     | SW         R9,$16(SP)
 200db78:	54 c7 40 14 	SW         R10,$20(SP)
 200db7c:	24 84 40 0c 	LW         12(R1),R4
 200db80:	2c 84 40 10 	LW         16(R1),R5
 200db84:	54 84 40 04 	LW         4(R1),R10
 200db88:	94 88 93 02 	LW         (R1),R2        | CMP        $2,R2
 200db8c:	78 b8 00 44 	BNC        @0x0200dbd4    // 200dbd4 <__pack_d+0x68>
 200db90:	0b 41 00 00 	MOV        R4,R1
 200db94:	09 80 00 18 	LSL        $24,R1
 200db98:	1b 41 40 00 	MOV        R5,R3
 200db9c:	19 40 00 08 	LSR        $8,R3
 200dba0:	08 c4 c0 00 	OR         R3,R1
 200dba4:	9f 88 97 a0 	MOV        R1,R3          | MOV        R4,R2
 200dba8:	11 40 00 08 	LSR        $8,R2
 200dbac:	26 07 ff ff 	LDI        $524287,R4
 200dbb0:	ae ff a9 98 	LDI        $-1,R5         | AND        R3,R5
 200dbb4:	20 44 80 00 	AND        R2,R4
 200dbb8:	16 08 00 00 	LDI        $524288,R2
 200dbbc:	1e 00 00 00 	CLR        R3
 200dbc0:	28 c4 c0 00 	OR         R3,R5
 200dbc4:	20 c4 80 00 	OR         R2,R4
 200dbc8:	32 00 0f fe 	BREV       $4094,R6
 200dbcc:	3e 00 00 00 	CLR        R7
 200dbd0:	78 80 03 24 	BRA        @0x0200def8    // 200def8 <__pack_d+0x38c>
 200dbd4:	14 00 00 04 	CMP        $4,R2
 200dbd8:	78 88 02 f4 	BZ         @0x0200ded0    // 200ded0 <__pack_d+0x364>
 200dbdc:	93 02 96 00 	CMP        $2,R2          | CLR        R2
 200dbe0:	12 48 00 01 	LDILO.Z    $1,R2
 200dbe4:	1b 41 00 00 	MOV        R4,R3
 200dbe8:	18 c5 40 00 	OR         R5,R3
 200dbec:	10 c8 00 01 	OR.Z       $1,R2
 200dbf0:	14 00 00 00 	CMP        $0,R2
 200dbf4:	78 a8 02 e8 	BNZ        @0x0200dee0    // 200dee0 <__pack_d+0x374>
 200dbf8:	0c 84 40 08 	LW         8(R1),R1
 200dbfc:	0c 03 fc 02 	CMP        $-1022,R1
 200dc00:	78 b0 01 f8 	BGE        @0x0200ddfc    // 200ddfc <__pack_d+0x290>
 200dc04:	1e 7f fc 02 	LDI        $-1022,R3
 200dc08:	98 88 8f 98 	SUB        R1,R3          | MOV        R3,R1
 200dc0c:	1c 00 00 39 	CMP        $57,R3
 200dc10:	78 b0 01 dc 	BGE        @0x0200ddf0    // 200ddf0 <__pack_d+0x284>
 200dc14:	c7 98 c2 60 	MOV        R3,R8          | ADD        $-32,R8
 200dc18:	78 90 00 10 	BLT        @0x0200dc2c    // 200dc2c <__pack_d+0xc0>
 200dc1c:	3b 41 00 00 	MOV        R4,R7
 200dc20:	39 46 00 00 	LSR        R8,R7
 200dc24:	33 40 80 00 	MOV        R2,R6
 200dc28:	78 80 00 24 	BRA        @0x0200dc50    // 200dc50 <__pack_d+0xe4>
 200dc2c:	13 41 00 00 	MOV        R4,R2
 200dc30:	11 80 00 01 	LSL        $1,R2
 200dc34:	9e 1f 98 88 	LDI        $31,R3         | SUB        R1,R3
 200dc38:	11 84 c0 00 	LSL        R3,R2
 200dc3c:	3b 41 40 00 	MOV        R5,R7
 200dc40:	39 44 40 00 	LSR        R1,R7
 200dc44:	10 c5 c0 00 	OR         R7,R2
 200dc48:	bf 90 b7 a0 	MOV        R2,R7          | MOV        R4,R6
 200dc4c:	31 44 40 00 	LSR        R1,R6
 200dc50:	44 00 00 00 	CMP        $0,R8
 200dc54:	78 90 00 10 	BLT        @0x0200dc68    // 200dc68 <__pack_d+0xfc>
 200dc58:	8e 01 96 01 	LDI        $1,R1          | LDI        $1,R2
 200dc5c:	11 86 00 00 	LSL        R8,R2
 200dc60:	1e 00 00 00 	CLR        R3
 200dc64:	78 80 00 0c 	BRA        @0x0200dc74    // 200dc74 <__pack_d+0x108>
 200dc68:	96 00 9e 00 	CLR        R2             | CLR        R3
 200dc6c:	c6 01 9e 01 	LDI        $1,R8          | LDI        $1,R3
 200dc70:	19 84 40 00 	LSL        R1,R3
 200dc74:	c6 ff ce ff 	LDI        $-1,R8         | LDI        $-1,R9
 200dc78:	18 86 40 00 	ADD        R9,R3
 200dc7c:	10 98 00 01 	ADD.C      $1,R2
 200dc80:	92 c0 a9 98 	ADD        R8,R2          | AND        R3,R5
 200dc84:	20 44 80 00 	AND        R2,R4
 200dc88:	20 c5 40 00 	OR         R5,R4
 200dc8c:	26 00 00 00 	CLR        R4
 200dc90:	22 68 00 01 	LDILO.NZ   $1,R4
 200dc94:	8e 00 96 00 	CLR        R1             | CLR        R2
 200dc98:	1b 41 00 00 	MOV        R4,R3
 200dc9c:	38 c4 c0 00 	OR         R3,R7
 200dca0:	30 c4 80 00 	OR         R2,R6
 200dca4:	16 00 00 00 	CLR        R2
 200dca8:	1e 00 00 ff 	LDI        $255,R3
 200dcac:	99 b8 91 b0 	AND        R7,R3          | AND        R6,R2
 200dcb0:	14 00 00 00 	CMP        $0,R2
 200dcb4:	1c 08 00 80 	CMP.Z      $128,R3
 200dcb8:	78 88 00 64 	BZ         @0x0200dd20    // 200dd20 <__pack_d+0x1b4>
 200dcbc:	96 00 9e 7f 	CLR        R2             | LDI        $127,R3
 200dcc0:	38 84 c0 00 	ADD        R3,R7
 200dcc4:	30 98 00 01 	ADD.C      $1,R6
 200dcc8:	b2 90 97 b0 	ADD        R2,R6          | MOV        R6,R2
 200dccc:	11 80 00 18 	LSL        $24,R2
 200dcd0:	2b 41 c0 00 	MOV        R7,R5
 200dcd4:	29 40 00 08 	LSR        $8,R5
 200dcd8:	10 c5 40 00 	OR         R5,R2
 200dcdc:	af 90 a7 b0 	MOV        R2,R5          | MOV        R6,R4
 200dce0:	21 40 00 08 	LSR        $8,R4
 200dce4:	16 0f ff ff 	LDI        $1048575,R2
 200dce8:	9e ff a9 98 	LDI        $-1,R3         | AND        R3,R5
 200dcec:	a1 90 96 01 	AND        R2,R4          | LDI        $1,R2
 200dcf0:	42 03 ff f0 	BREV       $-16,R8
 200dcf4:	ce ff c3 b0 	LDI        $-1,R9         | CMP        R6,R8
 200dcf8:	4c 0d c0 00 	CMP.Z      R7,R9
 200dcfc:	78 98 00 04 	BC         @0x0200dd04    // 200dd04 <__pack_d+0x198>
 200dd00:	13 40 40 00 	MOV        R1,R2
 200dd04:	33 40 80 00 	MOV        R2,R6
 200dd08:	31 80 00 14 	LSL        $20,R6
 200dd0c:	3e 00 00 00 	CLR        R7
 200dd10:	12 00 0f fe 	BREV       $4094,R2
 200dd14:	9e 00 b9 98 	CLR        R3             | AND        R3,R7
 200dd18:	30 44 80 00 	AND        R2,R6
 200dd1c:	78 80 01 d8 	BRA        @0x0200def8    // 200def8 <__pack_d+0x38c>
 200dd20:	26 00 00 00 	CLR        R4
 200dd24:	2e 00 01 00 	LDI        $256,R5
 200dd28:	a9 b8 a1 b0 	AND        R7,R5          | AND        R6,R4
 200dd2c:	24 00 00 00 	CMP        $0,R4
 200dd30:	2c 08 00 00 	CMP.Z      $0,R5
 200dd34:	78 a8 00 58 	BNZ        @0x0200dd90    // 200dd90 <__pack_d+0x224>
 200dd38:	13 41 80 00 	MOV        R6,R2
 200dd3c:	11 80 00 18 	LSL        $24,R2
 200dd40:	2b 41 c0 00 	MOV        R7,R5
 200dd44:	29 40 00 08 	LSR        $8,R5
 200dd48:	10 c5 40 00 	OR         R5,R2
 200dd4c:	af 90 a7 b0 	MOV        R2,R5          | MOV        R6,R4
 200dd50:	21 40 00 08 	LSR        $8,R4
 200dd54:	16 0f ff ff 	LDI        $1048575,R2
 200dd58:	9e ff a9 98 	LDI        $-1,R3         | AND        R3,R5
 200dd5c:	a1 90 96 01 	AND        R2,R4          | LDI        $1,R2
 200dd60:	42 03 ff f0 	BREV       $-16,R8
 200dd64:	ce ff c3 b0 	LDI        $-1,R9         | CMP        R6,R8
 200dd68:	4c 0d c0 00 	CMP.Z      R7,R9
 200dd6c:	78 98 00 04 	BC         @0x0200dd74    // 200dd74 <__pack_d+0x208>
 200dd70:	13 40 40 00 	MOV        R1,R2
 200dd74:	33 40 80 00 	MOV        R2,R6
 200dd78:	31 80 00 14 	LSL        $20,R6
 200dd7c:	3e 00 00 00 	CLR        R7
 200dd80:	12 00 0f fe 	BREV       $4094,R2
 200dd84:	9e 00 b9 98 	CLR        R3             | AND        R3,R7
 200dd88:	30 44 80 00 	AND        R2,R6
 200dd8c:	78 80 01 68 	BRA        @0x0200def8    // 200def8 <__pack_d+0x38c>
 200dd90:	38 84 c0 00 	ADD        R3,R7
 200dd94:	30 98 00 01 	ADD.C      $1,R6
 200dd98:	b2 90 97 b0 	ADD        R2,R6          | MOV        R6,R2
 200dd9c:	11 80 00 18 	LSL        $24,R2
 200dda0:	2b 41 c0 00 	MOV        R7,R5
 200dda4:	29 40 00 08 	LSR        $8,R5
 200dda8:	10 c5 40 00 	OR         R5,R2
 200ddac:	af 90 a7 b0 	MOV        R2,R5          | MOV        R6,R4
 200ddb0:	21 40 00 08 	LSR        $8,R4
 200ddb4:	16 0f ff ff 	LDI        $1048575,R2
 200ddb8:	9e ff a9 98 	LDI        $-1,R3         | AND        R3,R5
 200ddbc:	a1 90 96 01 	AND        R2,R4          | LDI        $1,R2
 200ddc0:	42 03 ff f0 	BREV       $-16,R8
 200ddc4:	ce ff c3 b0 	LDI        $-1,R9         | CMP        R6,R8
 200ddc8:	4c 0d c0 00 	CMP.Z      R7,R9
 200ddcc:	78 98 00 04 	BC         @0x0200ddd4    // 200ddd4 <__pack_d+0x268>
 200ddd0:	13 40 40 00 	MOV        R1,R2
 200ddd4:	33 40 80 00 	MOV        R2,R6
 200ddd8:	31 80 00 14 	LSL        $20,R6
 200dddc:	3e 00 00 00 	CLR        R7
 200dde0:	12 00 0f fe 	BREV       $4094,R2
 200dde4:	9e 00 b9 98 	CLR        R3             | AND        R3,R7
 200dde8:	30 44 80 00 	AND        R2,R6
 200ddec:	78 80 01 08 	BRA        @0x0200def8    // 200def8 <__pack_d+0x38c>
 200ddf0:	b6 00 be 00 	CLR        R6             | CLR        R7
 200ddf4:	a6 00 ae 00 	CLR        R4             | CLR        R5
 200ddf8:	78 80 00 fc 	BRA        @0x0200def8    // 200def8 <__pack_d+0x38c>
 200ddfc:	0c 00 04 00 	CMP        $1024,R1
 200de00:	78 b0 00 e8 	BGE        @0x0200deec    // 200deec <__pack_d+0x380>
 200de04:	16 00 00 00 	CLR        R2
 200de08:	1e 00 00 ff 	LDI        $255,R3
 200de0c:	99 a8 91 a0 	AND        R5,R3          | AND        R4,R2
 200de10:	14 00 00 00 	CMP        $0,R2
 200de14:	1c 08 00 80 	CMP.Z      $128,R3
 200de18:	78 a8 00 28 	BNZ        @0x0200de44    // 200de44 <__pack_d+0x2d8>
 200de1c:	36 00 00 00 	CLR        R6
 200de20:	3e 00 01 00 	LDI        $256,R7
 200de24:	b9 a8 b1 a0 	AND        R5,R7          | AND        R4,R6
 200de28:	34 00 00 00 	CMP        $0,R6
 200de2c:	3c 08 00 00 	CMP.Z      $0,R7
 200de30:	78 88 00 20 	BZ         @0x0200de54    // 200de54 <__pack_d+0x2e8>
 200de34:	28 84 c0 00 	ADD        R3,R5
 200de38:	20 98 00 01 	ADD.C      $1,R4
 200de3c:	20 84 80 00 	ADD        R2,R4
 200de40:	78 80 00 10 	BRA        @0x0200de54    // 200de54 <__pack_d+0x2e8>
 200de44:	96 00 9e 7f 	CLR        R2             | LDI        $127,R3
 200de48:	28 84 c0 00 	ADD        R3,R5
 200de4c:	20 98 00 01 	ADD.C      $1,R4
 200de50:	20 84 80 00 	ADD        R2,R4
 200de54:	12 03 ff f8 	BREV       $-8,R2
 200de58:	9e ff 93 a0 	LDI        $-1,R3         | CMP        R4,R2
 200de5c:	1c 0d 40 00 	CMP.Z      R5,R3
 200de60:	78 98 00 08 	BC         @0x0200de6c    // 200de6c <__pack_d+0x300>
 200de64:	08 80 03 ff 	ADD        $1023,R1
 200de68:	78 80 00 24 	BRA        @0x0200de90    // 200de90 <__pack_d+0x324>
 200de6c:	1b 41 00 00 	MOV        R4,R3
 200de70:	19 80 00 1f 	LSL        $31,R3
 200de74:	13 41 40 00 	MOV        R5,R2
 200de78:	11 40 00 01 	LSR        $1,R2
 200de7c:	33 41 00 00 	MOV        R4,R6
 200de80:	31 40 00 01 	LSR        $1,R6
 200de84:	a7 b0 af 98 	MOV        R6,R4          | MOV        R3,R5
 200de88:	28 c4 80 00 	OR         R2,R5
 200de8c:	08 80 04 00 	ADD        $1024,R1
 200de90:	33 41 00 00 	MOV        R4,R6
 200de94:	31 80 00 18 	LSL        $24,R6
 200de98:	1b 41 40 00 	MOV        R5,R3
 200de9c:	19 40 00 08 	LSR        $8,R3
 200dea0:	30 c4 c0 00 	OR         R3,R6
 200dea4:	9f b0 97 a0 	MOV        R6,R3          | MOV        R4,R2
 200dea8:	11 40 00 08 	LSR        $8,R2
 200deac:	26 0f ff ff 	LDI        $1048575,R4
 200deb0:	ae ff a9 98 	LDI        $-1,R5         | AND        R3,R5
 200deb4:	a1 90 b7 88 	AND        R2,R4          | MOV        R1,R6
 200deb8:	31 80 00 14 	LSL        $20,R6
 200debc:	3e 00 00 00 	CLR        R7
 200dec0:	12 00 0f fe 	BREV       $4094,R2
 200dec4:	9e 00 b9 98 	CLR        R3             | AND        R3,R7
 200dec8:	30 44 80 00 	AND        R2,R6
 200decc:	78 80 00 28 	BRA        @0x0200def8    // 200def8 <__pack_d+0x38c>
 200ded0:	32 00 0f fe 	BREV       $4094,R6
 200ded4:	be 00 a6 00 	CLR        R7             | CLR        R4
 200ded8:	2e 00 00 00 	CLR        R5
 200dedc:	78 80 00 18 	BRA        @0x0200def8    // 200def8 <__pack_d+0x38c>
 200dee0:	b6 00 be 00 	CLR        R6             | CLR        R7
 200dee4:	a6 00 ae 00 	CLR        R4             | CLR        R5
 200dee8:	78 80 00 0c 	BRA        @0x0200def8    // 200def8 <__pack_d+0x38c>
 200deec:	32 00 0f fe 	BREV       $4094,R6
 200def0:	be 00 a6 00 	CLR        R7             | CLR        R4
 200def4:	2e 00 00 00 	CLR        R5
 200def8:	13 42 80 00 	MOV        R10,R2
 200defc:	11 80 00 1f 	LSL        $31,R2
 200df00:	1e 00 00 00 	CLR        R3
 200df04:	28 c5 c0 00 	OR         R7,R5
 200df08:	20 c5 80 00 	OR         R6,R4
 200df0c:	18 c5 40 00 	OR         R5,R3
 200df10:	10 c5 00 00 	OR         R4,R2
 200df14:	8f 90 97 98 	MOV        R2,R1          | MOV        R3,R2
 200df18:	ac 00 b4 04 	LW         (SP),R5        | LW         4(SP),R6
 200df1c:	bc 08 c4 0c 	LW         8(SP),R7       | LW         12(SP),R8
 200df20:	cc 10 d4 14 	LW         16(SP),R9      | LW         20(SP),R10
 200df24:	ea 18 ff 80 	ADD        $24,SP         | RTN

0200df28 <__unpack_d>:
 200df28:	e8 0c ad 00 	SUB        $12,SP         | SW         R5,(SP)
 200df2c:	b5 04 bd 08 	SW         R6,$4(SP)      | SW         R7,$8(SP)
 200df30:	24 84 40 00 	LW         (R1),R4
 200df34:	2c 84 40 04 	LW         4(R1),R5
 200df38:	36 0f ff ff 	LDI        $1048575,R6
 200df3c:	be ff b9 a8 	LDI        $-1,R7         | AND        R5,R7
 200df40:	b1 a0 8f a0 	AND        R4,R6          | MOV        R4,R1
 200df44:	09 40 00 14 	LSR        $20,R1
 200df48:	08 40 07 ff 	AND        $2047,R1
 200df4c:	1b 41 00 00 	MOV        R4,R3
 200df50:	19 40 00 1f 	LSR        $31,R3
 200df54:	1c c4 80 04 	SW         R3,$4(R2)
 200df58:	0c 00 00 00 	CMP        $0,R1
 200df5c:	78 a8 00 68 	BNZ        @0x0200dfc8    // 200dfc8 <__unpack_d+0xa0>
 200df60:	34 00 00 00 	CMP        $0,R6
 200df64:	3c 08 00 00 	CMP.Z      $0,R7
 200df68:	78 a8 00 08 	BNZ        @0x0200df74    // 200df74 <__unpack_d+0x4c>
 200df6c:	8e 02 8d 90 	LDI        $2,R1          | SW         R1,(R2)
 200df70:	78 80 00 fc 	BRA        @0x0200e070    // 200e070 <__unpack_d+0x148>
 200df74:	0b 41 c0 00 	MOV        R7,R1
 200df78:	09 40 00 18 	LSR        $24,R1
 200df7c:	23 41 80 00 	MOV        R6,R4
 200df80:	21 80 00 08 	LSL        $8,R4
 200df84:	08 c5 00 00 	OR         R4,R1
 200df88:	a7 88 af b8 	MOV        R1,R4          | MOV        R7,R5
 200df8c:	29 80 00 08 	LSL        $8,R5
 200df90:	b6 03 b5 90 	LDI        $3,R6          | SW         R6,(R2)
 200df94:	0e 7f fc 02 	LDI        $-1022,R1
 200df98:	28 85 40 00 	ADD        R5,R5
 200df9c:	20 98 00 01 	ADD.C      $1,R4
 200dfa0:	a2 a0 8a 7f 	ADD        R4,R4          | ADD        $-1,R1
 200dfa4:	32 03 ff f0 	BREV       $-16,R6
 200dfa8:	be ff b3 a0 	LDI        $-1,R7         | CMP        R4,R6
 200dfac:	78 98 00 08 	BC         @0x0200dfb8    // 200dfb8 <__unpack_d+0x90>
 200dfb0:	3c 0d 40 00 	CMP.Z      R5,R7
 200dfb4:	78 bb ff e0 	BNC        @0x0200df98    // 200df98 <__unpack_d+0x70>
 200dfb8:	0c c4 80 08 	SW         R1,$8(R2)
 200dfbc:	24 c4 80 0c 	SW         R4,$12(R2)
 200dfc0:	2c c4 80 10 	SW         R5,$16(R2)
 200dfc4:	78 80 00 a8 	BRA        @0x0200e070    // 200e070 <__unpack_d+0x148>
 200dfc8:	0c 00 07 ff 	CMP        $2047,R1
 200dfcc:	78 a8 00 60 	BNZ        @0x0200e030    // 200e030 <__unpack_d+0x108>
 200dfd0:	34 00 00 00 	CMP        $0,R6
 200dfd4:	3c 08 00 00 	CMP.Z      $0,R7
 200dfd8:	78 a8 00 08 	BNZ        @0x0200dfe4    // 200dfe4 <__unpack_d+0xbc>
 200dfdc:	be 04 bd 90 	LDI        $4,R7          | SW         R7,(R2)
 200dfe0:	78 80 00 8c 	BRA        @0x0200e070    // 200e070 <__unpack_d+0x148>
 200dfe4:	36 08 00 00 	LDI        $524288,R6
 200dfe8:	be 00 b9 a8 	CLR        R7             | AND        R5,R7
 200dfec:	30 45 00 00 	AND        R4,R6
 200dff0:	30 c5 c0 00 	OR         R7,R6
 200dff4:	0e 00 00 00 	CLR        R1
 200dff8:	0a 68 00 01 	LDILO.NZ   $1,R1
 200dffc:	8d 90 8f a8 	SW         R1,(R2)        | MOV        R5,R1
 200e000:	09 40 00 18 	LSR        $24,R1
 200e004:	33 41 00 00 	MOV        R4,R6
 200e008:	31 80 00 08 	LSL        $8,R6
 200e00c:	08 c5 80 00 	OR         R6,R1
 200e010:	b7 88 bf a8 	MOV        R1,R6          | MOV        R5,R7
 200e014:	39 80 00 08 	LSL        $8,R7
 200e018:	22 03 ff e0 	BREV       $-32,R4
 200e01c:	2e 7f ff 00 	LDI        $-256,R5
 200e020:	b9 a8 b1 a0 	AND        R5,R7          | AND        R4,R6
 200e024:	34 c4 80 0c 	SW         R6,$12(R2)
 200e028:	3c c4 80 10 	SW         R7,$16(R2)
 200e02c:	78 80 00 40 	BRA        @0x0200e070    // 200e070 <__unpack_d+0x148>
 200e030:	08 83 fc 01 	ADD        $-1023,R1
 200e034:	0c c4 80 08 	SW         R1,$8(R2)
 200e038:	8e 03 8d 90 	LDI        $3,R1          | SW         R1,(R2)
 200e03c:	0b 41 c0 00 	MOV        R7,R1
 200e040:	09 40 00 18 	LSR        $24,R1
 200e044:	23 41 80 00 	MOV        R6,R4
 200e048:	21 80 00 08 	LSL        $8,R4
 200e04c:	08 c5 00 00 	OR         R4,R1
 200e050:	a7 88 af b8 	MOV        R1,R4          | MOV        R7,R5
 200e054:	29 80 00 08 	LSL        $8,R5
 200e058:	32 00 00 08 	BREV       $8,R6
 200e05c:	3e 00 00 00 	CLR        R7
 200e060:	28 c5 c0 00 	OR         R7,R5
 200e064:	20 c5 80 00 	OR         R6,R4
 200e068:	24 c4 80 0c 	SW         R4,$12(R2)
 200e06c:	2c c4 80 10 	SW         R5,$16(R2)
 200e070:	ac 00 b4 04 	LW         (SP),R5        | LW         4(SP),R6
 200e074:	bc 08 ea 0c 	LW         8(SP),R7       | ADD        $12,SP
 200e078:	7b 40 00 00 	RTN

0200e07c <__fpcmp_parts_d>:
 200e07c:	9c 88 9b 02 	LW         (R1),R3        | CMP        $2,R3
 200e080:	78 98 01 10 	BC         @0x0200e194    // 200e194 <__fpcmp_parts_d+0x118>
 200e084:	a4 90 a3 02 	LW         (R2),R4        | CMP        $2,R4
 200e088:	78 98 01 0c 	BC         @0x0200e198    // 200e198 <__fpcmp_parts_d+0x11c>
 200e08c:	1c 00 00 04 	CMP        $4,R3
 200e090:	78 a8 00 28 	BNZ        @0x0200e0bc    // 200e0bc <__fpcmp_parts_d+0x40>
 200e094:	24 00 00 04 	CMP        $4,R4
 200e098:	78 a8 00 10 	BNZ        @0x0200e0ac    // 200e0ac <__fpcmp_parts_d+0x30>
 200e09c:	14 84 80 04 	LW         4(R2),R2
 200e0a0:	0c 84 40 04 	LW         4(R1),R1
 200e0a4:	90 88 8f 90 	SUB        R1,R2          | MOV        R2,R1
 200e0a8:	7b 40 00 00 	RTN
 200e0ac:	0c 84 40 04 	LW         4(R1),R1
 200e0b0:	0c 00 00 00 	CMP        $0,R1
 200e0b4:	78 88 00 e4 	BZ         @0x0200e19c    // 200e19c <__fpcmp_parts_d+0x120>
 200e0b8:	8e ff ff 80 	LDI        $-1,R1         | RTN
 200e0bc:	24 00 00 04 	CMP        $4,R4
 200e0c0:	78 a8 00 10 	BNZ        @0x0200e0d4    // 200e0d4 <__fpcmp_parts_d+0x58>
 200e0c4:	0c 84 80 04 	LW         4(R2),R1
 200e0c8:	0c 00 00 00 	CMP        $0,R1
 200e0cc:	78 88 00 d0 	BZ         @0x0200e1a0    // 200e1a0 <__fpcmp_parts_d+0x124>
 200e0d0:	8e 01 ff 80 	LDI        $1,R1          | RTN
 200e0d4:	1c 00 00 02 	CMP        $2,R3
 200e0d8:	78 a8 00 0c 	BNZ        @0x0200e0e8    // 200e0e8 <__fpcmp_parts_d+0x6c>
 200e0dc:	24 00 00 02 	CMP        $2,R4
 200e0e0:	78 ab ff e0 	BNZ        @0x0200e0c4    // 200e0c4 <__fpcmp_parts_d+0x48>
 200e0e4:	78 80 00 bc 	BRA        @0x0200e1a4    // 200e1a4 <__fpcmp_parts_d+0x128>
 200e0e8:	24 00 00 02 	CMP        $2,R4
 200e0ec:	78 8b ff bc 	BZ         @0x0200e0ac    // 200e0ac <__fpcmp_parts_d+0x30>
 200e0f0:	1c 84 40 04 	LW         4(R1),R3
 200e0f4:	24 84 80 04 	LW         4(R2),R4
 200e0f8:	1c 05 00 00 	CMP        R4,R3
 200e0fc:	78 88 00 d4 	BZ         @0x0200e1d4    // 200e1d4 <__fpcmp_parts_d+0x158>
 200e100:	1c 00 00 00 	CMP        $0,R3
 200e104:	78 88 00 a0 	BZ         @0x0200e1a8    // 200e1a8 <__fpcmp_parts_d+0x12c>
 200e108:	8e ff ff 80 	LDI        $-1,R1         | RTN
 200e10c:	e8 0c ad 00 	SUB        $12,SP         | SW         R5,(SP)
 200e110:	b5 04 bd 08 	SW         R6,$4(SP)      | SW         R7,$8(SP)
 200e114:	2c 84 40 08 	LW         8(R1),R5
 200e118:	24 84 80 08 	LW         8(R2),R4
 200e11c:	24 05 40 00 	CMP        R5,R4
 200e120:	78 b0 00 0c 	BGE        @0x0200e130    // 200e130 <__fpcmp_parts_d+0xb4>
 200e124:	8e ff 9b 00 	LDI        $-1,R1         | CMP        $0,R3
 200e128:	78 a8 00 9c 	BNZ        @0x0200e1c8    // 200e1c8 <__fpcmp_parts_d+0x14c>
 200e12c:	78 80 00 7c 	BRA        @0x0200e1ac    // 200e1ac <__fpcmp_parts_d+0x130>
 200e130:	2c 05 00 00 	CMP        R4,R5
 200e134:	78 b0 00 10 	BGE        @0x0200e148    // 200e148 <__fpcmp_parts_d+0xcc>
 200e138:	1c 00 00 00 	CMP        $0,R3
 200e13c:	78 88 00 74 	BZ         @0x0200e1b4    // 200e1b4 <__fpcmp_parts_d+0x138>
 200e140:	0e 00 00 01 	LDI        $1,R1
 200e144:	78 80 00 80 	BRA        @0x0200e1c8    // 200e1c8 <__fpcmp_parts_d+0x14c>
 200e148:	34 84 40 0c 	LW         12(R1),R6
 200e14c:	3c 84 40 10 	LW         16(R1),R7
 200e150:	24 84 80 0c 	LW         12(R2),R4
 200e154:	2c 84 80 10 	LW         16(R2),R5
 200e158:	24 05 80 00 	CMP        R6,R4
 200e15c:	78 98 00 08 	BC         @0x0200e168    // 200e168 <__fpcmp_parts_d+0xec>
 200e160:	2c 0d c0 00 	CMP.Z      R7,R5
 200e164:	78 b8 00 0c 	BNC        @0x0200e174    // 200e174 <__fpcmp_parts_d+0xf8>
 200e168:	8e ff 9b 00 	LDI        $-1,R1         | CMP        $0,R3
 200e16c:	78 a8 00 58 	BNZ        @0x0200e1c8    // 200e1c8 <__fpcmp_parts_d+0x14c>
 200e170:	78 80 00 48 	BRA        @0x0200e1bc    // 200e1bc <__fpcmp_parts_d+0x140>
 200e174:	8e 00 b3 a0 	CLR        R1             | CMP        R4,R6
 200e178:	78 98 00 08 	BC         @0x0200e184    // 200e184 <__fpcmp_parts_d+0x108>
 200e17c:	3c 0d 40 00 	CMP.Z      R5,R7
 200e180:	78 b8 00 44 	BNC        @0x0200e1c8    // 200e1c8 <__fpcmp_parts_d+0x14c>
 200e184:	1c 00 00 00 	CMP        $0,R3
 200e188:	78 88 00 38 	BZ         @0x0200e1c4    // 200e1c4 <__fpcmp_parts_d+0x148>
 200e18c:	0e 00 00 01 	LDI        $1,R1
 200e190:	78 80 00 34 	BRA        @0x0200e1c8    // 200e1c8 <__fpcmp_parts_d+0x14c>
 200e194:	8e 01 ff 80 	LDI        $1,R1          | RTN
 200e198:	8e 01 ff 80 	LDI        $1,R1          | RTN
 200e19c:	8e 01 ff 80 	LDI        $1,R1          | RTN
 200e1a0:	8e ff ff 80 	LDI        $-1,R1         | RTN
 200e1a4:	8e 00 ff 80 	CLR        R1             | RTN
 200e1a8:	8e 01 ff 80 	LDI        $1,R1          | RTN
 200e1ac:	0e 00 00 01 	LDI        $1,R1
 200e1b0:	78 80 00 14 	BRA        @0x0200e1c8    // 200e1c8 <__fpcmp_parts_d+0x14c>
 200e1b4:	0e 7f ff ff 	LDI        $-1,R1
 200e1b8:	78 80 00 0c 	BRA        @0x0200e1c8    // 200e1c8 <__fpcmp_parts_d+0x14c>
 200e1bc:	0e 00 00 01 	LDI        $1,R1
 200e1c0:	78 80 00 04 	BRA        @0x0200e1c8    // 200e1c8 <__fpcmp_parts_d+0x14c>
 200e1c4:	0e 7f ff ff 	LDI        $-1,R1
 200e1c8:	ac 00 b4 04 	LW         (SP),R5        | LW         4(SP),R6
 200e1cc:	bc 08 ea 0c 	LW         8(SP),R7       | ADD        $12,SP
 200e1d0:	7b 40 00 00 	RTN
 200e1d4:	78 83 ff 34 	BRA        @0x0200e10c    // 200e10c <__fpcmp_parts_d+0x90>

0200e1d8 <__errno>:
 200e1d8:	0a 03 00 40 	LDI        0x0200e78c,R1  // 200e78c <_impure_ptr>
 200e1dc:	0a 40 e7 8c 
 200e1e0:	8c 88 ff 80 	LW         (R1),R1        | RTN
 200e1e4:	69 6e 20 73 	LSR.NZ     $-8077+R8,SP
 200e1e8:	69 6e 67 6c 	LSR.NZ     $-6292+R9,SP
 200e1ec:	65 6c 69 66 	SH.NZ      R12,$-5786(R1)
 200e1f0:	74 20 00 00 	CMP.V      $0,CC
 200e1f4:	74 65 73 74 	TST.V      $-3212+R5,CC
 200e1f8:	69 6e 67 20 	LSR.NZ     $-6368+R9,SP
 200e1fc:	74 65 73 74 	TST.V      $-3212+R5,CC
 200e200:	5f 66 77 64 	ILL 5f667764
 200e204:	20 00 00 00 	SUB        $0,R4
 200e208:	78 20 3d 20 	SUB.V      $15648,PC
 200e20c:	30 78 25 78 	AND.NC     $9592,R6
 200e210:	20 73 70 20 	AND.GE     $-36832,R4
 200e214:	3d 20 30 78 	LH.V       ($12408),R7
 200e218:	25 78 20 7a 	SH.NC      R4,($8314)
 200e21c:	20 3d 20 30 	SUB.NC     $-8144+R4,R4
 200e220:	78 25 78 0a 	SUB.V      $-2038+R5,PC
 200e224:	00 00 00 00 	SUB        $0,R0
 200e228:	70 74 72 73 	AND.GE     $-3469+R1,CC
 200e22c:	2e 69 6e 70 	LDI        $-1479056,R5
 200e230:	62 75 66 20 	LDILO.GE   $-6624+R5,R12
 200e234:	3d 20 30 78 	LH.V       ($12408),R7
 200e238:	25 78 20 62 	SH.NC      R4,($8290)
 200e23c:	75 66 5f 72 	SH.V       CC,$8050(R9)
 200e240:	65 64 20 3d 	SH.V       R12,$-8131(R0)
 200e244:	20 30 78 25 	SUB.GE     $30757,R4
 200e248:	78 0a 00 00 	SUB.Z      $-131072,PC
 200e24c:	66 77 64 5f 	LDI        $-564129,R12
 200e250:	69 6e 76 20 	LSR.NZ     $-2528+R9,SP
 200e254:	3d 20 30 78 	LH.V       ($12408),R7
 200e258:	25 78 0a 00 	SH.NC      R4,($2560)
 200e25c:	73 70 6c 69 	MOV.GE     $3177+uR1,CC
 200e260:	74 69 6e 67 	TST.NZ     $93799,CC
 200e264:	20 72 65 64 	AND.GE     $-105116,R4
 200e268:	20 73 75 62 	AND.GE     $-35486,R4
 200e26c:	20 62 61 6e 	AND.V      $-106130,R4
 200e270:	64 00 00 00 	CMP        $0,R12
 200e274:	73 70 6c 69 	MOV.GE     $3177+uR1,CC
 200e278:	74 69 6e 67 	TST.NZ     $93799,CC
 200e27c:	20 67 72 65 	AND.V      $-3483+SP,R4
 200e280:	65 6e 20 73 	SH.NZ      R12,$-8077(R8)
 200e284:	75 62 20 62 	SH.V       CC,($-122782)
 200e288:	61 6e 64 00 	LSR.NZ     $-7168+R9,R12
 200e28c:	73 70 6c 69 	MOV.GE     $3177+uR1,CC
 200e290:	74 69 6e 67 	TST.NZ     $93799,CC
 200e294:	20 62 6c 75 	AND.V      $-103307,R4
 200e298:	65 20 73 75 	LH.V       ($29557),R12
 200e29c:	62 20 62 61 	BREV.V     $25185,R12
 200e2a0:	6e 64 00 00 	LDI        $-1835008,SP
 200e2a4:	46 69 72 73 	LDI        $-1478029,R8
 200e2a8:	74 20 70 61 	CMP.V      $28769,CC
 200e2ac:	72 61 6d 65 	TRAP.V     $93541
 200e2b0:	74 65 72 20 	TST.V      $-3552+R5,CC
 200e2b4:	63 61 6e 20 	MOV.V      $3616+uR5,R12
 200e2b8:	6f 6e 6c 79 	ILL 6f6e6c79
 200e2bc:	20 62 65 20 	AND.V      $-105184,R4
 200e2c0:	30 20 31 20 	SUB.V      $12576,R6
 200e2c4:	32 20 00 00 	CLR.V      $0,R6
 200e2c8:	66 77 64 20 	LDI        $-564192,R12
 200e2cc:	6c 69 66 74 	TST.NZ     $91764,SP
 200e2d0:	69 6e 67 20 	LSR.NZ     $-6368+R9,SP
 200e2d4:	74 68 65 6e 	TST.NZ     $25966,CC
 200e2d8:	20 69 6e 76 	AND.NZ     $93814,R4
 200e2dc:	20 6c 69 66 	AND.NZ     $-5786+R1,R4
 200e2e0:	74 69 6e 67 	TST.NZ     $93799,CC
 200e2e4:	20 73 74 65 	AND.GE     $-35739,R4
 200e2e8:	70 00 00 00 	SUB        $0,CC
 200e2ec:	66 77 64 20 	LDI        $-564192,R12
 200e2f0:	6c 69 66 74 	TST.NZ     $91764,SP
 200e2f4:	69 6e 67 20 	LSR.NZ     $-6368+R9,SP
 200e2f8:	73 74 65 70 	MOV.GE     $1392+uR1,uCC
 200e2fc:	20 6f 6e 6c 	AND.NZ     $-4500+SP,R4
 200e300:	79 00 00 00 	XOR        $0,PC
 200e304:	42 4c 4b 52 	LDILO.Z    $2898+R1,R8
 200e308:	41 4d 5f 49 	LSR.Z      $8009+R5,R8
 200e30c:	4e 56 46 57 	LDI        $-2734505,R9
 200e310:	44 20 70 61 	CMP.V      $28769,R8
 200e314:	72 61 6d 65 	TRAP.V     $93541
 200e318:	74 65 72 20 	TST.V      $-3552+R5,CC
 200e31c:	63 61 6e 20 	MOV.V      $3616+uR5,R12
 200e320:	6f 6e 6c 79 	ILL 6f6e6c79
 200e324:	20 62 65 20 	AND.V      $-105184,R4
 200e328:	30 20 31 20 	SUB.V      $12576,R6
 200e32c:	20 00 00 00 	SUB        $0,R4
 200e330:	77 20 3d 20 	BREAK      @0x01e12054    // 1e12054 <_bkram+0xa12054>
 200e334:	30 78 25 78 	AND.NC     $9592,R6
 200e338:	20 77 70 74 	AND.GE     $-3980+SP,R4
 200e33c:	72 20 3d 20 	BREV.V     $15648,CC
 200e340:	30 78 25 78 	AND.NC     $9592,R6
 200e344:	20 61 6c 74 	AND.V      $93300,R4
 200e348:	20 3d 20 20 	SUB.NC     $-8160+R4,R4
 200e34c:	30 78 25 78 	AND.NC     $9592,R6
 200e350:	20 66 77 64 	AND.V      $-2204+R9,R4
 200e354:	5f 69 6e 76 	ILL 5f696e76
 200e358:	65 72 73 65 	SH.GE      R12,($-101531)
 200e35c:	20 3d 20 20 	SUB.NC     $-8160+R4,R4
 200e360:	30 78 25 78 	AND.NC     $9592,R6
 200e364:	20 66 77 64 	AND.V      $-2204+R9,R4
 200e368:	5f 69 6e 76 	ILL 5f696e76
 200e36c:	65 72 73 65 	SH.GE      R12,($-101531)
 200e370:	20 3d 20 20 	SUB.NC     $-8160+R4,R4
 200e374:	30 78 25 78 	AND.NC     $9592,R6
 200e378:	20 0a 00 00 	SUB.Z      $-131072,R4
 200e37c:	73 74 61 72 	MOV.GE     $370+uR1,uCC
 200e380:	74 69 6e 67 	TST.NZ     $93799,CC
 200e384:	20 72 65 64 	AND.GE     $-105116,R4
 200e388:	20 64 77 74 	AND.V      $-2188+R1,R4
 200e38c:	00 00 00 00 	SUB        $0,R0
 200e390:	66 69 6e 69 	LDI        $-1479063,R12
 200e394:	73 68 65 64 	MOV.NZ     $1380+uR1,CC
 200e398:	20 74 65 64 	AND.GE     $-6812+R1,R4
 200e39c:	20 64 77 74 	AND.V      $-2188+R1,R4
 200e3a0:	00 00 00 00 	SUB        $0,R0

0200e3a4 <_global_impure_ptr>:
 200e3a4:	02 00 e7 90 0a 00 00 00 49 4e 46 00 69 6e 66 00     ........INF.inf.
 200e3b4:	4e 41 4e 00 6e 61 6e 00 30 31 32 33 34 35 36 37     NAN.nan.01234567
 200e3c4:	38 39 41 42 43 44 45 46 00 00 00 00 30 31 32 33     89ABCDEF....0123
 200e3d4:	34 35 36 37 38 39 61 62 63 64 65 66 00 00 00 00     456789abcdef....
 200e3e4:	28 6e 75 6c 6c 29 00 00 30 00 00 00                 (null)..0...

0200e3f0 <zeroes.4494>:
 200e3f0:	30 30 30 30 30 30 30 30 30 30 30 30 30 30 30 30     0000000000000000

0200e400 <blanks.4493>:
 200e400:	20 20 20 20 20 20 20 20 20 20 20 20 20 20 20 20                     
 200e410:	49 6e 66 69 6e 69 74 79 00 00 00 00 4e 61 4e 00     Infinity....NaN.
 200e420:	43 00 00 00 50 4f 53 49 58 00 00 00 2e 00 00 00     C...POSIX.......

0200e430 <p05.3316>:
 200e430:	00 00 00 05 00 00 00 19 00 00 00 7d                 ...........}

0200e43c <__mprec_tinytens>:
 200e43c:	3c 9c d2 b2 97 d8 89 bc 39 49 f6 23 d5 a8 a7 33     <.......9I.#...3
 200e44c:	32 a5 0f fd 44 f4 a7 3d 25 5b ba 08 cf 8c 97 9d     2...D..=%[......
 200e45c:	0a c8 06 28 64 ac 6f 43                             ...(d.oC

0200e464 <__mprec_bigtens>:
 200e464:	43 41 c3 79 37 e0 80 00 46 93 b8 b5 b5 05 6e 17     CA.y7...F.....n.
 200e474:	4d 38 4f 03 e9 3f f9 f5 5a 82 77 48 f9 30 1d 32     M8O..?..Z.wH.0.2
 200e484:	75 15 4f dd 7f 73 bf 3c                             u.O..s.<

0200e48c <__mprec_tens>:
 200e48c:	3f f0 00 00 00 00 00 00 40 24 00 00 00 00 00 00     ?.......@$......
 200e49c:	40 59 00 00 00 00 00 00 40 8f 40 00 00 00 00 00     @Y......@.@.....
 200e4ac:	40 c3 88 00 00 00 00 00 40 f8 6a 00 00 00 00 00     @.......@.j.....
 200e4bc:	41 2e 84 80 00 00 00 00 41 63 12 d0 00 00 00 00     A.......Ac......
 200e4cc:	41 97 d7 84 00 00 00 00 41 cd cd 65 00 00 00 00     A.......A..e....
 200e4dc:	42 02 a0 5f 20 00 00 00 42 37 48 76 e8 00 00 00     B.._ ...B7Hv....
 200e4ec:	42 6d 1a 94 a2 00 00 00 42 a2 30 9c e5 40 00 00     Bm......B.0..@..
 200e4fc:	42 d6 bc c4 1e 90 00 00 43 0c 6b f5 26 34 00 00     B.......C.k.&4..
 200e50c:	43 41 c3 79 37 e0 80 00 43 76 34 57 85 d8 a0 00     CA.y7...Cv4W....
 200e51c:	43 ab c1 6d 67 4e c8 00 43 e1 58 e4 60 91 3d 00     C..mgN..C.X.`.=.
 200e52c:	44 15 af 1d 78 b5 8c 40 44 4b 1a e4 d6 e2 ef 50     D...x..@DK.....P
 200e53c:	44 80 f0 cf 06 4d d5 92 44 b5 2d 02 c7 e1 4a f6     D....M..D.-...J.
 200e54c:	44 ea 78 43 79 d9 9d b4                             D.xCy...

0200e554 <zeroes.4473>:
 200e554:	30 30 30 30 30 30 30 30 30 30 30 30 30 30 30 30     0000000000000000

0200e564 <blanks.4472>:
 200e564:	20 20 20 20 20 20 20 20 20 20 20 20 20 20 20 20                     

0200e574 <_ctype_>:
 200e574:	00 20 20 20 20 20 20 20 20 20 28 28 28 28 28 20     .         ((((( 
 200e584:	20 20 20 20 20 20 20 20 20 20 20 20 20 20 20 20                     
 200e594:	20 88 10 10 10 10 10 10 10 10 10 10 10 10 10 10      ...............
 200e5a4:	10 04 04 04 04 04 04 04 04 04 04 10 10 10 10 10     ................
 200e5b4:	10 10 41 41 41 41 41 41 01 01 01 01 01 01 01 01     ..AAAAAA........
 200e5c4:	01 01 01 01 01 01 01 01 01 01 01 01 10 10 10 10     ................
 200e5d4:	10 10 42 42 42 42 42 42 02 02 02 02 02 02 02 02     ..BBBBBB........
 200e5e4:	02 02 02 02 02 02 02 02 02 02 02 02 10 10 10 10     ................
 200e5f4:	20 00 00 00 00 00 00 00 00 00 00 00 00 00 00 00      ...............
	...

0200e678 <__thenan_df>:
	...

0200e68c <__clz_tab>:
 200e68c:	00 01 02 02 03 03 03 03 04 04 04 04 04 04 04 04     ................
 200e69c:	05 05 05 05 05 05 05 05 05 05 05 05 05 05 05 05     ................
 200e6ac:	06 06 06 06 06 06 06 06 06 06 06 06 06 06 06 06     ................
 200e6bc:	06 06 06 06 06 06 06 06 06 06 06 06 06 06 06 06     ................
 200e6cc:	07 07 07 07 07 07 07 07 07 07 07 07 07 07 07 07     ................
 200e6dc:	07 07 07 07 07 07 07 07 07 07 07 07 07 07 07 07     ................
 200e6ec:	07 07 07 07 07 07 07 07 07 07 07 07 07 07 07 07     ................
 200e6fc:	07 07 07 07 07 07 07 07 07 07 07 07 07 07 07 07     ................
 200e70c:	08 08 08 08 08 08 08 08 08 08 08 08 08 08 08 08     ................
 200e71c:	08 08 08 08 08 08 08 08 08 08 08 08 08 08 08 08     ................
 200e72c:	08 08 08 08 08 08 08 08 08 08 08 08 08 08 08 08     ................
 200e73c:	08 08 08 08 08 08 08 08 08 08 08 08 08 08 08 08     ................
 200e74c:	08 08 08 08 08 08 08 08 08 08 08 08 08 08 08 08     ................
 200e75c:	08 08 08 08 08 08 08 08 08 08 08 08 08 08 08 08     ................
 200e76c:	08 08 08 08 08 08 08 08 08 08 08 08 08 08 08 08     ................
 200e77c:	08 08 08 08 08 08 08 08 08 08 08 08 08 08 08 08     ................

0200e78c <_impure_ptr>:
 200e78c:	02 00 e7 90                                         ....

0200e790 <impure_data>:
 200e790:	00 00 00 00 02 00 ea 7c 02 00 ea e8 02 00 eb 54     .......|.......T
	...
 200e838:	00 00 00 01 33 0e ab cd 12 34 e6 6d de ec 00 05     ....3....4.m....
 200e848:	00 0b 00 00 00 00 00 00 00 00 00 00 00 00 00 00     ................
	...

0200ebc0 <__malloc_sbrk_base>:
 200ebc0:	ff ff ff ff                                         ....

0200ebc4 <__malloc_trim_threshold>:
 200ebc4:	00 00 00 00 00 02 00 00                             ........

0200ebcc <__malloc_av_>:
	...
 200ebd4:	02 00 eb cc 02 00 eb cc 02 00 eb d4 02 00 eb d4     ................
 200ebe4:	02 00 eb dc 02 00 eb dc 02 00 eb e4 02 00 eb e4     ................
 200ebf4:	02 00 eb ec 02 00 eb ec 02 00 eb f4 02 00 eb f4     ................
 200ec04:	02 00 eb fc 02 00 eb fc 02 00 ec 04 02 00 ec 04     ................
 200ec14:	02 00 ec 0c 02 00 ec 0c 02 00 ec 14 02 00 ec 14     ................
 200ec24:	02 00 ec 1c 02 00 ec 1c 02 00 ec 24 02 00 ec 24     ...........$...$
 200ec34:	02 00 ec 2c 02 00 ec 2c 02 00 ec 34 02 00 ec 34     ...,...,...4...4
 200ec44:	02 00 ec 3c 02 00 ec 3c 02 00 ec 44 02 00 ec 44     ...<...<...D...D
 200ec54:	02 00 ec 4c 02 00 ec 4c 02 00 ec 54 02 00 ec 54     ...L...L...T...T
 200ec64:	02 00 ec 5c 02 00 ec 5c 02 00 ec 64 02 00 ec 64     ...\...\...d...d
 200ec74:	02 00 ec 6c 02 00 ec 6c 02 00 ec 74 02 00 ec 74     ...l...l...t...t
 200ec84:	02 00 ec 7c 02 00 ec 7c 02 00 ec 84 02 00 ec 84     ...|...|........
 200ec94:	02 00 ec 8c 02 00 ec 8c 02 00 ec 94 02 00 ec 94     ................
 200eca4:	02 00 ec 9c 02 00 ec 9c 02 00 ec a4 02 00 ec a4     ................
 200ecb4:	02 00 ec ac 02 00 ec ac 02 00 ec b4 02 00 ec b4     ................
 200ecc4:	02 00 ec bc 02 00 ec bc 02 00 ec c4 02 00 ec c4     ................
 200ecd4:	02 00 ec cc 02 00 ec cc 02 00 ec d4 02 00 ec d4     ................
 200ece4:	02 00 ec dc 02 00 ec dc 02 00 ec e4 02 00 ec e4     ................
 200ecf4:	02 00 ec ec 02 00 ec ec 02 00 ec f4 02 00 ec f4     ................
 200ed04:	02 00 ec fc 02 00 ec fc 02 00 ed 04 02 00 ed 04     ................
 200ed14:	02 00 ed 0c 02 00 ed 0c 02 00 ed 14 02 00 ed 14     ................
 200ed24:	02 00 ed 1c 02 00 ed 1c 02 00 ed 24 02 00 ed 24     ...........$...$
 200ed34:	02 00 ed 2c 02 00 ed 2c 02 00 ed 34 02 00 ed 34     ...,...,...4...4
 200ed44:	02 00 ed 3c 02 00 ed 3c 02 00 ed 44 02 00 ed 44     ...<...<...D...D
 200ed54:	02 00 ed 4c 02 00 ed 4c 02 00 ed 54 02 00 ed 54     ...L...L...T...T
 200ed64:	02 00 ed 5c 02 00 ed 5c 02 00 ed 64 02 00 ed 64     ...\...\...d...d
 200ed74:	02 00 ed 6c 02 00 ed 6c 02 00 ed 74 02 00 ed 74     ...l...l...t...t
 200ed84:	02 00 ed 7c 02 00 ed 7c 02 00 ed 84 02 00 ed 84     ...|...|........
 200ed94:	02 00 ed 8c 02 00 ed 8c 02 00 ed 94 02 00 ed 94     ................
 200eda4:	02 00 ed 9c 02 00 ed 9c 02 00 ed a4 02 00 ed a4     ................
 200edb4:	02 00 ed ac 02 00 ed ac 02 00 ed b4 02 00 ed b4     ................
 200edc4:	02 00 ed bc 02 00 ed bc 02 00 ed c4 02 00 ed c4     ................
 200edd4:	02 00 ed cc 02 00 ed cc 02 00 ed d4 02 00 ed d4     ................
 200ede4:	02 00 ed dc 02 00 ed dc 02 00 ed e4 02 00 ed e4     ................
 200edf4:	02 00 ed ec 02 00 ed ec 02 00 ed f4 02 00 ed f4     ................
 200ee04:	02 00 ed fc 02 00 ed fc 02 00 ee 04 02 00 ee 04     ................
 200ee14:	02 00 ee 0c 02 00 ee 0c 02 00 ee 14 02 00 ee 14     ................
 200ee24:	02 00 ee 1c 02 00 ee 1c 02 00 ee 24 02 00 ee 24     ...........$...$
 200ee34:	02 00 ee 2c 02 00 ee 2c 02 00 ee 34 02 00 ee 34     ...,...,...4...4
 200ee44:	02 00 ee 3c 02 00 ee 3c 02 00 ee 44 02 00 ee 44     ...<...<...D...D
 200ee54:	02 00 ee 4c 02 00 ee 4c 02 00 ee 54 02 00 ee 54     ...L...L...T...T
 200ee64:	02 00 ee 5c 02 00 ee 5c 02 00 ee 64 02 00 ee 64     ...\...\...d...d
 200ee74:	02 00 ee 6c 02 00 ee 6c 02 00 ee 74 02 00 ee 74     ...l...l...t...t
 200ee84:	02 00 ee 7c 02 00 ee 7c 02 00 ee 84 02 00 ee 84     ...|...|........
 200ee94:	02 00 ee 8c 02 00 ee 8c 02 00 ee 94 02 00 ee 94     ................
 200eea4:	02 00 ee 9c 02 00 ee 9c 02 00 ee a4 02 00 ee a4     ................
 200eeb4:	02 00 ee ac 02 00 ee ac 02 00 ee b4 02 00 ee b4     ................
 200eec4:	02 00 ee bc 02 00 ee bc 02 00 ee c4 02 00 ee c4     ................
 200eed4:	02 00 ee cc 02 00 ee cc 02 00 ee d4 02 00 ee d4     ................
 200eee4:	02 00 ee dc 02 00 ee dc 02 00 ee e4 02 00 ee e4     ................
 200eef4:	02 00 ee ec 02 00 ee ec 02 00 ee f4 02 00 ee f4     ................
 200ef04:	02 00 ee fc 02 00 ee fc 02 00 ef 04 02 00 ef 04     ................
 200ef14:	02 00 ef 0c 02 00 ef 0c 02 00 ef 14 02 00 ef 14     ................
 200ef24:	02 00 ef 1c 02 00 ef 1c 02 00 ef 24 02 00 ef 24     ...........$...$
 200ef34:	02 00 ef 2c 02 00 ef 2c 02 00 ef 34 02 00 ef 34     ...,...,...4...4
 200ef44:	02 00 ef 3c 02 00 ef 3c 02 00 ef 44 02 00 ef 44     ...<...<...D...D
 200ef54:	02 00 ef 4c 02 00 ef 4c 02 00 ef 54 02 00 ef 54     ...L...L...T...T
 200ef64:	02 00 ef 5c 02 00 ef 5c 02 00 ef 64 02 00 ef 64     ...\...\...d...d
 200ef74:	02 00 ef 6c 02 00 ef 6c 02 00 ef 74 02 00 ef 74     ...l...l...t...t
 200ef84:	02 00 ef 7c 02 00 ef 7c 02 00 ef 84 02 00 ef 84     ...|...|........
 200ef94:	02 00 ef 8c 02 00 ef 8c 02 00 ef 94 02 00 ef 94     ................
 200efa4:	02 00 ef 9c 02 00 ef 9c 02 00 ef a4 02 00 ef a4     ................
 200efb4:	02 00 ef ac 02 00 ef ac 02 00 ef b4 02 00 ef b4     ................
 200efc4:	02 00 ef bc 02 00 ef bc 02 00 ef c4 02 00 ef c4     ................

0200efd4 <__global_locale>:
 200efd4:	43 00 00 00 00 00 00 00 00 00 00 00 00 00 00 00     C...............
	...
 200eff4:	43 00 00 00 00 00 00 00 00 00 00 00 00 00 00 00     C...............
	...
 200f014:	43 00 00 00 00 00 00 00 00 00 00 00 00 00 00 00     C...............
	...
 200f034:	43 00 00 00 00 00 00 00 00 00 00 00 00 00 00 00     C...............
	...
 200f054:	43 00 00 00 00 00 00 00 00 00 00 00 00 00 00 00     C...............
	...
 200f074:	43 00 00 00 00 00 00 00 00 00 00 00 00 00 00 00     C...............
	...
 200f094:	43 00 00 00 00 00 00 00 00 00 00 00 00 00 00 00     C...............
	...
 200f0b4:	02 00 b5 54 02 00 72 e0 00 00 00 00 02 00 e5 74     ...T..r........t
 200f0c4:	02 00 e4 2c 02 00 e2 24 02 00 e2 24 02 00 e2 24     ...,...$...$...$
 200f0d4:	02 00 e2 24 02 00 e2 24 02 00 e2 24 02 00 e2 24     ...$...$...$...$
 200f0e4:	02 00 e2 24 02 00 e2 24 ff ff ff ff ff ff ff ff     ...$...$........
 200f0f4:	ff ff ff ff ff ff 00 00 01 00 41 53 43 49 49 00     ..........ASCII.
	...
 200f11c:	00 00 41 53 43 49 49 00 00 00 00 00 00 00 00 00     ..ASCII.........
	...

0200f140 <heap>:
 200f140:	02 04 f1 b8                                         ....

0200f144 <environ>:
 200f144:	02 04 f1 b0                                         ....

0200f148 <ptrs>:
	...

0204f16c <__malloc_current_mallinfo>:
	...

0204f194 <__malloc_max_total_mem>:
	...

0204f19c <__malloc_max_sbrked_mem>:
	...

0204f1a4 <__malloc_top_pad>:
	...

0204f1ac <_PathLocale>:
 204f1ac:	00 00 00 00                                         ....

0204f1b0 <__env>:
 204f1b0:	00 00 00 00                                         ....

0204f1b4 <last_was_cr.2996>:
 204f1b4:	00 00 00 00                                         ....
